Archive member included to satisfy reference by file (symbol)

c:/program files/microchip/xc32/v4.45/bin/bin/../../lib/gcc/pic32c/8.3.1/../../../../pic32c/lib/thumb/v7e-m+fp/hard\libpic32c.a(data_init.o)
                              build/FreeRTOS/production/_ext/161576091/startup_xc32.o (__pic32c_data_initialization)
c:/program files/microchip/xc32/v4.45/bin/bin/../../lib/gcc/pic32c/8.3.1/../../../../pic32c/lib/thumb/v7e-m+fp/hard\libc-size-musl.a(memcmp.o)
                              build/FreeRTOS/production/_ext/540595297/tcpip_commands.o (memcmp)
c:/program files/microchip/xc32/v4.45/bin/bin/../../lib/gcc/pic32c/8.3.1/../../../../pic32c/lib/thumb/v7e-m+fp/hard\libc-size-musl.a(memcpy.o)
                              build/FreeRTOS/production/_ext/1785105562/tc6.o (memcpy)
c:/program files/microchip/xc32/v4.45/bin/bin/../../lib/gcc/pic32c/8.3.1/../../../../pic32c/lib/thumb/v7e-m+fp/hard\libc-size-musl.a(memmove.o)
                              build/FreeRTOS/production/_ext/1664057780/asn.o (memmove)
c:/program files/microchip/xc32/v4.45/bin/bin/../../lib/gcc/pic32c/8.3.1/../../../../pic32c/lib/thumb/v7e-m+fp/hard\libc-size-musl.a(memset.o)
                              build/FreeRTOS/production/_ext/1785105562/tc6.o (memset)
c:/program files/microchip/xc32/v4.45/bin/bin/../../lib/gcc/pic32c/8.3.1/../../../../pic32c/lib/thumb/v7e-m+fp/hard\libc-size-musl.a(strlen.o)
                              build/FreeRTOS/production/_ext/540595297/helpers.o (strlen)
c:/program files/microchip/xc32/v4.45/bin/bin/../../lib/gcc/pic32c/8.3.1/../../../../pic32c/lib/thumb/v7e-m+fp/hard\libc-size-musl.a(strchr.o)
                              build/FreeRTOS/production/_ext/1005353002/sys_command.o (strchr)
c:/program files/microchip/xc32/v4.45/bin/bin/../../lib/gcc/pic32c/8.3.1/../../../../pic32c/lib/thumb/v7e-m+fp/hard\libc-size-musl.a(strchrnul.o)
                              c:/program files/microchip/xc32/v4.45/bin/bin/../../lib/gcc/pic32c/8.3.1/../../../../pic32c/lib/thumb/v7e-m+fp/hard\libc-size-musl.a(strchr.o) (__strchrnul)
c:/program files/microchip/xc32/v4.45/bin/bin/../../lib/gcc/pic32c/8.3.1/../../../../pic32c/lib/thumb/v7e-m+fp/hard\libc-size-musl.a(strcmp.o)
                              build/FreeRTOS/production/_ext/540595297/tcpip_commands.o (strcmp)
c:/program files/microchip/xc32/v4.45/bin/bin/../../lib/gcc/pic32c/8.3.1/../../../../pic32c/lib/thumb/v7e-m+fp/hard\libc-size-musl.a(strcpy.o)
                              build/FreeRTOS/production/_ext/540595297/tcpip_commands.o (strcpy)
c:/program files/microchip/xc32/v4.45/bin/bin/../../lib/gcc/pic32c/8.3.1/../../../../pic32c/lib/thumb/v7e-m+fp/hard\libc-size-musl.a(strncmp.o)
                              build/FreeRTOS/production/_ext/1005353002/sys_command.o (strncmp)
c:/program files/microchip/xc32/v4.45/bin/bin/../../lib/gcc/pic32c/8.3.1/../../../../pic32c/lib/thumb/v7e-m+fp/hard\libc-size-musl.a(strncpy.o)
                              build/FreeRTOS/production/_ext/1609394304/crypto.o (strncpy)
c:/program files/microchip/xc32/v4.45/bin/bin/../../lib/gcc/pic32c/8.3.1/../../../../pic32c/lib/thumb/v7e-m+fp/hard\libc-size-musl.a(strrchr.o)
                              build/FreeRTOS/production/_ext/540595297/tcpip_manager.o (strrchr)
c:/program files/microchip/xc32/v4.45/bin/bin/../../lib/gcc/pic32c/8.3.1/../../../../pic32c/lib/thumb/v7e-m+fp/hard\libc-size-musl.a(strtok.o)
                              build/FreeRTOS/production/_ext/1005353002/sys_command.o (strtok)
c:/program files/microchip/xc32/v4.45/bin/bin/../../lib/gcc/pic32c/8.3.1/../../../../pic32c/lib/thumb/v7e-m+fp/hard\libc-size-musl.a(memrchr.o)
                              c:/program files/microchip/xc32/v4.45/bin/bin/../../lib/gcc/pic32c/8.3.1/../../../../pic32c/lib/thumb/v7e-m+fp/hard\libc-size-musl.a(strrchr.o) (__memrchr)
c:/program files/microchip/xc32/v4.45/bin/bin/../../lib/gcc/pic32c/8.3.1/../../../../pic32c/lib/thumb/v7e-m+fp/hard\libc-size-musl.a(stpcpy.o)
                              c:/program files/microchip/xc32/v4.45/bin/bin/../../lib/gcc/pic32c/8.3.1/../../../../pic32c/lib/thumb/v7e-m+fp/hard\libc-size-musl.a(strcpy.o) (__stpcpy)
c:/program files/microchip/xc32/v4.45/bin/bin/../../lib/gcc/pic32c/8.3.1/../../../../pic32c/lib/thumb/v7e-m+fp/hard\libc-size-musl.a(stpncpy.o)
                              c:/program files/microchip/xc32/v4.45/bin/bin/../../lib/gcc/pic32c/8.3.1/../../../../pic32c/lib/thumb/v7e-m+fp/hard\libc-size-musl.a(strncpy.o) (__stpncpy)
c:/program files/microchip/xc32/v4.45/bin/bin/../../lib/gcc/pic32c/8.3.1/../../../../pic32c/lib/thumb/v7e-m+fp/hard\libc-size-musl.a(strcspn.o)
                              c:/program files/microchip/xc32/v4.45/bin/bin/../../lib/gcc/pic32c/8.3.1/../../../../pic32c/lib/thumb/v7e-m+fp/hard\libc-size-musl.a(strtok.o) (strcspn)
c:/program files/microchip/xc32/v4.45/bin/bin/../../lib/gcc/pic32c/8.3.1/../../../../pic32c/lib/thumb/v7e-m+fp/hard\libc-size-musl.a(strspn.o)
                              c:/program files/microchip/xc32/v4.45/bin/bin/../../lib/gcc/pic32c/8.3.1/../../../../pic32c/lib/thumb/v7e-m+fp/hard\libc-size-musl.a(strtok.o) (strspn)
c:/program files/microchip/xc32/v4.45/bin/bin/../../lib/gcc/pic32c/8.3.1/../../../../pic32c/lib/thumb/v7e-m+fp/hard\liblmalloc-musl.a(lite_free.o)
                              build/FreeRTOS/production/_ext/1609394304/crypto.o (free)
c:/program files/microchip/xc32/v4.45/bin/bin/../../lib/gcc/pic32c/8.3.1/../../../../pic32c/lib/thumb/v7e-m+fp/hard\liblmalloc-musl.a(lite_malloc.o)
                              build/FreeRTOS/production/_ext/1609394304/crypto.o (malloc)
c:/program files/microchip/xc32/v4.45/bin/bin/../../lib/gcc/pic32c/8.3.1/../../../../pic32c/lib/thumb/v7e-m+fp/hard\libm-fast-emfloat.a(__aeabi_dadd.o)
                              build/FreeRTOS/production/_ext/540595297/iperf.o (__aeabi_dadd)
c:/program files/microchip/xc32/v4.45/bin/bin/../../lib/gcc/pic32c/8.3.1/../../../../pic32c/lib/thumb/v7e-m+fp/hard\libm-fast-emfloat.a(__aeabi_dsub.o)
                              build/FreeRTOS/production/_ext/540595297/iperf.o (__aeabi_dsub)
c:/program files/microchip/xc32/v4.45/bin/bin/../../lib/gcc/pic32c/8.3.1/../../../../pic32c/lib/thumb/v7e-m+fp/hard\libm-fast-emfloat.a(__aeabi_dmul.o)
                              build/FreeRTOS/production/_ext/540595297/iperf.o (__aeabi_dmul)
c:/program files/microchip/xc32/v4.45/bin/bin/../../lib/gcc/pic32c/8.3.1/../../../../pic32c/lib/thumb/v7e-m+fp/hard\libm-fast-emfloat.a(__aeabi_ddiv.o)
                              build/FreeRTOS/production/_ext/540595297/iperf.o (__aeabi_ddiv)
c:/program files/microchip/xc32/v4.45/bin/bin/../../lib/gcc/pic32c/8.3.1/../../../../pic32c/lib/thumb/v7e-m+fp/hard\libm-fast-emfloat.a(__aeabi_dcmpgt.o)
                              build/FreeRTOS/production/_ext/540595297/iperf.o (__aeabi_dcmpgt)
c:/program files/microchip/xc32/v4.45/bin/bin/../../lib/gcc/pic32c/8.3.1/../../../../pic32c/lib/thumb/v7e-m+fp/hard\libm-fast-emfloat.a(__aeabi_d2uiz.o)
                              build/FreeRTOS/production/_ext/540595297/iperf.o (__aeabi_d2uiz)
c:/program files/microchip/xc32/v4.45/bin/bin/../../lib/gcc/pic32c/8.3.1/../../../../pic32c/lib/thumb/v7e-m+fp/hard\libm-fast-emfloat.a(__aeabi_i2d.o)
                              build/FreeRTOS/production/_ext/540595297/iperf.o (__aeabi_i2d)
c:/program files/microchip/xc32/v4.45/bin/bin/../../lib/gcc/pic32c/8.3.1/../../../../pic32c/lib/thumb/v7e-m+fp/hard\libm-fast-emfloat.a(__aeabi_ui2d.o)
                              build/FreeRTOS/production/_ext/540595297/iperf.o (__aeabi_ui2d)
c:/program files/microchip/xc32/v4.45/bin/bin/../../lib/gcc/pic32c/8.3.1/../../../../pic32c/lib/thumb/v7e-m+fp/hard\libc-musl.a(isxdigit.o)
                              build/FreeRTOS/production/_ext/540595297/tcpip_helpers.o (isxdigit)
c:/program files/microchip/xc32/v4.45/bin/bin/../../lib/gcc/pic32c/8.3.1/../../../../pic32c/lib/thumb/v7e-m+fp/hard\libc-musl.a(tolower.o)
                              build/FreeRTOS/production/_ext/540595297/helpers.o (tolower)
c:/program files/microchip/xc32/v4.45/bin/bin/../../lib/gcc/pic32c/8.3.1/../../../../pic32c/lib/thumb/v7e-m+fp/hard\libc-musl.a(toupper.o)
                              build/FreeRTOS/production/_ext/540595297/tcpip_helpers.o (toupper)
c:/program files/microchip/xc32/v4.45/bin/bin/../../lib/gcc/pic32c/8.3.1/../../../../pic32c/lib/thumb/v7e-m+fp/hard\libc-musl.a(__libc_start_main.o)
                              build/FreeRTOS/production/_ext/161576091/startup_xc32.o (__libc_init_array)
c:/program files/microchip/xc32/v4.45/bin/bin/../../lib/gcc/pic32c/8.3.1/../../../../pic32c/lib/thumb/v7e-m+fp/hard\libc-musl.a(__errno_location.o)
                              c:/program files/microchip/xc32/v4.45/bin/bin/../../lib/gcc/pic32c/8.3.1/../../../../pic32c/lib/thumb/v7e-m+fp/hard\liblmalloc-musl.a(lite_malloc.o) (__errno_val)
c:/program files/microchip/xc32/v4.45/bin/bin/../../lib/gcc/pic32c/8.3.1/../../../../pic32c/lib/thumb/v7e-m+fp/hard\libc-musl.a(libc.o)
                              c:/program files/microchip/xc32/v4.45/bin/bin/../../lib/gcc/pic32c/8.3.1/../../../../pic32c/lib/thumb/v7e-m+fp/hard\libc-musl.a(__libc_start_main.o) (__progname_full)
c:/program files/microchip/xc32/v4.45/bin/bin/../../lib/gcc/pic32c/8.3.1/../../../../pic32c/lib/thumb/v7e-m+fp/hard\libc-musl.a(expand_heap.o)
                              c:/program files/microchip/xc32/v4.45/bin/bin/../../lib/gcc/pic32c/8.3.1/../../../../pic32c/lib/thumb/v7e-m+fp/hard\liblmalloc-musl.a(lite_malloc.o) (__expand_heap)
c:/program files/microchip/xc32/v4.45/bin/bin/../../lib/gcc/pic32c/8.3.1/../../../../pic32c/lib/thumb/v7e-m+fp/hard\libc-musl.a(rand.o)
                              build/FreeRTOS/production/_ext/1664057780/random.o (srand)
c:/program files/microchip/xc32/v4.45/bin/bin/../../lib/gcc/pic32c/8.3.1/../../../../pic32c/lib/thumb/v7e-m+fp/hard\libc-musl.a(vsnprintf.o)
                              build/FreeRTOS/production/_ext/585597058/drv_lan865x_api.o (vsnprintf)
c:/program files/microchip/xc32/v4.45/bin/bin/../../lib/gcc/pic32c/8.3.1/../../../../pic32c/lib/thumb/v7e-m+fp/hard\libc-musl.a(snprintf.o)
                              (snprintf)
c:/program files/microchip/xc32/v4.45/bin/bin/../../lib/gcc/pic32c/8.3.1/../../../../pic32c/lib/thumb/v7e-m+fp/hard\libc-musl.a(sprintf.o)
                              (sprintf)
c:/program files/microchip/xc32/v4.45/bin/bin/../../lib/gcc/pic32c/8.3.1/../../../../pic32c/lib/thumb/v7e-m+fp/hard\libc-musl.a(vsprintf.o)
                              c:/program files/microchip/xc32/v4.45/bin/bin/../../lib/gcc/pic32c/8.3.1/../../../../pic32c/lib/thumb/v7e-m+fp/hard\libc-musl.a(sprintf.o) (vsprintf)
c:/program files/microchip/xc32/v4.45/bin/bin/../../lib/gcc/pic32c/8.3.1/../../../../pic32c/lib/thumb/v7e-m+fp/hard\libc-musl.a(atoi.o)
                              build/FreeRTOS/production/_ext/540595297/tcpip_commands.o (atoi)
c:/program files/microchip/xc32/v4.45/bin/bin/../../lib/gcc/pic32c/8.3.1/../../../../pic32c/lib/thumb/v7e-m+fp/hard\libc-musl.a(strtol.o)
                              build/FreeRTOS/production/_ext/540595297/tcpip_helpers.o (strtol)
c:/program files/microchip/xc32/v4.45/bin/bin/../../lib/gcc/pic32c/8.3.1/../../../../pic32c/lib/thumb/v7e-m+fp/hard\libc-musl.a(gmtime.o)
                              build/FreeRTOS/production/_ext/1664057780/asn.o (gmtime)
c:/program files/microchip/xc32/v4.45/bin/bin/../../lib/gcc/pic32c/8.3.1/../../../../pic32c/lib/thumb/v7e-m+fp/hard\libc-musl.a(gmtime_r.o)
                              c:/program files/microchip/xc32/v4.45/bin/bin/../../lib/gcc/pic32c/8.3.1/../../../../pic32c/lib/thumb/v7e-m+fp/hard\libc-musl.a(gmtime.o) (__gmtime_r)
c:/program files/microchip/xc32/v4.45/bin/bin/../../lib/gcc/pic32c/8.3.1/../../../../pic32c/lib/thumb/v7e-m+fp/hard\libc-musl.a(time.o)
                              build/FreeRTOS/production/_ext/1664057780/asn.o (time)
c:/program files/microchip/xc32/v4.45/bin/bin/../../lib/gcc/pic32c/8.3.1/../../../../pic32c/lib/thumb/v7e-m+fp/hard\libc-musl.a(__environ.o)
                              c:/program files/microchip/xc32/v4.45/bin/bin/../../lib/gcc/pic32c/8.3.1/../../../../pic32c/lib/thumb/v7e-m+fp/hard\libc-musl.a(__libc_start_main.o) (__environ)
c:/program files/microchip/xc32/v4.45/bin/bin/../../lib/gcc/pic32c/8.3.1/../../../../pic32c/lib/thumb/v7e-m+fp/hard\libc-musl.a(intscan.o)
                              c:/program files/microchip/xc32/v4.45/bin/bin/../../lib/gcc/pic32c/8.3.1/../../../../pic32c/lib/thumb/v7e-m+fp/hard\libc-musl.a(strtol.o) (__intscan)
c:/program files/microchip/xc32/v4.45/bin/bin/../../lib/gcc/pic32c/8.3.1/../../../../pic32c/lib/thumb/v7e-m+fp/hard\libc-musl.a(shgetc.o)
                              c:/program files/microchip/xc32/v4.45/bin/bin/../../lib/gcc/pic32c/8.3.1/../../../../pic32c/lib/thumb/v7e-m+fp/hard\libc-musl.a(strtol.o) (__shlim)
c:/program files/microchip/xc32/v4.45/bin/bin/../../lib/gcc/pic32c/8.3.1/../../../../pic32c/lib/thumb/v7e-m+fp/hard\libc-musl.a(__uflow.o)
                              c:/program files/microchip/xc32/v4.45/bin/bin/../../lib/gcc/pic32c/8.3.1/../../../../pic32c/lib/thumb/v7e-m+fp/hard\libc-musl.a(shgetc.o) (__uflow)
c:/program files/microchip/xc32/v4.45/bin/bin/../../lib/gcc/pic32c/8.3.1/../../../../pic32c/lib/thumb/v7e-m+fp/hard\libc-musl.a(vfprintf.o)
                              c:/program files/microchip/xc32/v4.45/bin/bin/../../lib/gcc/pic32c/8.3.1/../../../../pic32c/lib/thumb/v7e-m+fp/hard\libc-musl.a(vsnprintf.o) (vfprintf)
c:/program files/microchip/xc32/v4.45/bin/bin/../../lib/gcc/pic32c/8.3.1/../../../../pic32c/lib/thumb/v7e-m+fp/hard\libc-musl.a(__secs_to_tm.o)
                              c:/program files/microchip/xc32/v4.45/bin/bin/../../lib/gcc/pic32c/8.3.1/../../../../pic32c/lib/thumb/v7e-m+fp/hard\libc-musl.a(gmtime_r.o) (__secs_to_tm)
c:/program files/microchip/xc32/v4.45/bin/bin/../../lib/gcc/pic32c/8.3.1/../../../../pic32c/lib/thumb/v7e-m+fp/hard\libc-musl.a(clock_gettime.o)
                              c:/program files/microchip/xc32/v4.45/bin/bin/../../lib/gcc/pic32c/8.3.1/../../../../pic32c/lib/thumb/v7e-m+fp/hard\libc-musl.a(time.o) (__clock_gettime)
c:/program files/microchip/xc32/v4.45/bin/bin/../../lib/gcc/pic32c/8.3.1/../../../../pic32c/lib/thumb/v7e-m+fp/hard\libc-musl.a(gettimeofday.o)
                              c:/program files/microchip/xc32/v4.45/bin/bin/../../lib/gcc/pic32c/8.3.1/../../../../pic32c/lib/thumb/v7e-m+fp/hard\libc-musl.a(clock_gettime.o) (gettimeofday)
c:/program files/microchip/xc32/v4.45/bin/bin/../../lib/gcc/pic32c/8.3.1/../../../../pic32c/lib/thumb/v7e-m+fp/hard\libc-musl.a(syscall_ret.o)
                              c:/program files/microchip/xc32/v4.45/bin/bin/../../lib/gcc/pic32c/8.3.1/../../../../pic32c/lib/thumb/v7e-m+fp/hard\libc-musl.a(clock_gettime.o) (__syscall_ret)
c:/program files/microchip/xc32/v4.45/bin/bin/../../lib/gcc/pic32c/8.3.1/../../../../pic32c/lib/thumb/v7e-m+fp/hard\libc-musl.a(__toread.o)
                              c:/program files/microchip/xc32/v4.45/bin/bin/../../lib/gcc/pic32c/8.3.1/../../../../pic32c/lib/thumb/v7e-m+fp/hard\libc-musl.a(__uflow.o) (__toread)
c:/program files/microchip/xc32/v4.45/bin/bin/../../lib/gcc/pic32c/8.3.1/../../../../pic32c/lib/thumb/v7e-m+fp/hard\libc-musl.a(__io_fmt_needed.o)
                              c:/program files/microchip/xc32/v4.45/bin/bin/../../lib/gcc/pic32c/8.3.1/../../../../pic32c/lib/thumb/v7e-m+fp/hard\libc-musl.a(vfprintf.o) (__io_fmt_needed)
c:/program files/microchip/xc32/v4.45/bin/bin/../../lib/gcc/pic32c/8.3.1/../../../../pic32c/lib/thumb/v7e-m+fp/hard\libc-musl.a(__pop_float.o)
                              c:/program files/microchip/xc32/v4.45/bin/bin/../../lib/gcc/pic32c/8.3.1/../../../../pic32c/lib/thumb/v7e-m+fp/hard\libc-musl.a(__io_fmt_needed.o) (__pop_float_needed)
c:/program files/microchip/xc32/v4.45/bin/bin/../../lib/gcc/pic32c/8.3.1/../../../../pic32c/lib/thumb/v7e-m+fp/hard\libc-musl.a(__pop_int.o)
                              c:/program files/microchip/xc32/v4.45/bin/bin/../../lib/gcc/pic32c/8.3.1/../../../../pic32c/lib/thumb/v7e-m+fp/hard\libc-musl.a(__io_fmt_needed.o) (__pop_int_needed)
c:/program files/microchip/xc32/v4.45/bin/bin/../../lib/gcc/pic32c/8.3.1/../../../../pic32c/lib/thumb/v7e-m+fp/hard\libc-musl.a(__pop_ptr.o)
                              c:/program files/microchip/xc32/v4.45/bin/bin/../../lib/gcc/pic32c/8.3.1/../../../../pic32c/lib/thumb/v7e-m+fp/hard\libc-musl.a(__io_fmt_needed.o) (__pop_ptr_needed)
c:/program files/microchip/xc32/v4.45/bin/bin/../../lib/gcc/pic32c/8.3.1/../../../../pic32c/lib/thumb/v7e-m+fp/hard\libc-musl.a(__printf_core.o)
                              c:/program files/microchip/xc32/v4.45/bin/bin/../../lib/gcc/pic32c/8.3.1/../../../../pic32c/lib/thumb/v7e-m+fp/hard\libc-musl.a(vfprintf.o) (__printf_core)
c:/program files/microchip/xc32/v4.45/bin/bin/../../lib/gcc/pic32c/8.3.1/../../../../pic32c/lib/thumb/v7e-m+fp/hard\libc-musl.a(__stdio_exit.o)
                              c:/program files/microchip/xc32/v4.45/bin/bin/../../lib/gcc/pic32c/8.3.1/../../../../pic32c/lib/thumb/v7e-m+fp/hard\libc-musl.a(__toread.o) (__stdio_exit_needed)
c:/program files/microchip/xc32/v4.45/bin/bin/../../lib/gcc/pic32c/8.3.1/../../../../pic32c/lib/thumb/v7e-m+fp/hard\libc-musl.a(__fmt_a.o)
                              c:/program files/microchip/xc32/v4.45/bin/bin/../../lib/gcc/pic32c/8.3.1/../../../../pic32c/lib/thumb/v7e-m+fp/hard\libc-musl.a(__io_fmt_needed.o) (__fmt_a_needed)
c:/program files/microchip/xc32/v4.45/bin/bin/../../lib/gcc/pic32c/8.3.1/../../../../pic32c/lib/thumb/v7e-m+fp/hard\libc-musl.a(__fmt_d.o)
                              c:/program files/microchip/xc32/v4.45/bin/bin/../../lib/gcc/pic32c/8.3.1/../../../../pic32c/lib/thumb/v7e-m+fp/hard\libc-musl.a(__io_fmt_needed.o) (__fmt_d_needed)
c:/program files/microchip/xc32/v4.45/bin/bin/../../lib/gcc/pic32c/8.3.1/../../../../pic32c/lib/thumb/v7e-m+fp/hard\libc-musl.a(__fmt_fp.o)
                              c:/program files/microchip/xc32/v4.45/bin/bin/../../lib/gcc/pic32c/8.3.1/../../../../pic32c/lib/thumb/v7e-m+fp/hard\libc-musl.a(__io_fmt_needed.o) (__fmt_f_needed)
c:/program files/microchip/xc32/v4.45/bin/bin/../../lib/gcc/pic32c/8.3.1/../../../../pic32c/lib/thumb/v7e-m+fp/hard\libc-musl.a(__fmt_o.o)
                              c:/program files/microchip/xc32/v4.45/bin/bin/../../lib/gcc/pic32c/8.3.1/../../../../pic32c/lib/thumb/v7e-m+fp/hard\libc-musl.a(__io_fmt_needed.o) (__fmt_o_needed)
c:/program files/microchip/xc32/v4.45/bin/bin/../../lib/gcc/pic32c/8.3.1/../../../../pic32c/lib/thumb/v7e-m+fp/hard\libc-musl.a(__fmt_s.o)
                              c:/program files/microchip/xc32/v4.45/bin/bin/../../lib/gcc/pic32c/8.3.1/../../../../pic32c/lib/thumb/v7e-m+fp/hard\libc-musl.a(__io_fmt_needed.o) (__fmt_s_needed)
c:/program files/microchip/xc32/v4.45/bin/bin/../../lib/gcc/pic32c/8.3.1/../../../../pic32c/lib/thumb/v7e-m+fp/hard\libc-musl.a(__fmt_u.o)
                              c:/program files/microchip/xc32/v4.45/bin/bin/../../lib/gcc/pic32c/8.3.1/../../../../pic32c/lib/thumb/v7e-m+fp/hard\libc-musl.a(__io_fmt_needed.o) (__fmt_u_needed)
c:/program files/microchip/xc32/v4.45/bin/bin/../../lib/gcc/pic32c/8.3.1/../../../../pic32c/lib/thumb/v7e-m+fp/hard\libc-musl.a(__fmt_x.o)
                              c:/program files/microchip/xc32/v4.45/bin/bin/../../lib/gcc/pic32c/8.3.1/../../../../pic32c/lib/thumb/v7e-m+fp/hard\libc-musl.a(__io_fmt_needed.o) (__fmt_x_needed)
c:/program files/microchip/xc32/v4.45/bin/bin/../../lib/gcc/pic32c/8.3.1/../../../../pic32c/lib/thumb/v7e-m+fp/hard\libc-musl.a(__cvt_u.o)
                              c:/program files/microchip/xc32/v4.45/bin/bin/../../lib/gcc/pic32c/8.3.1/../../../../pic32c/lib/thumb/v7e-m+fp/hard\libc-musl.a(__fmt_d.o) (__cvt_u)
c:/program files/microchip/xc32/v4.45/bin/bin/../../lib/gcc/pic32c/8.3.1/../../../../pic32c/lib/thumb/v7e-m+fp/hard\libm-fast-emfloat.a(fma.o)
                              c:/program files/microchip/xc32/v4.45/bin/bin/../../lib/gcc/pic32c/8.3.1/../../../../pic32c/lib/thumb/v7e-m+fp/hard\libc-musl.a(__fmt_fp.o) (fma)
c:/program files/microchip/xc32/v4.45/bin/bin/../../lib/gcc/pic32c/8.3.1/../../../../pic32c/lib/thumb/v7e-m+fp/hard\libm-fast-emfloat.a(floor.o)
                              c:/program files/microchip/xc32/v4.45/bin/bin/../../lib/gcc/pic32c/8.3.1/../../../../pic32c/lib/thumb/v7e-m+fp/hard\libc-musl.a(__fmt_a.o) (floor)
c:/program files/microchip/xc32/v4.45/bin/bin/../../lib/gcc/pic32c/8.3.1/../../../../pic32c/lib/thumb/v7e-m+fp/hard\libm-fast-emfloat.a(__aeabi_dcmple.o)
                              c:/program files/microchip/xc32/v4.45/bin/bin/../../lib/gcc/pic32c/8.3.1/../../../../pic32c/lib/thumb/v7e-m+fp/hard\libc-musl.a(__fmt_fp.o) (__aeabi_dcmple)
c:/program files/microchip/xc32/v4.45/bin/bin/../../lib/gcc/pic32c/8.3.1/../../../../pic32c/lib/thumb/v7e-m+fp/hard\libm-fast-emfloat.a(__aeabi_dcmpeq.o)
                              c:/program files/microchip/xc32/v4.45/bin/bin/../../lib/gcc/pic32c/8.3.1/../../../../pic32c/lib/thumb/v7e-m+fp/hard\libc-musl.a(__fmt_a.o) (__aeabi_dcmpeq)
c:/program files/microchip/xc32/v4.45/bin/bin/../../lib/gcc/pic32c/8.3.1/../../../../pic32c/lib/thumb/v7e-m+fp/hard\libm-fast-emfloat.a(__aeabi_dcmplt.o)
                              c:/program files/microchip/xc32/v4.45/bin/bin/../../lib/gcc/pic32c/8.3.1/../../../../pic32c/lib/thumb/v7e-m+fp/hard\libc-musl.a(__fmt_a.o) (__aeabi_dcmplt)
c:/program files/microchip/xc32/v4.45/bin/bin/../../lib/gcc/pic32c/8.3.1/../../../../pic32c/lib/thumb/v7e-m+fp/hard\libm-fast-emfloat.a(__aeabi_d2iz.o)
                              c:/program files/microchip/xc32/v4.45/bin/bin/../../lib/gcc/pic32c/8.3.1/../../../../pic32c/lib/thumb/v7e-m+fp/hard\libc-musl.a(__fmt_a.o) (__aeabi_d2iz)
c:/program files/microchip/xc32/v4.45/bin/bin/../../lib/gcc/pic32c/8.3.1/thumb/v7e-m+fp/hard\libgcc.a(_aeabi_ldivmod.o)
                              c:/program files/microchip/xc32/v4.45/bin/bin/../../lib/gcc/pic32c/8.3.1/../../../../pic32c/lib/thumb/v7e-m+fp/hard\libc-musl.a(__secs_to_tm.o) (__aeabi_ldivmod)
c:/program files/microchip/xc32/v4.45/bin/bin/../../lib/gcc/pic32c/8.3.1/thumb/v7e-m+fp/hard\libgcc.a(_aeabi_uldivmod.o)
                              build/FreeRTOS/production/_ext/540595297/tcp.o (__aeabi_uldivmod)
c:/program files/microchip/xc32/v4.45/bin/bin/../../lib/gcc/pic32c/8.3.1/thumb/v7e-m+fp/hard\libgcc.a(_udivmoddi4.o)
                              c:/program files/microchip/xc32/v4.45/bin/bin/../../lib/gcc/pic32c/8.3.1/thumb/v7e-m+fp/hard\libgcc.a(_aeabi_ldivmod.o) (__udivmoddi4)
c:/program files/microchip/xc32/v4.45/bin/bin/../../lib/gcc/pic32c/8.3.1/thumb/v7e-m+fp/hard\libgcc.a(_dvmd_tls.o)
                              c:/program files/microchip/xc32/v4.45/bin/bin/../../lib/gcc/pic32c/8.3.1/thumb/v7e-m+fp/hard\libgcc.a(_aeabi_ldivmod.o) (__aeabi_ldiv0)
c:/program files/microchip/xc32/v4.45/bin/bin/../../lib/gcc/pic32c/8.3.1/../../../../pic32c/lib/thumb/v7e-m+fp/hard\libpic32c.a(sbrk.o)
                              c:/program files/microchip/xc32/v4.45/bin/bin/../../lib/gcc/pic32c/8.3.1/../../../../pic32c/lib/thumb/v7e-m+fp/hard\liblmalloc-musl.a(lite_malloc.o) (_get_heap_left_space)
c:/program files/microchip/xc32/v4.45/bin/bin/../../lib/gcc/pic32c/8.3.1/../../../../pic32c/lib/thumb/v7e-m+fp/hard\libpic32c.a(pic32_data_init_clear.o)
                              (__dinit_clear_needed)
c:/program files/microchip/xc32/v4.45/bin/bin/../../lib/gcc/pic32c/8.3.1/../../../../pic32c/lib/thumb/v7e-m+fp/hard\libpic32c.a(pic32_data_init_copy.o)
                              (__dinit_copy_needed)

Microchip PIC32 Memory-Usage Report

ROM Program-Memory Usage
section                    address  length [bytes]      (dec)  Description
-------                 ----------  -------------------------  -----------
.vectors                         0          0x264         612   
.text                        0x264           0x20          32  App's exec code 
.ARM.exidx                   0x284            0x8           8   
.text.TCPIP_TCP_Task         0x28c          0xe9c        3740   
.text.TCPIP_IPERF_Task      0x1128          0xd98        3480   
.text.DRV_LAN865X_Tasks     0x1ec0          0x968        2408   
.text.Transform             0x2828          0x6d0        1744   
.text.TCPIP_STACK_Task      0x2ef8          0x6a0        1696   
.text._TcpSend              0x3598          0x608        1544   
.text.CommandIperfStart     0x3ba0          0x5fc        1532   
.dinit                      0x419c          0x590        1424   
.text.processDataRx         0x472c          0x50c        1292   
.text._Command_DNS_Serv     0x4c38          0x50c        1292   
.rodata._Command_DNS_Se     0x5144          0x4fc        1276   
.text.__fmt_fp              0x5640          0x4c0        1216   
.text.__fmt_a               0x5b00          0x4b8        1208   
.text.serviceData           0x5fb8          0x49c        1180   
.text.SYS_CMD_Tasks         0x6454          0x448        1096   
.text._DNS_ProcessPacke     0x689c          0x41c        1052   
.text._TCPIP_DoInitiali     0x6cb8          0x414        1044   
.text.__intscan             0x70cc          0x3f4        1012   
.text.TCPIP_COMMAND_Tas     0x74c0          0x3d0         976   
.text.GenericTxStart        0x7890          0x3cc         972   
.text.TCPIP_UDP_Options     0x7c5c          0x39c         924   
.rodata.TCPIP_IPERF_Tas     0x7ff8          0x354         852   
.text.TCPIP_Helper_Stri     0x834c          0x340         832   
.text.TC6_Service           0x868c          0x334         820   
.text.Transform_Sha256      0x89c0          0x314         788   
.text.__printf_core         0x8cd4          0x308         776   
.text.TCPIP_TCP_FifoSiz     0x8fdc          0x2f8         760   
.text.DRV_LAN865X_Regis     0x92d4          0x2e0         736   
.text.Hash_DRBG_Generat     0x95b4          0x2cc         716   
.text._TCP_Open             0x9880          0x2c4         708   
.text.TCPIP_ARP_Task        0x9b44          0x2c4         708   
.text                       0x9e08          0x2bc         700  App's exec code 
.text._DNS_Send_Query       0xa0c4          0x294         660   
.text.ReportBW_Jitter_L     0xa358          0x25c         604   
.text._CommandPing          0xa5b4          0x250         592   
.rodata._TCPIP_DoInitia     0xa804          0x250         592   
.text.TCPIP_IPV4_Task       0xaa54          0x250         592   
.rodata._OnStatus0.str1     0xaca4          0x24c         588   
.text.TCPIP_UDP_Task        0xaef0          0x244         580   
.text.TCPIP_UDP_Flush       0xb134          0x242         578   
.text.__aeabi_dadd          0xb376          0x23e         574   
.text.TCPIP_STACK_Bring     0xb5b4          0x23c         572   
.text.TCPIP_IPV4_PktTx      0xb7f0          0x22c         556   
.rodata._OnStatus1.str1     0xba1c          0x228         552   
.text.DRV_SPI_WriteRead     0xbc44          0x228         552   
.text.__aeabi_ddiv          0xbe6c          0x216         534   
.text.DRV_LAN865X_Reini     0xc082            0x2           2   
.text.TCPIP_ICMP_Task       0xc084          0x214         532   
.text.TCPIP_DNS_ClientI     0xc298          0x210         528   
.rodata.CommandIperfSta     0xc4a8          0x204         516   
.rodata.TC6_MEMMAP.1566     0xc6ac          0x200         512   
.rodata.str1.4              0xc8ac          0x200         512   
.text.xTaskCreate           0xcaac          0x1f4         500   
.text._Command_NetInfo      0xcca0          0x1e4         484   
.text.TCPIP_ARP_Initial     0xce84          0x1dc         476   
.text._OnStatus1            0xd060          0x1d0         464   
.text.GenericTxEnd          0xd230          0x1c8         456   
.rodata._Command_MacInf     0xd3f8          0x1b4         436   
.text.CommandIperfSize      0xd5ac          0x194         404   
.text.xTaskIncrementTic     0xd740          0x194         404   
.text.lDRV_SPI_StartDMA     0xd8d4          0x190         400   
.text.wc_Sha256Final        0xda64          0x190         400   
.text._InitRng              0xdbf4          0x184         388   
.text._Command_MacInfo      0xdd78          0x17c         380   
.text.SERCOM0_SPI_Write     0xdef4          0x17c         380   
.text._OnStatus0            0xe070          0x178         376   
.text._TcpCloseSocket       0xe1e8          0x174         372   
.text.TCPIP_TCP_ArrayPu     0xe35c          0x170         368   
.text.xTaskResumeAll        0xe4cc          0x170         368   
.text.lDRV_SPI_RX_DMA_C     0xe63c          0x160         352   
.text._UDPOpen              0xe79c          0x15c         348   
.text.TCPIP_ICMP_EchoRe     0xe8f8          0x15c         348   
.text.SERCOM0_SPI_Inter     0xea54          0x158         344   
.text._Command_NetworkO     0xebac          0x154         340   
.text.TCPIP_TCP_Initial     0xed00          0x154         340   
.text.TCPIP_DNS_EntryQu     0xee54          0x154         340   
.text.CommandHelp           0xefa8          0x154         340   
.text.xQueueSemaphoreTa     0xf0fc          0x154         340   
.text.wc_Sha256Update       0xf250          0x148         328   
.rodata._Command_NetInf     0xf398          0x144         324   
.text.Hash_df               0xf4dc          0x140         320   
.text._LoadNetworkConfi     0xf61c          0x138         312   
.text.TCPIP_UDP_Deiniti     0xf754          0x134         308   
.text.TC6_SpiBufferDone     0xf888          0x130         304   
.text.TCPIP_IPV4_Packet     0xf9b8          0x130         304   
.text._DNS_Resolve          0xfae8          0x130         304   
.text.__aeabi_dmul          0xfc18          0x130         304   
.text.DRV_SPI_Open          0xfd48          0x12c         300   
.text.TCPIP_IPV4_Initia     0xfe74          0x128         296   
.rodata.SYS_CMD_Tasks.s     0xff9c          0x128         296   
.text.DRV_LAN865X_Open     0x100c4          0x124         292   
.rodata._CommandPing.st    0x101e8          0x124         292   
.rodata._Command_IPAddr    0x1030c          0x124         292   
.text.CommandIperfNetIf    0x10430          0x124         292   
.text.__fmt_x              0x10554          0x124         292   
.text.TCPIP_Helper_Stri    0x10678          0x120         288   
.text.xQueueGenericSend    0x10798          0x120         288   
.text.DRV_SPI_Close        0x108b8          0x11c         284   
.text.wc_RNG_GenerateBl    0x109d4          0x11c         284   
.text.TCPIP_TCP_Options    0x10af0          0x11a         282   
.text._OnSoftResetCB       0x10c0a            0x2           2   
.text.DRV_SPI_Initializ    0x10c0c          0x118         280   
.text._UDPv4TxAckFnc       0x10d24          0x118         280   
.text._Command_StackOnO    0x10e3c          0x114         276   
.rodata._Command_Networ    0x10f50          0x114         276   
.rodata._Command_StackO    0x11064          0x114         276   
.text.CommandPingHandle    0x11178          0x110         272   
.rodata._Command_HeapIn    0x11288          0x110         272   
.rodata.APP_Tasks.str1.    0x11398          0x110         272   
.text._Tcpv4TxAckFnc       0x114a8          0x10c         268   
.text.APP_Tasks            0x115b4          0x10c         268   
.text._TCPIP_HEAP_Free     0x116c0          0x10a         266   
.rodata                    0x117ca          0x10a         266  Read-only const 
.text._OnExtendedBlock     0x118d4          0x104         260   
.text.TCPIP_UDP_Initial    0x119d8          0x104         260   
.text.TCPIP_UDP_Bind       0x11adc          0x100         256   
.text.wc_Md5Update         0x11bdc          0x100         256   
.rodata.K                  0x11cdc          0x100         256   
.text._Command_HeapInfo    0x11ddc           0xfc         252   
.text.CLOCK_Initialize     0x11ed8           0xfc         252   
.text.accessRegisters      0x11fd4           0xfa         250   
.text._TCPIP_HEAP_Buffe    0x120ce            0x2           2   
.rodata.GenericTxEnd.st    0x120d0           0xf8         248   
.text.read_rx_ctrl_buff    0x121c8           0xf4         244   
.rodata.TC6_CB_OnError.    0x122bc           0xf4         244   
.rodata.TCPIP_COMMAND_T    0x123b0           0xf4         244   
.text.TCPIP_UDP_SocketI    0x124a4           0xf2         242   
.text.EVSYS_Initialize     0x12596            0x2           2   
.text.TCPIP_HEAP_Create    0x12598           0xf0         240   
.text._DNS_GetAddresses    0x12688           0xf0         240   
.text._DNS_IsNameResolv    0x12778           0xf0         240   
.text.TCPIP_DNS_ClientT    0x12868           0xf0         240   
.text.TCPIP_TCP_Deiniti    0x12958           0xec         236   
.text._ARPProbeAddress     0x12a44           0xec         236   
.rodata.CommandIperfSiz    0x12b30           0xe8         232   
.text.DMAC_ChannelTrans    0x12c18           0xe8         232   
.text.lDRV_SPI_UpdateTr    0x12d00           0xe4         228   
.text._Command_IPAddres    0x12de4           0xe4         228   
.rodata.CommandIperfNet    0x12ec8           0xe4         228   
.rodata.TCPIP_STACK_Tas    0x12fac           0xe4         228   
.text.lDRV_SPI_PlibCall    0x13090           0xe0         224   
.text.TCPIP_UDP_ArrayGe    0x13170           0xde         222   
.text.Console_UART_Task    0x1324e            0x2           2   
.text.SYS_TIME_PLIBCall    0x13250           0xdc         220   
.text.SERCOM1_USART_Wri    0x1332c           0xd8         216   
.text.DRV_LAN865X_LinkC    0x13404            0x4           4   
.text.SYS_TIME_Initiali    0x13408           0xd8         216   
.text.xTaskRemoveFromEv    0x134e0           0xd8         216   
.text.mk_secure_ctrl_re    0x135b8           0xd0         208   
.text.TC6_Init             0x13688           0xcc         204   
.text.TCPIP_TCP_ArrayGe    0x13754           0xcc         204   
.text.floor                0x13820           0xcc         204   
.text.lDRV_SPI_Resource    0x138ec           0xca         202   
.text.Dummy_App_Func       0x139b6            0x2           2   
.text.DRV_LAN865X_Packe    0x139b8           0xc8         200   
.text.TCPIP_TCP_Bind       0x13a80           0xc4         196   
.rodata.TCPIP_STACK_Bri    0x13b44           0xc4         196   
.text.xTaskPriorityInhe    0x13c08           0xc4         196   
.text._Command_DNSAddre    0x13ccc           0xc0         192   
.text._Command_DefaultI    0x13d8c           0xc0         192   
.text._TCP_SktSetSequen    0x13e4c           0xc0         192   
.text.mk_ctrl_req          0x13f0c           0xbc         188   
.rodata._Command_Gatewa    0x13fc8           0xbc         188   
.text.NVIC_Initialize      0x14084           0xbc         188   
.text.lDRV_SPI_Resource    0x14140           0xba         186   
.text._GetMaxSegSizeOpt    0x141fa           0xba         186   
.text._ReadIndirectReg     0x142b4           0xb8         184   
.text.CommandIperfStop     0x1436c           0xb8         184   
.text.TCPIP_IPERF_Initi    0x14424           0xb8         184   
.text.TCPIP_IPV4_Deinit    0x144dc           0xb8         184   
.text.SERCOM1_USART_ISR    0x14594           0xb8         184   
.text.wc_Md5Final          0x1464c           0xb8         184   
.rodata.DRV_LAN865X_Reg    0x14704           0xb4         180   
.text._ARPSendIfPkt        0x147b8           0xb4         180   
.text.TCPIP_IPV4_ArpHan    0x1486c           0xb4         180   
.text.SYS_TIME_HwTimerC    0x14920           0xb4         180   
.text.Hash_DRBG_Reseed     0x149d4           0xb4         180   
.text.TC6_MultipleRegis    0x14a88           0xb0         176   
.text.TCPIP_STACK_NetUp    0x14b38           0xb0         176   
.text.SYS_TIME_TimerObj    0x14be8           0xb0         176   
.text.prvAddCurrentTask    0x14c98           0xb0         176   
.text.TCPIP_Commands_In    0x14d48           0xac         172   
.text.__pop_int            0x14df4           0xac         172   
.text._TCPIP_HEAP_Mallo    0x14ea0           0xaa         170   
.text._TcpDisconnect       0x14f4a           0xaa         170   
.rodata.tcpipCmdTbl        0x14ff4           0xa8         168   
.text.TCPIP_TCP_ServerO    0x1509c           0xa8         168   
.text.TCPIP_UDP_Disconn    0x15144           0xa8         168   
.text.TCPIP_STACK_KillS    0x151ec           0xa8         168   
.text.SERCOM1_USART_ISR    0x15294           0xa8         168   
.text.vTaskSwitchContex    0x1533c           0xa8         168   
.text.__fmt_d              0x153e4           0xa8         168   
.text.TC6_CB_OnError       0x1548c           0xa4         164   
.rodata._Command_MACAdd    0x15530           0xa4         164   
.text.wc_RNG_HealthTest    0x155d4           0xa2         162   
.text.TCPIP_Helper_IPv6    0x15676           0xa0         160   
.text.Dummy_Handler        0x15716            0x2           2   
.text._UDPv4AllocateSkt    0x15718           0xa0         160   
.text._ARPDeleteResourc    0x157b8           0xa0         160   
.rodata.ReportBW_Jitter    0x15858           0x9c         156   
.text.TCPIP_UDP_OpenSer    0x158f4           0x9c         156   
.text.SERCOM0_SPI_Trans    0x15990           0x9c         156   
.text.vTaskPriorityDisi    0x15a2c           0x9c         156   
.rodata._Command_Defaul    0x15ac8           0x98         152   
.text.TCPIP_Helper_Stri    0x15b60           0x98         152   
.text.TCPIP_STACK_Initi    0x15bf8           0x98         152   
.text.TCPIP_ICMP_Initia    0x15c90           0x98         152   
.text.ascii_to_u32s        0x15d28           0x94         148   
.text._UDPsetPacketInfo    0x15dbc           0x94         148   
.text.TCPIP_ARP_IsResol    0x15e50           0x94         148   
.text.SYS_CMD_ADDGRP       0x15ee4           0x94         148   
.text._Command_MACAddre    0x15f78           0x90         144   
.rodata.str1.4             0x16008           0x90         144   
.text._TCPIPStackModule    0x16098           0x90         144   
.text.TCPIP_IPV4_MacPac    0x16128           0x90         144   
.text.DisplayNodeMsg       0x161b8           0x90         144   
.rodata.CommandHelp.str    0x16248           0x90         144   
.text.SYS_TIME_AddToLis    0x162d8           0x90         144   
.text.xQueueGenericRese    0x16368           0x90         144   
.text.DRV_LAN865X_SetMa    0x163f8           0x8c         140   
.text._Command_ZcllOnOf    0x16484           0x8c         140   
.rodata._Command_DNSAdd    0x16510           0x8c         140   
.text.xTaskPriorityDisi    0x1659c           0x8c         140   
.text.PrintRateLimited     0x16628           0x88         136   
.rodata._OnExtendedBloc    0x166b0           0x88         136   
.text._Command_GatewayA    0x16738           0x88         136   
.text._OAHashFindBkt       0x167c0           0x88         136   
.text.SYS_CMDIO_ADD        0x16848           0x88         136   
.text.Reset_Handler        0x168d0           0x88         136   
.text.pvPortMalloc         0x16958           0x88         136   
.text._TCPIP_PKT_Packet    0x169e0           0x84         132   
.rodata.CommandIperfSto    0x16a64           0x84         132   
.text.TCPIP_STACK_NetAd    0x16ae8           0x84         132   
.text.DMAC_channel_inte    0x16b6c           0x84         132   
.text.SERCOM1_USART_Rea    0x16bf0           0x84         132   
.text._InitSysRand         0x16c74           0x84         132   
.text.__simple_search_f    0x16cf8           0x84         132   
.text.__pad                0x16d7c           0x84         132   
.text.TCPIP_Helper_Pack    0x16e00           0x82         130   
.text._DNS_ValidateIf      0x16e82           0x82         130   
.rodata.DRV_LAN865X_Tas    0x16f04           0x80         128   
.text.SERCOM1_USART_Ini    0x16f84           0x80         128   
.text.StringToArgs         0x17004           0x80         128   
.text.SYS_Initialize       0x17084           0x80         128   
.rodata.outputA_data       0x17104           0x80         128   
.rodata.outputB_data       0x17184           0x80         128   
.text.strspn               0x17204           0x80         128   
.text.prvUnlockQueue       0x17284           0x7e         126   
.text.NonMaskableInt_Ha    0x17302            0x2           2   
.rodata._Command_BIOSNa    0x17304           0x7c         124   
.rodata._Command_ZcllOn    0x17380           0x7c         124   
.text.SendCommandPrint     0x173fc           0x7c         124   
.text.__pop_ptr            0x17478           0x7c         124   
.text.TCPIP_TCP_SocketI    0x174f4           0x7a         122   
.text.TCPIP_Helper_Pack    0x1756e           0x78         120   
.text.HardFault_Handler    0x175e6            0x2           2   
.text.DMAC_Initialize      0x175e8           0x78         120   
.text.strcspn              0x17660           0x78         120   
.text.__cvt_u              0x176d8           0x78         120   
.text.prvCopyDataToQueu    0x17750           0x76         118   
.text.TC6_CB_OnRxEthern    0x177c6           0x74         116   
.text.DebugMonitor_Hand    0x1783a            0x2           2   
.text.GenericTxDone        0x1783c           0x74         116   
.text._ARPUpdateEntry      0x178b0           0x74         116   
.text.TCPIP_ARP_EntryRe    0x17924           0x74         116   
.text.prvIdleTask          0x17998           0x74         116   
.text.wc_GenerateSeed      0x17a0c           0x74         116   
.text.TCPIP_PKT_DataSeg    0x17a80           0x72         114   
.text._TCPIP_StackSyncF    0x17af2           0x72         114   
.text.Hash_DRBG_Instant    0x17b64           0x72         114   
.text.__fmt_o              0x17bd6           0x72         114   
.text.TCPIP_Helper_Calc    0x17c48           0x70         112   
.text.TCPIP_IPV4_Cleanu    0x17cb8           0x70         112   
.text.wc_InitSha256_ex     0x17d28           0x70         112   
.text.DRV_LAN865X_Initi    0x17d98           0x6c         108   
.rodata.TCPIP_Commands_    0x17e04           0x6c         108   
.text.TCPIP_DNS_Disable    0x17e70           0x6c         108   
.text.SYS_Tasks            0x17edc           0x6c         108   
.rodata.str1.4             0x17f48           0x6c         108   
.text.vTaskStartSchedul    0x17fb4           0x6c         108   
.text.wc_RNG_TestSeed      0x18020           0x6c         108   
.text.TC6_CB_OnRxEthern    0x1808c           0x6a         106   
.text._TcpSwapHeader       0x180f6           0x68         104   
.text.MemoryManagement_    0x1815e            0x2           2   
.text._TcpCleanup          0x18160           0x68         104   
.text._TCPIPStackInsert    0x181c8           0x68         104   
.text.TCPIP_OAHASH_Entr    0x18230           0x68         104   
.text._DNS_AddSelection    0x18298           0x68         104   
.rodata.str1.4             0x18300           0x68         104   
.text.SYS_CONSOLE_Initi    0x18368           0x68         104   
.text.SYS_CONSOLE_Print    0x183d0           0x68         104   
.text.wc_CryptoCb_Sha25    0x18438           0x66         102   
.text.BusFault_Handler     0x1849e            0x2           2   
.text.DRV_SPI_TransferE    0x184a0           0x64         100   
.text._Command_BIOSName    0x18504           0x64         100   
.rodata.GenericTxStart.    0x18568           0x64         100   
.text.TCPIP_STACK_Bring    0x185cc           0x64         100   
.text.TCPIP_OAHASH_Entr    0x18630           0x64         100   
.text.btohexa_high         0x18694            0xc          12   
.text.xPortPendSVHandle    0x186a0           0x64         100   
.text.TCPIP_UDP_SocketN    0x18704           0x62          98   
.text.TCPIP_ARP_EntryGe    0x18766           0x62          98   
.text._PingStop            0x187c8           0x60          96   
.text._TcpClientSocketC    0x18828           0x60          96   
.rodata.TCPIP_STACK_MOD    0x18888           0x60          96   
.text.TCPIP_ICMP_EchoRe    0x188e8           0x60          96   
.text.TCPIP_DNS_ClientD    0x18948           0x60          96   
.text.TCPIP_DNS_GetIPAd    0x189a8           0x60          96   
.text.PORT_Initialize      0x18a08           0x60          96   
.text.xTaskCheckForTime    0x18a68           0x60          96   
.text.__strchrnul          0x18ac8           0x60          96   
.text.__simple_malloc      0x18b28           0x60          96   
.text.vsnprintf            0x18b88           0x60          96   
.text.TC6_CB_OnSpiTrans    0x18be8           0x5c          92   
.text._TCPIP_SelectDefa    0x18c44           0x5c          92   
.text.SYS_TIME_RemoveFr    0x18ca0           0x5c          92   
.text.wc_CryptoCb_Rando    0x18cfc           0x5c          92   
.text.__libc_start_init    0x18d58           0x5c          92   
.text.on_rx_done           0x18db4           0x5a          90   
.text.UsageFault_Handle    0x18e0e            0x2           2   
.rodata.DRV_LAN865X_MAC    0x18e10           0x58          88   
.text._TCPIPStackIpAddF    0x18e68           0x58          88   
.text._TCPIPStackModule    0x18ec0           0x58          88   
.text._DNS_Enable          0x18f18           0x58          88   
.text.OSAL_SEM_Create      0x18f70           0x58          88   
.text.SERCOM1_USART_Int    0x18fc8           0x58          88   
.text.SYS_TIME_TimerAdd    0x19020           0x58          88   
.text.SYS_TIME_TimerSta    0x19078           0x58          88   
.text.__shgetc             0x190d0           0x58          88   
.text.__fmt_s              0x19128           0x58          88   
.text.__fmt_u              0x19180           0x56          86   
.text.vPortFree            0x191d6            0x2           2   
.text.lDRV_SPI_TX_DMA_C    0x191d8           0x54          84   
.rodata.DRV_SPI_Close.s    0x1922c           0x54          84   
.rodata.CommandPingHand    0x19280           0x54          84   
.text.IperfSetState        0x192d4           0x54          84   
.text.TCPIP_IPERF_Deini    0x19328           0x54          84   
.text._TCPIPStackAnyNet    0x1937c           0x54          84   
.text._ARPNotifyClients    0x193d0           0x54          84   
.text.TCPIP_DNS_RemoveA    0x19424           0x54          84   
.text.SYS_TIME_Callback    0x19478           0x54          84   
.text.stpncpy              0x194cc           0x54          84   
.text._TcpAbort            0x19520           0x52          82   
.text.TCPIP_TCP_RemoteB    0x19572           0x52          82   
.text._DNS_DeleteHash      0x195c4           0x52          82   
.text.strtox               0x19616           0x52          82   
.text.TC6_SendRawEthern    0x19668           0x50          80   
.rodata.GenericTxDone.s    0x196b8           0x50          80   
.rodata.TCPIP_TCP_Initi    0x19708           0x50          80   
.text.TCPIP_UDP_PutIsRe    0x19758           0x50          80   
.text.TCPIP_STACK_Strin    0x197a8           0x50          80   
.rodata.TCPIP_IPV4_PktT    0x197f8           0x50          80   
.text.TCPIP_DNS_OAHASH_    0x19848           0x50          80   
.text.SYS_CONSOLE_Statu    0x19898           0x50          80   
.text._UDPSocketBind       0x198e8           0x4e          78   
.text.TCPIP_IPV4_Select    0x19936           0x4e          78   
.text.lDRV_SPI_DriverHa    0x19984           0x4c          76   
.text.TCPIP_Helper_IPAd    0x199d0           0x4c          76   
.text.ResetIperfCounter    0x19a1c           0x4c          76   
.text._TcpSocketKill       0x19a68           0x4c          76   
.text._UDPClose            0x19ab4           0x4c          76   
.text._TCPIP_MacEventCB    0x19b00           0x4c          76   
.text.SERCOM1_USART_ISR    0x19b4c           0x4c          76   
.text.DRV_LAN865X_Stati    0x19b98           0x4a          74   
.text.TCPIP_UDP_ArrayPu    0x19be2           0x4a          74   
.text.TCPIP_UDP_Destina    0x19c2c           0x4a          74   
.text.TCPIP_IPV4_Select    0x19c76           0x4a          74   
.text.xQueueGenericCrea    0x19cc0           0x4a          74   
.text.__toread             0x19d0a           0x4a          74   
.text.__aeabi_d2iz         0x19d54           0x4a          74   
.text._TCPSendWinIncUpd    0x19d9e           0x48          72   
.text.TCPIP_TCP_Destina    0x19de6           0x48          72   
.text.wc_Sha256Free        0x19e2e            0x2           2   
.text.TCPIP_STACK_MACId    0x19e30           0x48          72   
.text.TCPIP_STACK_Match    0x19e78           0x48          72   
.text._TCPIPStackSignal    0x19ec0           0x48          72   
.text._TCPIPStackModule    0x19f08           0x48          72   
.text.TCPIP_ARP_Deiniti    0x19f50           0x48          72   
.rodata.keySeqTbl          0x19f98           0x48          72   
.rodata.TCPIP_STACK_MOD    0x19fe0           0x48          72   
.text.xPortStartSchedul    0x1a028           0x48          72   
.text.wc_CryptoCb_FindD    0x1a070           0x48          72   
.text.strtok               0x1a0b8           0x48          72   
.text.TCPIP_Helper_Sing    0x1a100           0x46          70   
.text._TCPIP_HEAP_Delet    0x1a146           0x46          70   
.text.TCPIP_TCP_FifoTxF    0x1a18c           0x46          70   
.text.TCPIP_TCP_SignalH    0x1a1d2           0x46          70   
.text.TCPIP_UDP_SignalH    0x1a218           0x46          70   
.text.TCPIP_ARP_Resolve    0x1a25e           0x46          70   
.text.atoi                 0x1a2a4           0x46          70   
.text.TC6_GetRawSegment    0x1a2ea           0x44          68   
.text.__dummy              0x1a32e            0x2           2   
.text._OnClearStatus1      0x1a330           0x44          68   
.text.TCPIP_Helper_MACA    0x1a374           0x44          68   
.text.TCPIP_Helper_Form    0x1a3b8           0x44          68   
.rodata.TCPIP_UDP_Initi    0x1a3fc           0x44          68   
.text._TCPIPStack_Asser    0x1a440           0x44          68   
.text.SYS_INT_SourceDis    0x1a484           0x44          68   
.text.__simple_free        0x1a4c8           0x44          68   
.text.DRV_LAN865X_Packe    0x1a50c           0x42          66   
.text._TcpSocketSetSour    0x1a54e           0x42          66   
.text._UDPSetNewRxPacke    0x1a590           0x42          66   
.text                      0x1a5d4           0x40          64  App's exec code 
.text._EventHandlerSPI     0x1a614           0x40          64   
.text.DRV_LAN865X_Close    0x1a654           0x40          64   
.text.TC6_CB_OnExtended    0x1a694           0x40          64   
.text._TCP_PortIsAvaila    0x1a6d4           0x40          64   
.text._UDPIsAvailablePo    0x1a714           0x40          64   
.text.TCPIP_STACK_NetBy    0x1a754           0x40          64   
.text.TCPIP_DNS_RemoveE    0x1a794           0x40          64   
.text.TC0_TimerInitiali    0x1a7d4           0x40          64   
.text._TCPSetHalfFlushF    0x1a814           0x3e          62   
.text.TCPIP_UDP_TxOffse    0x1a852           0x3e          62   
.text.TCPIP_STACK_Addre    0x1a890           0x3e          62   
.text.DRV_LAN865X_Event    0x1a8ce           0x3c          60   
.text.hexatob              0x1a90a           0x3c          60   
.text._TCPIP_PKT_Packet    0x1a948           0x3c          60   
.text.TCPIP_TCP_Close      0x1a984           0x3c          60   
.text.TCPIP_UDP_OpenCli    0x1a9c0           0x3c          60   
.text.TCPIP_STACK_NetHa    0x1a9fc           0x3c          60   
.text._TCPIPStackModule    0x1aa38           0x3c          60   
.rodata._TCPIPStackPack    0x1aa74           0x3c          60   
.text.SERCOM0_SPI_Initi    0x1aab0           0x3c          60   
.text.Console_UART_Read    0x1aaec           0x3c          60   
.text.Console_UART_Writ    0x1ab28           0x3c          60   
.text.SYS_TIME_GetTimer    0x1ab64           0x3c          60   
.text.SYS_TIME_Resource    0x1aba0           0x3c          60   
.text.SYS_TIME_CountToM    0x1abdc           0x3c          60   
.text.SYS_TIME_TimerDes    0x1ac18           0x3c          60   
.text.wc_InitMd5_ex        0x1ac54           0x3c          60   
.text.__fmt_state          0x1ac90           0x3c          60   
.text.__aeabi_dcmple       0x1accc           0x3c          60   
.text._TCPIP_HEAP_MaxSi    0x1ad08           0x3a          58   
.text.TCPIP_STACK_NetAl    0x1ad42           0x3a          58   
.text.DRV_LAN865X_Confi    0x1ad7c           0x38          56   
.text.TCPIP_Commands_De    0x1adb4           0x38          56   
.rodata._PingStop.str1.    0x1adec           0x38          56   
.text.TCPIP_PKT_PacketM    0x1ae24           0x38          56   
.text.TCPIP_Helper_Memc    0x1ae5c           0x38          56   
.text._TCP_EphemeralPor    0x1ae94           0x38          56   
.text._UDPAllocateEphem    0x1aecc           0x38          56   
.rodata.TCPIP_STACK_Net    0x1af04           0x38          56   
.rodata._TCPIPStack_Ass    0x1af3c           0x38          56   
.text.TCPIP_DNS_ClientI    0x1af74           0x38          56   
.rodata.TCPIP_HOSTS_CON    0x1afac           0x38          56   
.text.Hash_DRBG_Uninsta    0x1afe4           0x38          56   
.text.__aeabi_dcmpgt       0x1b01c           0x38          56   
.text.__aeabi_dcmplt       0x1b054           0x38          56   
.text._TCPSetSourceAddr    0x1b08c           0x36          54   
.text._DNS_NetIsValid      0x1b0c2           0x36          54   
.rodata.DRV_SPI_Open.st    0x1b0f8           0x34          52   
.text._TCP_SktFlagsGet     0x1b12c           0x34          52   
.text.TCPIP_STACK_NetDo    0x1b160           0x34          52   
.text._TCPIPStackPacket    0x1b194           0x34          52   
.rodata.TCPIP_STACK_Kil    0x1b1c8           0x34          52   
.text._ARPSetEntry         0x1b1fc           0x34          52   
.text.TCPIP_ARP_Handler    0x1b230           0x34          52   
.text._DNSGetData          0x1b264           0x34          52   
.text.CommandQuit          0x1b298           0x34          52   
.rodata.CommandQuit.str    0x1b2cc           0x34          52   
.text.SYS_CONSOLE_Read     0x1b300           0x34          52   
.text.SYS_CONSOLE_ReadC    0x1b334           0x34          52   
.text.SYS_CONSOLE_Write    0x1b368           0x34          52   
.text.Console_UART_Writ    0x1b39c           0x34          52   
.text.Console_UART_Writ    0x1b3d0           0x34          52   
.text.Console_UART_Read    0x1b404           0x34          52   
.text.Console_UART_Read    0x1b438           0x34          52   
.text.SYS_RANDOM_Crypto    0x1b46c           0x34          52   
.rodata.drvSPI0InitData    0x1b4a0           0x34          52   
.text.vListInsert          0x1b4d4           0x34          52   
.text.vTaskDelay           0x1b508           0x34          52   
.text.__pic32c_data_ini    0x1b53c           0x34          52   
.text.get_parity           0x1b570           0x32          50   
.text.TCPIP_STACK_NetBi    0x1b5a2           0x32          50   
.text.__aeabi_dcmpeq       0x1b5d4           0x32          50   
.text._OnClearStatus0      0x1b608           0x30          48   
.rodata.DRV_SPI_Initial    0x1b638           0x30          48   
.text.TCPIP_PKT_Initial    0x1b668           0x30          48   
.text._TCPIP_PKT_Packet    0x1b698           0x30          48   
.text.TCPIP_Helper_Stri    0x1b6c8           0x30          48   
.text.TCPIP_Helper_Prot    0x1b6f8           0x30          48   
.text.TCPIP_Helper_Prot    0x1b728           0x30          48   
.rodata.iperfCmdTbl        0x1b758           0x30          48   
.text._TCPSocketTxFreeS    0x1b788           0x30          48   
.text.TCPIP_UDP_Close      0x1b7b8           0x30          48   
.text.TCPIP_STACK_Initi    0x1b7e8           0x30          48   
.text.fnv_32_hash          0x1b818           0x30          48   
.text.TCPIP_ARP_HashEnt    0x1b848           0x30          48   
.text.TCPIP_IPV4_CheckP    0x1b878           0x30          48   
.text.TCPIP_OAHASH_Entr    0x1b8a8           0x30          48   
.text.SendCommandCharac    0x1b8d8           0x30          48   
.text.lkeyEndProcess       0x1b908           0x30          48   
.text.lkeyHomeProcess      0x1b938           0x30          48   
.text.SYS_CONSOLE_Messa    0x1b968           0x30          48   
.text.SYS_TIME_UpdateTi    0x1b998           0x30          48   
.text.SYS_TIME_Counter6    0x1b9c8           0x30          48   
.text._SYS_RANDOM_Crypt    0x1b9f8           0x30          48   
.rodata.SYS_Tasks.str1.    0x1ba28           0x30          48   
.rodata.seedA_data         0x1ba58           0x30          48   
.rodata.seedB_data         0x1ba88           0x30          48   
.text.wc_CryptoCb_FindD    0x1bab8           0x30          48   
.text                      0x1bae8           0x30          48  App's exec code 
.text._sbrk_init           0x1bb18           0x30          48   
.text.DRV_LAN865X_Stack    0x1bb48           0x2e          46   
.text.TCPIP_TCP_Connect    0x1bb76           0x2e          46   
.text._TxSktGetLockedV4    0x1bba4           0x2e          46   
.text._UDPFreeTxResourc    0x1bbd2           0x2e          46   
.text.TCPIP_STACK_DNSSe    0x1bc00           0x2e          46   
.text._DNS_CleanCacheEn    0x1bc2e           0x2e          46   
.text._DNSClientCleanup    0x1bc5c           0x2e          46   
.text.wc_CryptoCb_Regis    0x1bc8a           0x2e          46   
.text._OnConfigRead        0x1bcb8           0x2c          44   
.text._TCPIP_PKT_Socket    0x1bce4           0x2c          44   
.text.TCPIP_Helper_Prot    0x1bd10           0x2c          44   
.text.TCPIP_STACK_IsBca    0x1bd3c           0x2c          44   
.text._TCPIPStackModule    0x1bd68           0x2c          44   
.text._ARPRemoveEntry      0x1bd94           0x2c          44   
.text.TC0_TimerInterrup    0x1bdc0           0x2c          44   
.rodata.sysConsoleUARTD    0x1bdec           0x2c          44   
.text.SYS_RANDOM_Crypto    0x1be18           0x2c          44   
.text.TCPIP_STACK_Init     0x1be44           0x2c          44   
.text.pxPortInitialiseS    0x1be70           0x2c          44   
.text.xPortSysTickHandl    0x1be9c           0x2c          44   
.text.wc_RNG_HealthTest    0x1bec8           0x2c          44   
.text.fma                  0x1bef4           0x2c          44   
.text._sbrk                0x1bf20           0x2c          44   
.text._TxDone              0x1bf4c           0x2a          42   
.text.DRV_SPI_TransferS    0x1bf76           0x2a          42   
.text.TCPIP_Helper_Prot    0x1bfa0           0x2a          42   
.text.TCPIP_Helper_Prot    0x1bfca           0x2a          42   
.text.TCPIP_Notificatio    0x1bff4           0x2a          42   
.text.TCPIP_TCP_WasRese    0x1c01e           0x2a          42   
.text.TCPIP_DNS_OAHASH_    0x1c048           0x2a          42   
.text.__pop_float          0x1c072           0x2a          42   
.text.DRV_LAN865X_Param    0x1c09c           0x28          40   
.rodata                    0x1c0c4           0x28          40  Read-only const 
.text._TcpSocketChk        0x1c0ec           0x28          40   
.text._TcpFlush            0x1c114           0x28          40   
.text._UDPSocketDcpt       0x1c13c           0x28          40   
.text._UDPUpdatePacketL    0x1c164           0x28          40   
.text.TCPIP_UDP_GetIsRe    0x1c18c           0x28          40   
.text._TCPIP_STACK_Tick    0x1c1b4           0x28          40   
.text._TCPIPSignalEntry    0x1c1dc           0x28          40   
.text.TCPIP_STACK_NetMA    0x1c204           0x28          40   
.text.TCPIP_STACK_NetMA    0x1c22c           0x28          40   
.text.TCPIP_STACK_NetIs    0x1c254           0x28          40   
.text._TCPIPStackSignal    0x1c27c           0x28          40   
.rodata.TCPIP_STACK_Ini    0x1c2a4           0x28          40   
.text._ARPRemoveCacheEn    0x1c2cc           0x28          40   
.text.TCPIP_ICMP_Deinit    0x1c2f4           0x28          40   
.rodata.TCPIP_IPV4_Init    0x1c31c           0x28          40   
.text.DMAC_ChannelSetti    0x1c344           0x28          40   
.text.TC0_Timer16bitCou    0x1c36c           0x28          40   
.text.SYS_CMD_Initializ    0x1c394           0x28          40   
.text.Console_UART_Init    0x1c3bc           0x28          40   
.text.SYS_TIME_Resource    0x1c3e4           0x28          40   
.text.SYS_TMR_TickCount    0x1c40c           0x28          40   
.text.SYS_TMR_TickCount    0x1c434           0x28          40   
.text.SYS_TMR_TickCount    0x1c45c           0x28          40   
.rodata.drvSPI0remapDat    0x1c484           0x28          40   
.rodata.tcpipARPInitDat    0x1c4ac           0x28          40   
.text.prvPortStartFirst    0x1c4d4           0x28          40   
.text.vPortSetupTimerIn    0x1c4fc           0x28          40   
.text.prvResetNextTaskU    0x1c524           0x28          40   
.text.strncmp              0x1c54c           0x28          40   
.text.__uflow              0x1c574           0x28          40   
.text.__string_out         0x1c59c           0x28          40   
.text.TCPIP_Helper_Sing    0x1c5c4           0x26          38   
.text.TCPIP_TCP_IsConne    0x1c5ea           0x26          38   
.text.TCPIP_TCP_Flush      0x1c610           0x26          38   
.text.TCPIP_TCP_Discard    0x1c636           0x26          38   
.text.TCPIP_STACK_DNSSe    0x1c65c           0x26          38   
.text.TCPIP_OAHASH_Init    0x1c682           0x26          38   
.text.xQueueCreateCount    0x1c6a8           0x26          38   
.rodata._tcpip_heap_obj    0x1c6d0           0x24          36   
.text.TCPIP_STACK_IPAdd    0x1c6f4           0x24          36   
.text._ARPAllocateTxPac    0x1c718           0x24          36   
.text.TCPIP_ARP_Handler    0x1c73c           0x24          36   
.rodata.builtinCmdTbl      0x1c760           0x24          36   
.text.SYS_RESET_Softwar    0x1c784           0x24          36   
.text.DRV_LAN865X_Event    0x1c7a8            0x8           8   
.text.vPortSVCHandler      0x1c7b0           0x24          36   
.text.uxListRemove         0x1c7d4           0x24          36   
.text.xQueueCreateMutex    0x1c7f8           0x24          36   
.text.__aeabi_d2uiz        0x1c81c           0x24          36   
.text._OnPlcaStatus        0x1c840           0x22          34   
.text._RxPacketAck         0x1c862           0x22          34   
.text.TCPIP_Helper_Prot    0x1c884           0x22          34   
.text._UDPFreeRxQueue      0x1c8a6           0x22          34   
.text.TCPIP_UDP_Discard    0x1c8c8           0x22          34   
.text.TCPIP_STACK_NetAd    0x1c8ea           0x22          34   
.text.__aeabi_i2d          0x1c90c           0x22          34   
.text.TC6_WriteRegister    0x1c92e           0x20          32   
.rodata._TCPIP_PKT_Pack    0x1c950           0x20          32   
.text.TCPIP_Helper_Prot    0x1c970           0x20          32   
.rodata.TCPIP_Helper_MA    0x1c990           0x20          32   
.rodata.TCPIP_MAC_POWER    0x1c9b0           0x20          32   
.text.TCPIP_Notificatio    0x1c9d0           0x20          32   
.text.TCPIP_UDP_Destina    0x1c9f0           0x20          32   
.text.TCPIP_STACK_NetDe    0x1ca10           0x20          32   
.text.TCPIP_STACK_Index    0x1ca30           0x20          32   
.text._TCPIPStackHandle    0x1ca50           0x20          32   
.rodata.TCPIP_FRAME_PRO    0x1ca70           0x20          32   
.text._SwapARPPacket       0x1ca90           0x20          32   
.text._ARPTxAckFnc         0x1cab0           0x20          32   
.text.TCPIP_DNS_OAHASH_    0x1cad0           0x20          32   
.text.lkeyRightProcess     0x1caf0           0x20          32   
.text.GetCommandCharact    0x1cb10           0x20          32   
.text.SYS_INT_SourceRes    0x1cb30           0x20          32   
.text.prvTaskExitError     0x1cb50           0x20          32   
.text.vPortEnterCritica    0x1cb70           0x20          32   
.rodata.reseedSeedA_dat    0x1cb90           0x20          32   
.text._get_heap_left_sp    0x1cbb0           0x20          32   
.text.TCPIP_PKT_Payload    0x1cbd0           0x1e          30   
.text._TCPIsGetReady       0x1cbee           0x1e          30   
.text.TCPIP_STACK_NetAd    0x1cc0c           0x1e          30   
.text.TCPIP_STACK_NetAd    0x1cc2a           0x1e          30   
.text.TCPIP_STACK_Netwo    0x1cc48           0x1e          30   
.text.OSAL_SEM_Pend        0x1cc66           0x1e          30   
.text.OSAL_MUTEX_Lock      0x1cc84           0x1e          30   
.text.lkeyUpProcess        0x1cca2           0x1e          30   
.text.__dinit_copy         0x1ccc0           0x1e          30   
.text.TC6_EnableData       0x1ccde           0x1c          28   
.text.TC6_ReadRegister     0x1ccfa           0x1c          28   
.rodata._OnInitialRegis    0x1cd18           0x1c          28   
.rodata.DRV_SPI_WriteRe    0x1cd34           0x1c          28   
.text.TCPIP_Helper_Sing    0x1cd50           0x1c          28   
.text.TCPIP_Helper_Prot    0x1cd6c           0x1c          28   
.text._TCPIP_HEAP_Callo    0x1cd88           0x1c          28   
.rodata.TCPIP_IPERF_Ini    0x1cda4           0x1c          28   
.text._UDPTxPktValid       0x1cdc0           0x1c          28   
.text._TCPIPSignalEntry    0x1cddc           0x1c          28   
.text.TCPIP_STACK_Statu    0x1cdf8           0x1c          28   
.text.TCPIP_STACK_NetAd    0x1ce14           0x1c          28   
.text.TCPIP_STACK_NetAd    0x1ce30           0x1c          28   
.text.TCPIP_STACK_NetAd    0x1ce4c           0x1c          28   
.text.TCPIP_STACK_NetIs    0x1ce68           0x1c          28   
.text.TCPIP_STACK_NetMa    0x1ce84           0x1c          28   
.text.TCPIP_STACK_NetIs    0x1cea0           0x1c          28   
.text.TCPIP_STACK_Deini    0x1cebc           0x1c          28   
.rodata.str1.4             0x1ced8           0x1c          28   
.text.TCPIP_IPV4_MaxDat    0x1cef4           0x1c          28   
.text.lkeyLeftProcess      0x1cf10           0x1c          28   
.text.SendCommandMessag    0x1cf2c           0x1c          28   
.rodata.CommandReset.st    0x1cf48           0x1c          28   
.text.SYS_DEBUG_Initial    0x1cf64           0x1c          28   
.text.SYS_DMA_Addressin    0x1cf80           0x1c          28   
.text.SYS_TIME_MSToCoun    0x1cf9c           0x1c          28   
.text.SYS_TMR_CallbackP    0x1cfb8           0x1c          28   
.rodata.drvLan865xInitD    0x1cfd4           0x1c          28   
.rodata.sysTimePlibAPI     0x1cff0           0x1c          28   
.text.vTaskPlaceOnEvent    0x1d00c           0x1c          28   
.text.pvTaskIncrementMu    0x1d028           0x1c          28   
.text.memcmp               0x1d044           0x1c          28   
.text.memcpy               0x1d060           0x1c          28   
.text.__memrchr            0x1d07c           0x1c          28   
.text.__aeabi_ui2d         0x1d098           0x1c          28   
.text.isxdigit             0x1d0b4           0x1c          28   
.text.vfprintf             0x1d0d0           0x1c          28   
.text.TCPIP_Helper_Sing    0x1d0ec           0x1a          26   
.text.TCPIP_Helper_Sing    0x1d106           0x1a          26   
.text.TCPIP_Notificatio    0x1d120           0x1a          26   
.text.TCPIP_TCP_ClientO    0x1d13a           0x1a          26   
.text.TCPIP_TCP_PutIsRe    0x1d154           0x1a          26   
.text.TCPIP_UDP_TxPoint    0x1d16e           0x1a          26   
.text.TCPIP_STACK_NetMA    0x1d188           0x1a          26   
.text.TCPIP_STACK_NetIs    0x1d1a2           0x1a          26   
.text.TCPIP_DNS_IsResol    0x1d1bc           0x1a          26   
.text.OSAL_MUTEX_Delete    0x1d1d6           0x1a          26   
.text.wc_InitRng           0x1d1f0           0x1a          26   
.text.snprintf             0x1d20a           0x1a          26   
.text.sprintf              0x1d224           0x1a          26   
.text.CRYPT_MD5_DataAdd    0x1d23e           0x18          24   
.text.CRYPT_MD5_Finaliz    0x1d256           0x18          24   
.text.CRYPT_RNG_BlockGe    0x1d26e           0x18          24   
.text._OnRegisterDoneCB    0x1d288           0x18          24   
.rodata._OnRegisterDone    0x1d2a0           0x18          24   
.text.TCPIP_STACK_NetAd    0x1d2b8           0x18          24   
.text.TCPIP_STACK_NetAd    0x1d2d0           0x18          24   
.text.TCPIP_STACK_NetAd    0x1d2e8           0x18          24   
.text.TCPIP_STACK_NetAd    0x1d300           0x18          24   
.text.TCPIP_STACK_NetMa    0x1d318           0x18          24   
.text.TCPIP_ARP_HashKey    0x1d330           0x18          24   
.text.TCPIP_ICMP_Cleanu    0x1d348           0x18          24   
.text.TCPIP_OAHASH_Entr    0x1d360           0x18          24   
.text.OSAL_CRIT_Enter      0x1d378           0x18          24   
.text.OSAL_SEM_Post        0x1d390           0x18          24   
.text.OSAL_MUTEX_Create    0x1d3a8           0x18          24   
.text.OSAL_MUTEX_Unlock    0x1d3c0           0x18          24   
.text.SERCOM1_USART_Wri    0x1d3d8           0x18          24   
.text.SERCOM1_USART_Rea    0x1d3f0           0x18          24   
.text.TC0_TimerStart       0x1d408           0x18          24   
.text.TC0_TimerStop        0x1d420           0x18          24   
.text.lkeyDownProcess      0x1d438           0x18          24   
.text.CommandReset         0x1d450           0x18          24   
.text.SYS_DMA_DataWidth    0x1d468           0x18          24   
.text.SYS_TIME_GetElaps    0x1d480           0x18          24   
.rodata.drvSPI0Interrup    0x1d498           0x18          24   
.rodata.sysConsole0UART    0x1d4b0           0x18          24   
.rodata.tcpipDNSClientI    0x1d4c8           0x18          24   
.text.vTaskInternalSetT    0x1d4e0           0x18          24   
.text.strlen               0x1d4f8           0x18          24   
.text.strrchr              0x1d510           0x18          24   
.text.__init_search_fl     0x1d528           0x18          24   
.text.rand                 0x1d540           0x18          24   
.text.__shlim              0x1d558           0x18          24   
.text._TCPIP_HEAP_LastE    0x1d570           0x16          22   
.text._IperfUDPRxSignal    0x1d586           0x16          22   
.text._IperfTCPRxSignal    0x1d59c           0x16          22   
.text.TCPIP_TCP_WasDisc    0x1d5b2           0x16          22   
.text.TCPIP_STACK_Addre    0x1d5c8           0x16          22   
.text._DNSSocketRxSigna    0x1d5de           0x16          22   
.text.OSAL_CRIT_Leave      0x1d5f4           0x16          22   
.text.vListInitialise      0x1d60a           0x16          22   
.text.prvIsQueueEmpty      0x1d620           0x16          22   
.text.wc_InitMd5           0x1d636           0x16          22   
.text.strcmp               0x1d64c           0x16          22   
.text.__expand_heap        0x1d662           0x16          22   
.rodata                    0x1d678           0x16          22  Read-only const 
.text._OnInitialRegiste    0x1d690           0x14          20   
.rodata.PrintRateLimite    0x1d6a4           0x14          20   
.rodata.str1.4             0x1d6b8           0x14          20   
.text.TCPIP_STACK_NetUp    0x1d6cc           0x14          20   
.text.TCPIP_STACK_HeapH    0x1d6e0           0x14          20   
.rodata.TCPIP_STACK_IF_    0x1d6f4           0x14          20   
.rodata.__func__.14400     0x1d708           0x14          20   
.text.TCPIP_HEAP_Create    0x1d71c           0x14          20   
.text.SERCOM0_SPI_IsTra    0x1d730           0x14          20   
.text.SERCOM1_USART_Rea    0x1d744           0x14          20   
.text.SERCOM1_USART_Wri    0x1d758           0x14          20   
.text.TC0_Timer16bitPer    0x1d76c           0x14          20   
.text.TC0_Timer16bitCom    0x1d780           0x14          20   
.rodata.sysConsoleApi      0x1d794           0x14          20   
.text.Console_UART_Reso    0x1d7a8           0x14          20   
.text.vPortEnableVFP       0x1d7bc           0x14          20   
.text.vPortExitCritical    0x1d7d0           0x14          20   
.text.CRYPT_WCCB_Initia    0x1d7e4           0x14          20   
.rodata                    0x1d7f8           0x14          20  Read-only const 
.text.memset               0x1d80c           0x14          20   
.text.strchr               0x1d820           0x14          20   
.text.stpcpy               0x1d834           0x14          20   
.text.strtol               0x1d848           0x14          20   
.text.CRYPT_MD5_Initial    0x1d85c           0x12          18   
.text.TC6_CB_OnNeedServ    0x1d86e           0x12          18   
.text.lDRV_SPI_RemoveTr    0x1d880           0x12          18   
.text._TCPIP_HEAP_FreeS    0x1d892           0x12          18   
.text.TCPIP_TCP_GetIsRe    0x1d8a4           0x12          18   
.text.TCPIP_OAHASH_Entr    0x1d8b6           0x12          18   
.text.OSAL_SEM_Delete      0x1d8c8           0x12          18   
.text.NVIC_INT_Disable     0x1d8da           0x12          18   
.text.NVIC_INT_Restore     0x1d8ec           0x12          18   
.text.vApplicationStack    0x1d8fe           0x12          18   
.text.vApplicationMallo    0x1d910           0x12          18   
.text.__dinit_clear        0x1d922           0x12          18   
.text.CRYPT_RNG_Initial    0x1d934           0x10          16   
.text._Dereference         0x1d944           0x10          16   
.rodata.heapTypeStr.138    0x1d954           0x10          16   
.text.TCPIP_Notificatio    0x1d964           0x10          16   
.text.TCPIP_TCP_SocketN    0x1d974           0x10          16   
.text.TCPIP_UDP_SocketN    0x1d984           0x10          16   
.text.TCPIP_DNS_GetIPv4    0x1d994           0x10          16   
.text.TCPIP_DNS_GetIPv6    0x1d9a4           0x10          16   
.text.DMAC_ChannelCallb    0x1d9b4           0x10          16   
.text.NVMCTRL_Initializ    0x1d9c4           0x10          16   
.text.IsCommandReady       0x1d9d4           0x10          16   
.text.Console_UART_Stat    0x1d9e4           0x10          16   
.text.sy_time_h2_adapte    0x1d9f4           0x10          16   
.text._TCPIP_STACK_Task    0x1da04           0x10          16   
.text.lSYS_CMD_Tasks       0x1da14           0x10          16   
.text.lAPP_Tasks           0x1da24           0x10          16   
.rodata.drvSPI0PlibAPI     0x1da34           0x10          16   
.rodata.tcpipIPv4InitDa    0x1da44           0x10          16   
.text.vTaskSuspendAll      0x1da54           0x10          16   
.rodata.str1.1             0x1da64           0x10          16   
.rodata.str1.1             0x1da74           0x10          16   
.text.TC6_GetInstance      0x1da84            0xe          14   
.text.btohexa_low          0x1da92            0xe          14   
.text.TCPIP_Helper_Chec    0x1daa0            0xe          14   
.text.TCPIP_STACK_NetIn    0x1daae            0xe          14   
.text.TCPIP_STACK_NetIx    0x1dabc            0xe          14   
.text._TCPIPStackSignal    0x1daca            0xe          14   
.text.main                 0x1dad8            0xe          14   
.text.tolower              0x1dae6            0xe          14   
.text.toupper              0x1daf4            0xe          14   
.text.TCPIP_PKT_Deiniti    0x1db04            0xc          12   
.rodata.TCPIP_Helper_IP    0x1db10            0xc          12   
.text._TCPIP_HEAP_Size     0x1db1c            0xc          12   
.text._TCPIP_HEAP_HighW    0x1db28            0xc          12   
.text.TCPIP_STACK_NetDe    0x1db34            0xc          12   
.text.TCPIP_STACK_Numbe    0x1db40            0xc          12   
.text.TCPIP_ARP_HashKey    0x1db4c            0xc          12   
.text.TCPIP_IPV4_Packet    0x1db58            0xc          12   
.text.TCPIP_DNS_OAHASH_    0x1db64            0xc          12   
.text.TCPIP_DNS_Enable     0x1db70            0xc          12   
.text.DMAC_ChannelSetti    0x1db7c            0xc          12   
.text.PORT_GroupWrite      0x1db88            0xc          12   
.text.SERCOM0_SPI_Callb    0x1db94            0xc          12   
.text.TC0_TimerCallback    0x1dba0            0xc          12   
.rodata.DisplayNodeMsg.    0x1dbac            0xc          12   
.text.SYS_DEBUG_Console    0x1dbb8            0xc          12   
.text.SYS_DEBUG_ErrorLe    0x1dbc4            0xc          12   
.text.SYS_TIME_Frequenc    0x1dbd0            0xc          12   
.rodata.sysConsole0Init    0x1dbdc            0xc          12   
.text.vTaskMissedYield     0x1dbe8            0xc          12   
.text.APP_Initialize       0x1dbf4            0xc          12   
.text.strcpy               0x1dc00            0xc          12   
.text.strncpy              0x1dc0c            0xc          12   
.text.srand                0x1dc18            0xc          12   
.text.vsprintf             0x1dc24            0xc          12   
.text.TC6_UnlockExtende    0x1dc30            0xa          10   
.text.DRV_LAN865X_Event    0x1dc3a            0xa          10   
.text.TCPIP_Helper_Sing    0x1dc44            0xa          10   
.text.TCPIP_UDP_ServerO    0x1dc4e            0xa          10   
.text.TCPIP_UDP_ClientO    0x1dc58            0xa          10   
.text.TCPIP_STACK_NetNa    0x1dc62            0xa          10   
.text._TCPIPStackAddres    0x1dc6c            0xa          10   
.text.TCPIP_DNS_Resolve    0x1dc76            0xa          10   
.text.TCPIP_DNS_IsNameR    0x1dc80            0xa          10   
.text.DMAC_0_InterruptH    0x1dc8a            0xa          10   
.text.DMAC_1_InterruptH    0x1dc94            0xa          10   
.text.DRV_LAN865X_Deini    0x1dc9e            0x8           8   
.rodata.str1.4             0x1dca8            0x8           8   
.text.TCPIP_Notificatio    0x1dcb0            0x8           8   
.text.TCPIP_UDP_TxPutIs    0x1dcb8            0x8           8   
.text.TCPIP_STACK_NetAd    0x1dcc0            0x8           8   
.text.TCPIP_STACK_NetGe    0x1dcc8            0x8           8   
.text.TCPIP_HEAP_Delete    0x1dcd0            0x8           8   
.text.TCPIP_HEAP_Malloc    0x1dcd8            0x8           8   
.text.TCPIP_HEAP_Calloc    0x1dce0            0x8           8   
.text.TCPIP_HEAP_FreeOu    0x1dce8            0x8           8   
.text._ICMPTxPktAcknowl    0x1dcf0            0x8           8   
.text.OSAL_Malloc          0x1dcf8            0x8           8   
.text.SERCOM1_USART_Wri    0x1dd00            0x8           8   
.text.TC0_TimerFrequenc    0x1dd08            0x8           8   
.rodata.lkeyEndProcess.    0x1dd10            0x8           8   
.rodata.lkeyHomeProcess    0x1dd18            0x8           8   
.text.SYS_INT_Disable      0x1dd20            0x8           8   
.text.SYS_INT_Restore      0x1dd28            0x8           8   
.text.SYS_TIME_CounterG    0x1dd30            0x8           8   
.rodata.drvSPI0remapClo    0x1dd38            0x8           8   
.rodata.drvSPI0remapClo    0x1dd40            0x8           8   
.rodata.sysTimeInitData    0x1dd48            0x8           8   
.rodata.tcpipTCPInitDat    0x1dd50            0x8           8   
.rodata.tcpipUDPInitDat    0x1dd58            0x8           8   
.rodata.vTaskStartSched    0x1dd60            0x8           8   
.text.vQueueDelete         0x1dd68            0x8           8   
.text.__aeabi_dsub         0x1dd70            0x8           8   
.rodata.str1.1             0x1dd78            0x8           8   
.rodata.str1.1             0x1dd80            0x7           7   
.text.DRV_LAN865X_Statu    0x1dd88            0x6           6   
.text.DRV_LAN865X_RxFil    0x1dd8e            0x6           6   
.text.DRV_LAN865X_Proce    0x1dd94            0x6           6   
.text.TCPIP_PKT_GapDcpt    0x1dd9a            0x6           6   
.text.TCPIP_STACK_NetBI    0x1dda0            0x6           6   
.text.TCPIP_ARP_HashKey    0x1dda6            0x6           6   
.text.vListInitialiseIt    0x1ddac            0x6           6   
.text.CRYPT_WCCB_Callba    0x1ddb2            0x6           6   
.text.wc_CryptoCb_Defau    0x1ddb8            0x6           6   
.text.DRV_LAN865X_Power    0x1ddbe            0x4           4   
.text.TCPIP_PKT_GapDcpt    0x1ddc2            0x4           4   
.text.TCPIP_IPV4_IsFrag    0x1ddc6            0x4           4   
.text.PORT_GroupRead       0x1ddca            0x4           4   
.text.PORT_GroupSet        0x1ddce            0x4           4   
.text.PORT_GroupClear      0x1ddd2            0x4           4   
.rodata.StringToArgs.st    0x1ddd8            0x4           4   
.text.Console_UART_Flus    0x1dddc            0x4           4   
.rodata.debugInit          0x1dde0            0x4           4   
.rodata.sysConsole0UART    0x1dde4            0x4           4   
.text.__dummy_decompres    0x1dde8            0x4           4   
.text                      0x1ddec            0x4           4  App's exec code 
      Total ROM used  :     0x1ddd9      122329  11.7% of 0x100000
        --------------------------------------------------------------------------
         Total Program Memory used  :     0x1ddd9      122329  11.7% of 0x100000
        --------------------------------------------------------------------------


RAM Data-Memory Usage
section                    address  length [bytes]      (dec)  Description
-------                 ----------  -------------------------  -----------
.bss.ucHeap             0x20000000         0xa000       40960   
.bss.m_tc6              0x2000a000         0x1190        4496   
.bss.icmpPingBuff       0x2000b190          0x7d0        2000   
.bss.txfer_buffer       0x2000b960          0x640        1600   
.bss.SERCOM1_USART_Read 0x2000bfa0          0x400        1024   
.bss.SERCOM1_USART_Writ 0x2000c3a0          0x400        1024   
.bss.printBuff          0x2000c7a0          0x3e8        1000   
.bss.TCPIP_STACK_MODULE 0x2000cb88          0x280         640   
.bss.drvLAN865XDrvInst  0x2000ce08          0x114         276   
.bss.sysRandCtx         0x2000cf1c          0x108         264   
.bss.cnt_.15605         0x2000d024            0x4           4   
.bss.gIperfState        0x2000d028           0xd8         216   
.bss.consolePrintBuffer 0x2000d100           0xc8         200   
.bss.usrCmdTbl          0x2000d1c8           0xc0         192   
.bss.timers             0x2000d288           0xa0         160   
.bss.TCPIP_MODULES_QUEU 0x2000d328           0x90         144   
.bss.echoRequestPool    0x2000d3b8           0x90         144   
.bss.gDrvSPIObj         0x2000d448           0x7c         124   
.bss.pxReadyTasksLists  0x2000d4c4           0x64         100   
.bss.gCryptoDev         0x2000d528           0x60          96   
.bss.tmpBuf.15607       0x2000d588           0x50          80   
.bss                    0x2000d5d8           0x50          80  Uninitialized data 
.bss.arpMod             0x2000d628           0x4c          76   
.bss.dnslookupTargetHos 0x2000d674           0x41          65   
.bss.iperf_async_reques 0x2000d6b5            0x1           1   
.bss.icmpIdentifier     0x2000d6b6            0x2           2   
.bss.sercom1USARTObj    0x2000d6b8           0x40          64   
.bss.gSystemCounterObj  0x2000d6f8           0x40          64   
.bss.g_bfr              0x2000d738           0x34          52   
.bss.sercom0SPIObj      0x2000d76c           0x2c          44   
.bss.gDnsDcpt           0x2000d798           0x28          40   
.bss.drvSPI0ClientObjPo 0x2000d7c0           0x28          40   
.bss.drvSPI0TransferObj 0x2000d7e8           0x24          36   
.bss.t0_.15606          0x2000d80c            0x4           4   
.bss.descriptor_section 0x2000d810           0x20          32   
.bss.dmacChannelObj     0x2000d830           0x20          32   
.bss.write_back_section 0x2000d850           0x20          32   
.bss.icmpTargetHost     0x2000d870           0x1f          31   
.bss.tcpipCmdStat       0x2000d88f            0x1           1   
.bss                    0x2000d890           0x1c          28  Uninitialized data 
.bss.tcpip_stack_ctrl_d 0x2000d8ac           0x1c          28   
.bss.cmdTcpipInitData   0x2000d8c8           0x18          24   
.bss.tcpip_init_data    0x2000d8e0           0x18          24   
.bss.sysObj             0x2000d8f8           0x18          24   
.bss.ipv4ArpQueue       0x2000d910           0x14          20   
.bss.ipv4PacketFilters  0x2000d924           0x14          20   
.bss.xDelayedTaskList1  0x2000d938           0x14          20   
.bss.xDelayedTaskList2  0x2000d94c           0x14          20   
.bss.xPendingReadyList  0x2000d960           0x14          20   
.bss.xSuspendedTaskList 0x2000d974           0x14          20   
.bss.xTasksWaitingTermi 0x2000d988           0x14          20   
.bss.icmpTargetAddrStr  0x2000d99c           0x11          17   
.bss.tcpip_stack_status 0x2000d9ad            0x1           1   
.bss.icmpSequenceNo     0x2000d9ae            0x2           2   
.bss.txDummyData        0x2000d9b0           0x10          16   
.bss.appData            0x2000d9c0           0x10          16   
.bss.tcpip_heap_config  0x2000d9d0            0xc          12   
.bss.echoRequestBusyLis 0x2000d9dc            0xc          12   
.bss.echoRequestFreeLis 0x2000d9e8            0xc          12   
.bss.ipv4ArpPool        0x2000d9f4            0xc          12   
.bss.consoleDeviceInsta 0x2000da00            0xc          12   
.bss.gConsoleUartData   0x2000da0c            0xc          12   
.bss                    0x2000da18            0xc          12  Uninitialized data 
.bss.drvLAN865XClntInst 0x2000da24            0x8           8   
.bss.TC0_CallbackObject 0x2000da2c            0x8           8   
.bss.cmdIODevList       0x2000da34            0x8           8   
.bss.commandInitCount   0x2000da3c            0x4           4   
.bss.dnsLookUpStartTick 0x2000da40            0x4           4   
.bss.dnsLookupCmdIoPara 0x2000da44            0x4           4   
.bss.icmpAckRecv        0x2000da48            0x4           4   
.bss.icmpCmdIoParam     0x2000da4c            0x4           4   
.bss.icmpNetH           0x2000da50            0x4           4   
.bss.icmpReqCount       0x2000da54            0x4           4   
.bss.icmpReqDelay       0x2000da58            0x4           4   
.bss.icmpReqHandle      0x2000da5c            0x4           4   
.bss.icmpReqNo          0x2000da60            0x4           4   
.bss.icmpStartTick      0x2000da64            0x4           4   
.bss.icmpTargetAddr     0x2000da68            0x4           4   
.bss.initialNetIfs      0x2000da6c            0x4           4   
.bss.pCmdTcpipInitData  0x2000da70            0x4           4   
.bss.pTcpipCmdDevice    0x2000da74            0x4           4   
.bss.tcpipCmdSignalHand 0x2000da78            0x4           4   
.bss.pktMemH            0x2000da7c            0x4           4   
.bss.iperfInitCount     0x2000da80            0x4           4   
.bss.nIperfSessions     0x2000da84            0x4           4   
.bss.TCBStubs           0x2000da88            0x4           4   
.bss.TcpSockets         0x2000da8c            0x4           4   
.bss.sysTickFreq        0x2000da90            0x4           4   
.bss.tcpHeapH           0x2000da94            0x4           4   
.bss.tcpInitCount       0x2000da98            0x4           4   
.bss.tcpLockCount       0x2000da9c            0x4           4   
.bss.tcpSemaphore       0x2000daa0            0x4           4   
.bss.tcpSignalHandle    0x2000daa4            0x4           4   
.bss.UDPSocketDcpt      0x2000daa8            0x4           4   
.bss.nUdpSockets        0x2000daac            0x4           4   
.bss.signalHandle       0x2000dab0            0x4           4   
.bss.udpInitCount       0x2000dab4            0x4           4   
.bss.udpMemH            0x2000dab8            0x4           4   
.bss.userSem            0x2000dabc            0x4           4   
.bss._tcpip_MsecCount   0x2000dac0            0x4           4   
.bss._tcpip_SecCount    0x2000dac4            0x4           4   
.bss.newTcpipErrorEvent 0x2000dac8            0x4           4   
.bss.newTcpipStackEvent 0x2000dacc            0x4           4   
.bss.newTcpipTickAvlbl  0x2000dad0            0x4           4   
.bss.stackAsyncSignalCo 0x2000dad4            0x4           4   
.bss.stackLinkTmo       0x2000dad8            0x4           4   
.bss.stackTaskRate      0x2000dadc            0x4           4   
.bss.tcpipDefIf         0x2000dae0            0x4           4   
.bss.tcpipNetIf         0x2000dae4            0x4           4   
.bss.tcpip_stack_init_c 0x2000dae8            0x4           4   
.bss.totTcpipEventsCnt  0x2000daec            0x4           4   
.bss.icmpEchoTmo        0x2000daf0            0x4           4   
.bss.icmpInitCount      0x2000daf4            0x4           4   
.bss.signalHandle       0x2000daf8            0x4           4   
.bss.ipv4ActFilterCount 0x2000dafc            0x4           4   
.bss.ipv4ArpEntries     0x2000db00            0x4           4   
.bss.ipv4ArpHandle      0x2000db04            0x4           4   
.bss.ipv4MemH           0x2000db08            0x4           4   
.bss.signalHandle       0x2000db0c            0x4           4   
.bss.dnsInitCount       0x2000db10            0x4           4   
.bss.pgDnsDcpt          0x2000db14            0x4           4   
.bss.cmdInitData        0x2000db18            0x4           4   
.bss.printBuffPtr       0x2000db1c            0x4           4   
.bss.consolePrintBuffer 0x2000db20            0x4           4   
.bss.sysDebugInstance   0x2000db24            0x4           4   
.bss.gTickConv          0x2000db28            0x4           4   
.bss.systemAdaptObj     0x2000db2c            0x4           4   
.bss.pRandCtx           0x2000db30            0x4           4   
.bss.randLockCount      0x2000db34            0x4           4   
.bss.randSemaphore      0x2000db38            0x4           4   
.bss.xAPP_Tasks         0x2000db3c            0x4           4   
.bss.xSYS_CMD_Tasks     0x2000db40            0x4           4   
.bss.sysCmdInit         0x2000db44            0x4           4   
.bss.pucAlignedHeap.616 0x2000db48            0x4           4   
.bss.xNextFreeByte      0x2000db4c            0x4           4   
.bss.pxCurrentTCB       0x2000db50            0x4           4   
.bss.pxDelayedTaskList  0x2000db54            0x4           4   
.bss.pxOverflowDelayedT 0x2000db58            0x4           4   
.bss.uxCurrentNumberOfT 0x2000db5c            0x4           4   
.bss.uxDeletedTasksWait 0x2000db60            0x4           4   
.bss.uxSchedulerSuspend 0x2000db64            0x4           4   
.bss.uxTaskNumber       0x2000db68            0x4           4   
.bss.uxTopReadyPriority 0x2000db6c            0x4           4   
.bss.xIdleTaskHandle    0x2000db70            0x4           4   
.bss.xNextTaskUnblockTi 0x2000db74            0x4           4   
.bss.xNumOfOverflows    0x2000db78            0x4           4   
.bss.xPendedTicks       0x2000db7c            0x4           4   
.bss.xSchedulerRunning  0x2000db80            0x4           4   
.bss.xTickCount         0x2000db84            0x4           4   
.bss.xYieldPending      0x2000db88            0x4           4   
.bss                    0x2000db8c            0x4           4  Uninitialized data 
.bss                    0x2000db90            0x4           4  Uninitialized data 
.bss                    0x2000db94            0x4           4  Uninitialized data 
.bss                    0x2000db98            0x4           4  Uninitialized data 
.bss                    0x2000db9c            0x4           4  Uninitialized data 
.bss                    0x2000dba0            0x4           4  Uninitialized data 
.bss.tcpDefRxSize       0x2000dba4            0x2           2   
.bss.tcpDefTxSize       0x2000dba6            0x2           2   
.bss.udpDefTxSize       0x2000dba8            0x2           2   
.bss.ipv4Identifier     0x2000dbaa            0x2           2   
.bss.ipv4InitCount      0x2000dbac            0x2           2   
.bss.ipv4FilterType     0x2000dbae            0x1           1   
.bss.isLastByteTransfer 0x2000dbaf            0x1           1   
.bss.m_tc6Valid.14130   0x2000dbb0            0x1           1   
.bss.error_reported.957 0x2000dbb1            0x1           1   
.bss.isConsoleMutexCrea 0x2000dbb2            0x1           1   
.bss.gblErrLvl          0x2000dbb3            0x1           1   
.data.tcpipHeapConfig   0x2000dbb4           0x10          16   
.data.arpBcastAdd       0x2000dbc4            0x6           6   
.data.gSysTimeTokenCoun 0x2000dbca            0x2           2   
.data.icmpPingSize      0x2000dbcc            0x4           4   
.data.tcpip_stack_tickH 0x2000dbd0            0x4           4   
.data.uxCriticalNesting 0x2000dbd4            0x4           4   
.data.uxTopUsedPriority 0x2000dbd8            0x4           4   
.data.dwLastIP.13632    0x2000dbdc            0x4           4   
.data                   0x2000dbe0            0x4           4  Initialized data 
.data.dnsType           0x2000dbe4            0x1           1   
         Total RAM used  :      0xdbe5       56293  21.5% of 0x40000
        --------------------------------------------------------------------------
            Total Data Memory used  :      0xdbe5       56293  21.5% of 0x40000
        --------------------------------------------------------------------------


Dynamic Data-Memory Reservation
section                    address  length [bytes]      (dec)  Description
-------                 ----------  -------------------------  -----------
heap                    0x2000dbe8         0xafa0       44960  Reserved for heap 
stack                   0x20018ba0        0x27450      160848  Reserved for stack 

        --------------------------------------------------------------------------

Microchip PIC32 Memory-Usage Report By Module

        text        data         bss         dec         hex    basename                     filename
--------------------------------------------------------------------------------
         138           0       40968       41106        a092    heap_1.o                 build/FreeRTOS/production/_ext/1665200909/heap_1.o
       11884           5        2206       14095        370f    tcpip_commands.o         build/FreeRTOS/production/_ext/540595297/tcpip_commands.o
       11424           0        1877       13301        33f5    iperf.o                  build/FreeRTOS/production/_ext/540595297/iperf.o
       11646           0          36       11682        2da2    tcp.o                    build/FreeRTOS/production/_ext/540595297/tcp.o
        5266           0        4497        9763        2623    tc6.o                    build/FreeRTOS/production/_ext/1785105562/tc6.o
        8822           4         897        9723        25fb    tcpip_manager.o          build/FreeRTOS/production/_ext/540595297/tcpip_manager.o
        9228           0         372        9600        2580    drv_lan865x_api.o        build/FreeRTOS/production/_ext/585597058/drv_lan865x_api.o
        6014           0          26        6040        1798    udp.o                    build/FreeRTOS/production/_ext/540595297/udp.o
        4988           0          48        5036        13ac    dns.o                    build/FreeRTOS/production/_ext/540595297/dns.o
        3350           0        1209        4559        11cf    sys_command.o            build/FreeRTOS/production/_ext/1005353002/sys_command.o
        3540           0         140        3680         e60    drv_spi.o                build/FreeRTOS/production/_ext/1348046844/drv_spi.o
        1088           0        2112        3200         c80    plib_sercom1_usart.o     build/FreeRTOS/production/_ext/2092608928/plib_sercom1_usart.o
        2852           4         260        3116         c2c    FreeRTOS_tasks.o         build/FreeRTOS/production/_ext/404212886/FreeRTOS_tasks.o
        2878           6          76        2960         b90    arp.o                    build/FreeRTOS/production/_ext/540595297/arp.o
        2898           0           0        2898         b52    random.o                 build/FreeRTOS/production/_ext/1664057780/random.o
        2732           0          77        2809         af9    ipv4.o                   build/FreeRTOS/production/_ext/540595297/ipv4.o
        2736           0           0        2736         ab0    tcpip_helpers.o          build/FreeRTOS/production/_ext/540595297/tcpip_helpers.o
        2266           0           0        2266         8da    md5.o                    build/FreeRTOS/production/_ext/1664057780/md5.o
        1736           2         224        1962         7aa    sys_time.o               build/FreeRTOS/production/_ext/832704728/sys_time.o
        1886           0           0        1886         75e    sha256.o                 build/FreeRTOS/production/_ext/1664057780/sha256.o
        1424           0           0        1424         590    data_init                data_init
        1200           0         180        1380         564    icmp.o                   build/FreeRTOS/production/_ext/540595297/icmp.o
        1278           0           0        1278         4fe    intscan.o                libc-musl.a
        1232           0           0        1232         4d0    __fmt_fp.o               libc-musl.a
        1224           0           0        1224         4c8    __fmt_a.o                libc-musl.a
        1194           0           0        1194         4aa    queue.o                  build/FreeRTOS/production/_ext/404212886/queue.o
        1038           0           0        1038         40e    __printf_core.o          libc-musl.a
         972           0          45        1017         3f9    plib_sercom0_spi_master.obuild/FreeRTOS/production/_ext/1428073114/plib_sercom0_spi_master.o
         932           0           0         932         3a4    tcpip_heap_internal.o    build/FreeRTOS/production/_ext/540595297/tcpip_heap_internal.o
         772          16         104         892         37c    initialization.o         build/FreeRTOS/production/_ext/161576091/initialization.o
         492           0         217         709         2c5    sys_console.o            build/FreeRTOS/production/_ext/548640822/sys_console.o
         708           0           0         708         2c4    _udivmoddi4.o            libgcc.a
         572           0          96         668         29c    plib_dmac.o              build/FreeRTOS/production/_ext/1495216012/plib_dmac.o
         614           0           0         614         266    interrupts.o             build/FreeRTOS/production/_ext/161576091/interrupts.o
         586           0           4         590         24e    tcpip_packet.o           build/FreeRTOS/production/_ext/540595297/tcpip_packet.o
         574           0           0         574         23e    __aeabi_dadd.o           libm-fast-emfloat.a
         552           4          16         572         23c    app.o                    build/FreeRTOS/production/_ext/1360937237/app.o
         276           0         276         552         228    sys_random_h2_adapter.o  build/FreeRTOS/production/_ext/2072568807/sys_random_h2_adapter.o
         534           0           0         534         216    __aeabi_ddiv.o           libm-fast-emfloat.a
         480           4           0         484         1e4    port.o                   build/FreeRTOS/production/_ext/246609638/port.o
         468           0           0         468         1d4    oahash.o                 build/FreeRTOS/production/_ext/540595297/oahash.o
         454           0          12         466         1d2    sys_console_uart.o       build/FreeRTOS/production/_ext/548640822/sys_console_uart.o
         366           0          96         462         1ce    cryptocb.o               build/FreeRTOS/production/_ext/1664057780/cryptocb.o
         318           0           0         318         13e    osal_freertos.o          build/FreeRTOS/production/_ext/891571577/osal_freertos.o
         304           0           0         304         130    __aeabi_dmul.o           libm-fast-emfloat.a
         292           0           0         292         124    __fmt_x.o                libc-musl.a
         256           0           8         264         108    plib_tc0.o               build/FreeRTOS/production/_ext/579449528/plib_tc0.o
         252           0           0         252          fc    plib_clock.o             build/FreeRTOS/production/_ext/892004133/plib_clock.o
         224           0           4         228          e4    lite_free.o              liblmalloc-musl.a
         224           0           0         224          e0    plib_nvic.o              build/FreeRTOS/production/_ext/1494909205/plib_nvic.o
         204           0           8         212          d4    tasks.o                  build/FreeRTOS/production/_ext/161576091/tasks.o
         204           0           0         204          cc    floor.o                  libm-fast-emfloat.a
         164           0           8         172          ac    sys_time_h2_adapter.o    build/FreeRTOS/production/_ext/2072568807/sys_time_h2_adapter.o
         172           0           0         172          ac    __pop_int.o              libc-musl.a
         168           0           0         168          a8    __fmt_d.o                libc-musl.a
         138           0           0         138          8a    startup_xc32.o           build/FreeRTOS/production/_ext/161576091/startup_xc32.o
         124           0          12         136          88    sbrk.o                   libpic32c.a
         128           0           0         128          80    strspn.o                 libc-size-musl.a
         124           0           0         124          7c    __pop_ptr.o              libc-musl.a
         124           0           0         124          7c    tcpip_notify.o           build/FreeRTOS/production/_ext/540595297/tcpip_notify.o
         120           0           0         120          78    plib_port.o              build/FreeRTOS/production/_ext/1494856054/plib_port.o
         120           0           0         120          78    strcspn.o                libc-size-musl.a
         120           0           0         120          78    __cvt_u.o                libc-musl.a
         116           0           0         116          74    list.o                   build/FreeRTOS/production/_ext/404212886/list.o
         116           0           0         116          74    sys_int.o                build/FreeRTOS/production/_ext/1690414130/sys_int.o
         114           0           0         114          72    __fmt_o.o                libc-musl.a
         112           0           0         112          70    shgetc.o                 libc-musl.a
         106           0           0         106          6a    crypto.o                 build/FreeRTOS/production/_ext/1609394304/crypto.o
         102           0           0         102          66    strtol.o                 libc-musl.a
          96           4           0         100          64    lite_malloc.o            liblmalloc-musl.a
          72           0          28         100          64    crtbegin.o               c:/program files/microchip/xc32/v4.45/bin/bin/../../lib/gcc/pic32c/8.3.1/thumb/v7e-m+fp/hard/crtbegin.o
          96           0           0          96          60    vsnprintf.o              libc-musl.a
          96           0           0          96          60    strchrnul.o              libc-size-musl.a
          95           0           0          95          5f    __fmt_s.o                libc-musl.a
          94           0           0          94          5e    __libc_start_main.o      libc-musl.a
          86           0           0          86          56    helpers.o                build/FreeRTOS/production/_ext/540595297/helpers.o
          86           0           0          86          56    __fmt_u.o                libc-musl.a
          84           0           0          84          54    stpncpy.o                libc-size-musl.a
           0           0          80          80          50    libc.o                   libc-musl.a
          76           0           4          80          50    data_init.o              libpic32c.a
          72           0           4          76          4c    strtok.o                 libc-size-musl.a
          74           0           0          74          4a    __aeabi_d2iz.o           libm-fast-emfloat.a
          74           0           0          74          4a    __toread.o               libc-musl.a
          70           0           0          70          46    atoi.o                   libc-musl.a
          60           0           0          60          3c    __aeabi_dcmple.o         libm-fast-emfloat.a
          52           0           5          57          39    sys_debug.o              build/FreeRTOS/production/_ext/147610190/sys_debug.o
          56           0           0          56          38    __aeabi_dcmpgt.o         libm-fast-emfloat.a
          56           0           0          56          38    __aeabi_dcmplt.o         libm-fast-emfloat.a
          54           0           0          54          36    tcpip_heap_alloc.o       build/FreeRTOS/production/_ext/540595297/tcpip_heap_alloc.o
          52           0           0          52          34    sys_dma.o                build/FreeRTOS/production/_ext/50312702/sys_dma.o
          50           0           0          50          32    __aeabi_dcmpeq.o         libm-fast-emfloat.a
          48           0           0          48          30    _aeabi_uldivmod.o        libgcc.a
          48           0           0          48          30    hash_fnv.o               build/FreeRTOS/production/_ext/540595297/hash_fnv.o
          44           0           0          44          2c    fma.o                    libm-fast-emfloat.a
          42           0           0          42          2a    __pop_float.o            libc-musl.a
          40           0           0          40          28    __uflow.o                libc-musl.a
          40           0           0          40          28    strncmp.o                libc-size-musl.a
          36           0           4          40          28    rand.o                   libc-musl.a
          36           0           0          36          24    sys_reset.o              build/FreeRTOS/production/_ext/1093154855/sys_reset.o
          36           0           0          36          24    __aeabi_d2uiz.o          libm-fast-emfloat.a
          36           0           0          36          24    freertos_hooks.o         build/FreeRTOS/production/_ext/161576091/freertos_hooks.o
          34           0           0          34          22    __aeabi_i2d.o            libm-fast-emfloat.a
          30           0           0          30          1e    pic32_data_init_copy.o   libpic32c.a
          28           0           0          28          1c    vfprintf.o               libc-musl.a
          28           0           0          28          1c    memrchr.o                libc-size-musl.a
          28           0           0          28          1c    __aeabi_ui2d.o           libm-fast-emfloat.a
          28           0           0          28          1c    isxdigit.o               libc-musl.a
          28           0           0          28          1c    memcpy.o                 libc-size-musl.a
          28           0           0          28          1c    memcmp.o                 libc-size-musl.a
          26           0           0          26          1a    sprintf.o                libc-musl.a
          26           0           0          26          1a    snprintf.o               libc-musl.a
          26           0           0          26          1a    crypt_wolfcryptcb.o      build/FreeRTOS/production/_ext/172253694/crypt_wolfcryptcb.o
          24           0           0          24          18    strlen.o                 libc-size-musl.a
          24           0           0          24          18    strrchr.o                libc-size-musl.a
          22           0           0          22          16    strcmp.o                 libc-size-musl.a
          22           0           0          22          16    expand_heap.o            libc-musl.a
          20           0           0          20          14    strchr.o                 libc-size-musl.a
          20           0           0          20          14    stpcpy.o                 libc-size-musl.a
          20           0           0          20          14    memset.o                 libc-size-musl.a
          18           0           0          18          12    pic32_data_init_clear.o  libpic32c.a
          16           0           0          16          10    plib_nvmctrl.o           build/FreeRTOS/production/_ext/320424729/plib_nvmctrl.o
          16           0           0          16          10    crtn.o                   c:/program files/microchip/xc32/v4.45/bin/bin/../../lib/gcc/pic32c/8.3.1/thumb/v7e-m+fp/hard/crtn.o
          14           0           0          14           e    main.o                   build/FreeRTOS/production/_ext/1360937237/main.o
          14           0           0          14           e    tolower.o                libc-musl.a
          14           0           0          14           e    toupper.o                libc-musl.a
          12           0           0          12           c    strcpy.o                 libc-size-musl.a
          12           0           0          12           c    vsprintf.o               libc-musl.a
          12           0           0          12           c    strncpy.o                libc-size-musl.a
          12           0           0          12           c    exceptions.o             build/FreeRTOS/production/_ext/161576091/exceptions.o
           8           0           0           8           8    crti.o                   c:/program files/microchip/xc32/v4.45/bin/bin/../../lib/gcc/pic32c/8.3.1/thumb/v7e-m+fp/hard/crti.o
           8           0           0           8           8    __aeabi_dsub.o           libm-fast-emfloat.a
           0           0           4           4           4    __environ.o              libc-musl.a
           4           0           0           4           4    _dvmd_tls.o              libgcc.a
           0           0           4           4           4    __errno_location.o       libc-musl.a
           2           0           0           2           2    plib_evsys.o             build/FreeRTOS/production/_ext/894153619/plib_evsys.o
--------------------------------------------------------------------------------
      122341          49       56244      178634       2b9ca    dist/FreeRTOS/production/tcpip_iperf_10base_t1s_freertos.X.production.elf


Discarded input sections

 .text          0x0000000000000000        0x0 c:/program files/microchip/xc32/v4.45/bin/bin/../../lib/gcc/pic32c/8.3.1/thumb/v7e-m+fp/hard/crti.o
 .data          0x0000000000000000        0x0 c:/program files/microchip/xc32/v4.45/bin/bin/../../lib/gcc/pic32c/8.3.1/thumb/v7e-m+fp/hard/crti.o
 .bss           0x0000000000000000        0x0 c:/program files/microchip/xc32/v4.45/bin/bin/../../lib/gcc/pic32c/8.3.1/thumb/v7e-m+fp/hard/crti.o
 .xc_stack_usage.hdr
                0x0000000000000000        0xe c:/program files/microchip/xc32/v4.45/bin/bin/../../lib/gcc/pic32c/8.3.1/thumb/v7e-m+fp/hard/crti.o
 .xc_stack_usage
                0x0000000000000000       0x26 c:/program files/microchip/xc32/v4.45/bin/bin/../../lib/gcc/pic32c/8.3.1/thumb/v7e-m+fp/hard/crti.o
 .data          0x0000000000000000        0x4 c:/program files/microchip/xc32/v4.45/bin/bin/../../lib/gcc/pic32c/8.3.1/thumb/v7e-m+fp/hard/crtbegin.o
 .xc_stack_usage
                0x0000000000000000       0x3c c:/program files/microchip/xc32/v4.45/bin/bin/../../lib/gcc/pic32c/8.3.1/thumb/v7e-m+fp/hard/crtbegin.o
 .xc_stack_usage.hdr
                0x0000000000000000        0xe c:/program files/microchip/xc32/v4.45/bin/bin/../../lib/gcc/pic32c/8.3.1/thumb/v7e-m+fp/hard/crtbegin.o
 .text          0x0000000000000000        0x0 build/FreeRTOS/production/_ext/1609394304/crypto.o
 .data          0x0000000000000000        0x0 build/FreeRTOS/production/_ext/1609394304/crypto.o
 .bss           0x0000000000000000        0x0 build/FreeRTOS/production/_ext/1609394304/crypto.o
 .text.CRYPT_MD5_DataSizeSet
                0x0000000000000000        0xc build/FreeRTOS/production/_ext/1609394304/crypto.o
 .text.CRYPT_SHA_Initialize
                0x0000000000000000       0x10 build/FreeRTOS/production/_ext/1609394304/crypto.o
 .text.CRYPT_SHA_DataSizeSet
                0x0000000000000000        0xc build/FreeRTOS/production/_ext/1609394304/crypto.o
 .text.CRYPT_SHA_DataAdd
                0x0000000000000000       0x18 build/FreeRTOS/production/_ext/1609394304/crypto.o
 .text.CRYPT_SHA_Finalize
                0x0000000000000000       0x18 build/FreeRTOS/production/_ext/1609394304/crypto.o
 .text.CRYPT_SHA256_Initialize
                0x0000000000000000       0x10 build/FreeRTOS/production/_ext/1609394304/crypto.o
 .text.CRYPT_SHA256_DataSizeSet
                0x0000000000000000        0xc build/FreeRTOS/production/_ext/1609394304/crypto.o
 .text.CRYPT_SHA256_DataAdd
                0x0000000000000000       0x18 build/FreeRTOS/production/_ext/1609394304/crypto.o
 .text.CRYPT_SHA256_Finalize
                0x0000000000000000       0x18 build/FreeRTOS/production/_ext/1609394304/crypto.o
 .text.CRYPT_SHA224_Initialize
                0x0000000000000000       0x10 build/FreeRTOS/production/_ext/1609394304/crypto.o
 .text.CRYPT_SHA224_DataAdd
                0x0000000000000000       0x18 build/FreeRTOS/production/_ext/1609394304/crypto.o
 .text.CRYPT_SHA224_Finalize
                0x0000000000000000       0x18 build/FreeRTOS/production/_ext/1609394304/crypto.o
 .text.CRYPT_HMAC_SetKey
                0x0000000000000000       0x48 build/FreeRTOS/production/_ext/1609394304/crypto.o
 .text.CRYPT_HMAC_DataAdd
                0x0000000000000000       0x18 build/FreeRTOS/production/_ext/1609394304/crypto.o
 .text.CRYPT_HMAC_Finalize
                0x0000000000000000       0x18 build/FreeRTOS/production/_ext/1609394304/crypto.o
 .text.CRYPT_RNG_Deinitialize
                0x0000000000000000       0x12 build/FreeRTOS/production/_ext/1609394304/crypto.o
 .text.CRYPT_RNG_Get
                0x0000000000000000       0x18 build/FreeRTOS/production/_ext/1609394304/crypto.o
 .text.CRYPT_TDES_KeySet
                0x0000000000000000       0x18 build/FreeRTOS/production/_ext/1609394304/crypto.o
 .text.CRYPT_TDES_IvSet
                0x0000000000000000       0x18 build/FreeRTOS/production/_ext/1609394304/crypto.o
 .text.CRYPT_TDES_CBC_Encrypt
                0x0000000000000000       0x20 build/FreeRTOS/production/_ext/1609394304/crypto.o
 .text.CRYPT_TDES_CBC_Decrypt
                0x0000000000000000       0x20 build/FreeRTOS/production/_ext/1609394304/crypto.o
 .text.CRYPT_AES_KeySet
                0x0000000000000000       0x20 build/FreeRTOS/production/_ext/1609394304/crypto.o
 .text.CRYPT_AES_IvSet
                0x0000000000000000       0x18 build/FreeRTOS/production/_ext/1609394304/crypto.o
 .text.CRYPT_AES_CBC_Encrypt
                0x0000000000000000       0x20 build/FreeRTOS/production/_ext/1609394304/crypto.o
 .text.CRYPT_AES_CBC_Decrypt
                0x0000000000000000       0x20 build/FreeRTOS/production/_ext/1609394304/crypto.o
 .text.CRYPT_AES_CTR_Encrypt
                0x0000000000000000       0x20 build/FreeRTOS/production/_ext/1609394304/crypto.o
 .text.CRYPT_AES_GCM_SetKey
                0x0000000000000000       0x18 build/FreeRTOS/production/_ext/1609394304/crypto.o
 .text.CRYPT_AES_GCM_Encrypt
                0x0000000000000000       0x34 build/FreeRTOS/production/_ext/1609394304/crypto.o
 .text.CRYPT_AES_GCM_Decrypt
                0x0000000000000000       0x2c build/FreeRTOS/production/_ext/1609394304/crypto.o
 .text.CRYPT_AES_DIRECT_Encrypt
                0x0000000000000000       0x12 build/FreeRTOS/production/_ext/1609394304/crypto.o
 .text.CRYPT_AES_DIRECT_Decrypt
                0x0000000000000000       0x22 build/FreeRTOS/production/_ext/1609394304/crypto.o
 .text.CRYPT_RSA_Initialize
                0x0000000000000000       0x28 build/FreeRTOS/production/_ext/1609394304/crypto.o
 .text.CRYPT_RSA_Free
                0x0000000000000000       0x20 build/FreeRTOS/production/_ext/1609394304/crypto.o
 .text.CRYPT_RSA_PublicKeyDecode
                0x0000000000000000       0x2a build/FreeRTOS/production/_ext/1609394304/crypto.o
 .text.CRYPT_RSA_PrivateKeyDecode
                0x0000000000000000       0x2a build/FreeRTOS/production/_ext/1609394304/crypto.o
 .text.CRYPT_RSA_PublicEncrypt
                0x0000000000000000       0x3e build/FreeRTOS/production/_ext/1609394304/crypto.o
 .text.CRYPT_RSA_PrivateDecrypt
                0x0000000000000000       0x32 build/FreeRTOS/production/_ext/1609394304/crypto.o
 .text.CRYPT_RSA_EncryptSizeGet
                0x0000000000000000       0x12 build/FreeRTOS/production/_ext/1609394304/crypto.o
 .text.CRYPT_ECC_Initialize
                0x0000000000000000       0x24 build/FreeRTOS/production/_ext/1609394304/crypto.o
 .text.CRYPT_ECC_Free
                0x0000000000000000       0x20 build/FreeRTOS/production/_ext/1609394304/crypto.o
 .text.CRYPT_ECC_PublicExport
                0x0000000000000000       0x28 build/FreeRTOS/production/_ext/1609394304/crypto.o
 .text.CRYPT_ECC_PublicImport
                0x0000000000000000       0x22 build/FreeRTOS/production/_ext/1609394304/crypto.o
 .text.CRYPT_ECC_PrivateImport
                0x0000000000000000       0x36 build/FreeRTOS/production/_ext/1609394304/crypto.o
 .text.CRYPT_ECC_DHE_KeyMake
                0x0000000000000000       0x22 build/FreeRTOS/production/_ext/1609394304/crypto.o
 .text.CRYPT_ECC_DHE_SharedSecretMake
                0x0000000000000000       0x3a build/FreeRTOS/production/_ext/1609394304/crypto.o
 .text.CRYPT_ECC_DSA_HashSign
                0x0000000000000000       0x4a build/FreeRTOS/production/_ext/1609394304/crypto.o
 .text.CRYPT_ECC_DSA_HashVerify
                0x0000000000000000       0x42 build/FreeRTOS/production/_ext/1609394304/crypto.o
 .text.CRYPT_ECC_KeySizeGet
                0x0000000000000000       0x12 build/FreeRTOS/production/_ext/1609394304/crypto.o
 .text.CRYPT_ECC_SignatureSizeGet
                0x0000000000000000       0x12 build/FreeRTOS/production/_ext/1609394304/crypto.o
 .text.CRYPT_ERROR_StringGet
                0x0000000000000000       0x1c build/FreeRTOS/production/_ext/1609394304/crypto.o
 .rodata.CRYPT_ERROR_StringGet.str1.4
                0x0000000000000000       0x28 build/FreeRTOS/production/_ext/1609394304/crypto.o
 .text          0x0000000000000000        0x0 build/FreeRTOS/production/_ext/1785105562/tc6.o
 .data          0x0000000000000000        0x0 build/FreeRTOS/production/_ext/1785105562/tc6.o
 .bss           0x0000000000000000        0x0 build/FreeRTOS/production/_ext/1785105562/tc6.o
 .text.TC6_Reset
                0x0000000000000000       0x18 build/FreeRTOS/production/_ext/1785105562/tc6.o
 .text.TC6_GetState
                0x0000000000000000       0x40 build/FreeRTOS/production/_ext/1785105562/tc6.o
 .text.TC6_SendRawEthernetPacket
                0x0000000000000000       0x88 build/FreeRTOS/production/_ext/1785105562/tc6.o
 .text.TC6_ReadModifyWriteRegister
                0x0000000000000000       0x22 build/FreeRTOS/production/_ext/1785105562/tc6.o
 .text          0x0000000000000000        0x0 build/FreeRTOS/production/_ext/585597058/drv_lan865x_api.o
 .data          0x0000000000000000        0x0 build/FreeRTOS/production/_ext/585597058/drv_lan865x_api.o
 .bss           0x0000000000000000        0x0 build/FreeRTOS/production/_ext/585597058/drv_lan865x_api.o
 .text.DRV_LAN865X_ReadRegister
                0x0000000000000000       0x3c build/FreeRTOS/production/_ext/585597058/drv_lan865x_api.o
 .text.DRV_LAN865X_WriteRegister
                0x0000000000000000       0x40 build/FreeRTOS/production/_ext/585597058/drv_lan865x_api.o
 .text.DRV_LAN865X_ReadModifyWriteRegister
                0x0000000000000000       0x44 build/FreeRTOS/production/_ext/585597058/drv_lan865x_api.o
 .text          0x0000000000000000        0x0 build/FreeRTOS/production/_ext/1348046844/drv_spi.o
 .data          0x0000000000000000        0x0 build/FreeRTOS/production/_ext/1348046844/drv_spi.o
 .bss           0x0000000000000000        0x0 build/FreeRTOS/production/_ext/1348046844/drv_spi.o
 .text.DRV_SPI_Status
                0x0000000000000000       0x2c build/FreeRTOS/production/_ext/1348046844/drv_spi.o
 .text.DRV_SPI_WriteTransferAdd
                0x0000000000000000       0x14 build/FreeRTOS/production/_ext/1348046844/drv_spi.o
 .text.DRV_SPI_ReadTransferAdd
                0x0000000000000000       0x18 build/FreeRTOS/production/_ext/1348046844/drv_spi.o
 .text.DRV_SPI_TransferStatusGet
                0x0000000000000000       0x70 build/FreeRTOS/production/_ext/1348046844/drv_spi.o
 .text.DRV_SPI_Lock
                0x0000000000000000       0xe0 build/FreeRTOS/production/_ext/1348046844/drv_spi.o
 .rodata.DRV_SPI_Status.str1.4
                0x0000000000000000       0x20 build/FreeRTOS/production/_ext/1348046844/drv_spi.o
 .rodata.DRV_SPI_TransferStatusGet.str1.4
                0x0000000000000000       0x18 build/FreeRTOS/production/_ext/1348046844/drv_spi.o
 .text          0x0000000000000000        0x0 build/FreeRTOS/production/_ext/540595297/helpers.o
 .data          0x0000000000000000        0x0 build/FreeRTOS/production/_ext/540595297/helpers.o
 .bss           0x0000000000000000        0x0 build/FreeRTOS/production/_ext/540595297/helpers.o
 .text.uitoa    0x0000000000000000       0x5c build/FreeRTOS/production/_ext/540595297/helpers.o
 .text.strncpy_m
                0x0000000000000000       0x6e build/FreeRTOS/production/_ext/540595297/helpers.o
 .text.stricmp  0x0000000000000000       0x38 build/FreeRTOS/production/_ext/540595297/helpers.o
 .text          0x0000000000000000        0x0 build/FreeRTOS/production/_ext/540595297/tcpip_commands.o
 .data          0x0000000000000000        0x0 build/FreeRTOS/production/_ext/540595297/tcpip_commands.o
 .bss           0x0000000000000000        0x0 build/FreeRTOS/production/_ext/540595297/tcpip_commands.o
 .text          0x0000000000000000        0x0 build/FreeRTOS/production/_ext/540595297/tcpip_packet.o
 .data          0x0000000000000000        0x0 build/FreeRTOS/production/_ext/540595297/tcpip_packet.o
 .bss           0x0000000000000000        0x0 build/FreeRTOS/production/_ext/540595297/tcpip_packet.o
 .text.TCPIP_PKT_SegmentAppend
                0x0000000000000000       0x14 build/FreeRTOS/production/_ext/540595297/tcpip_packet.o
 .text._TCPIP_PKT_SegmentAlloc
                0x0000000000000000       0x4c build/FreeRTOS/production/_ext/540595297/tcpip_packet.o
 .text._TCPIP_PKT_SegmentFree
                0x0000000000000000       0x1c build/FreeRTOS/production/_ext/540595297/tcpip_packet.o
 .text          0x0000000000000000        0x0 build/FreeRTOS/production/_ext/540595297/tcpip_helpers.o
 .data          0x0000000000000000        0x0 build/FreeRTOS/production/_ext/540595297/tcpip_helpers.o
 .bss           0x0000000000000000        0x0 build/FreeRTOS/production/_ext/540595297/tcpip_helpers.o
 .text._TCPIP_Helper_SecurePortEntry
                0x0000000000000000       0x38 build/FreeRTOS/production/_ext/540595297/tcpip_helpers.o
 .text.TCPIP_Helper_IsPrivateAddress
                0x0000000000000000       0x2c build/FreeRTOS/production/_ext/540595297/tcpip_helpers.o
 .text.TCPIP_Helper_PowerModeToString
                0x0000000000000000       0x14 build/FreeRTOS/production/_ext/540595297/tcpip_helpers.o
 .text.TCPIP_Helper_Base64Decode
                0x0000000000000000       0xe8 build/FreeRTOS/production/_ext/540595297/tcpip_helpers.o
 .text.TCPIP_Helper_Base64Encode
                0x0000000000000000      0x114 build/FreeRTOS/production/_ext/540595297/tcpip_helpers.o
 .text.TCPIP_Helper_FindCommonPrefix
                0x0000000000000000       0x52 build/FreeRTOS/production/_ext/540595297/tcpip_helpers.o
 .text.TCPIP_Helper_SingleListHeadAdd
                0x0000000000000000       0x16 build/FreeRTOS/production/_ext/540595297/tcpip_helpers.o
 .text.TCPIP_Helper_SingleListMidAdd
                0x0000000000000000        0xe build/FreeRTOS/production/_ext/540595297/tcpip_helpers.o
 .text.TCPIP_Helper_SingleListFind
                0x0000000000000000       0x20 build/FreeRTOS/production/_ext/540595297/tcpip_helpers.o
 .text.TCPIP_Helper_ProtectedSingleListHeadAdd
                0x0000000000000000       0x2a build/FreeRTOS/production/_ext/540595297/tcpip_helpers.o
 .text.TCPIP_Helper_ProtectedSingleListMidAdd
                0x0000000000000000       0x30 build/FreeRTOS/production/_ext/540595297/tcpip_helpers.o
 .text.TCPIP_Helper_ProtectedSingleListNextRemove
                0x0000000000000000       0x30 build/FreeRTOS/production/_ext/540595297/tcpip_helpers.o
 .text.TCPIP_Helper_ProtectedSingleListAppend
                0x0000000000000000       0x2a build/FreeRTOS/production/_ext/540595297/tcpip_helpers.o
 .text.TCPIP_Helper_DoubleListInitialize
                0x0000000000000000        0xa build/FreeRTOS/production/_ext/540595297/tcpip_helpers.o
 .text.TCPIP_Helper_DoubleListHeadAdd
                0x0000000000000000       0x22 build/FreeRTOS/production/_ext/540595297/tcpip_helpers.o
 .text.TCPIP_Helper_DoubleListTailAdd
                0x0000000000000000       0x22 build/FreeRTOS/production/_ext/540595297/tcpip_helpers.o
 .text.TCPIP_Helper_DoubleListMidAdd
                0x0000000000000000       0x14 build/FreeRTOS/production/_ext/540595297/tcpip_helpers.o
 .text.TCPIP_Helper_DoubleListHeadRemove
                0x0000000000000000       0x24 build/FreeRTOS/production/_ext/540595297/tcpip_helpers.o
 .text.TCPIP_Helper_DoubleListTailRemove
                0x0000000000000000       0x24 build/FreeRTOS/production/_ext/540595297/tcpip_helpers.o
 .text.TCPIP_Helper_DoubleListMidRemove
                0x0000000000000000       0x12 build/FreeRTOS/production/_ext/540595297/tcpip_helpers.o
 .text.TCPIP_Helper_DoubleListNodeRemove
                0x0000000000000000       0x20 build/FreeRTOS/production/_ext/540595297/tcpip_helpers.o
 .text.TCPIP_Helper_DoubleListFind
                0x0000000000000000       0x20 build/FreeRTOS/production/_ext/540595297/tcpip_helpers.o
 .text.TCPIP_Helper_ProtectedDoubleListInitialize
                0x0000000000000000       0x22 build/FreeRTOS/production/_ext/540595297/tcpip_helpers.o
 .text.TCPIP_Helper_ProtectedDoubleListDeinitialize
                0x0000000000000000       0x30 build/FreeRTOS/production/_ext/540595297/tcpip_helpers.o
 .text.TCPIP_Helper_ProtectedDoubleListHeadAdd
                0x0000000000000000       0x2a build/FreeRTOS/production/_ext/540595297/tcpip_helpers.o
 .text.TCPIP_Helper_ProtectedDoubleListTailAdd
                0x0000000000000000       0x2a build/FreeRTOS/production/_ext/540595297/tcpip_helpers.o
 .text.TCPIP_Helper_ProtectedDoubleListMidAdd
                0x0000000000000000       0x2e build/FreeRTOS/production/_ext/540595297/tcpip_helpers.o
 .text.TCPIP_Helper_ProtectedDoubleListHeadRemove
                0x0000000000000000       0x2c build/FreeRTOS/production/_ext/540595297/tcpip_helpers.o
 .text.TCPIP_Helper_ProtectedDoubleListTailRemove
                0x0000000000000000       0x2c build/FreeRTOS/production/_ext/540595297/tcpip_helpers.o
 .text.TCPIP_Helper_ProtectedDoubleListMidRemove
                0x0000000000000000       0x2a build/FreeRTOS/production/_ext/540595297/tcpip_helpers.o
 .text.TCPIP_Helper_ProtectedDoubleListNodeRemove
                0x0000000000000000       0x2a build/FreeRTOS/production/_ext/540595297/tcpip_helpers.o
 .text.TCPIP_Helper_ProtectedDoubleListRemoveAll
                0x0000000000000000       0x2a build/FreeRTOS/production/_ext/540595297/tcpip_helpers.o
 .text.TCPIP_Helper_ProtectedDoubleListLock
                0x0000000000000000       0x14 build/FreeRTOS/production/_ext/540595297/tcpip_helpers.o
 .text.TCPIP_Helper_ProtectedDoubleListUnlock
                0x0000000000000000       0x10 build/FreeRTOS/production/_ext/540595297/tcpip_helpers.o
 .text.TCPIP_Helper_TCPSecurePortGet
                0x0000000000000000       0x16 build/FreeRTOS/production/_ext/540595297/tcpip_helpers.o
 .text.TCPIP_Helper_UDPSecurePortGet
                0x0000000000000000       0x16 build/FreeRTOS/production/_ext/540595297/tcpip_helpers.o
 .text.TCPIP_Helper_SecurePortGetByIndex
                0x0000000000000000       0x34 build/FreeRTOS/production/_ext/540595297/tcpip_helpers.o
 .text.TCPIP_Helper_SecurePortSet
                0x0000000000000000       0x5e build/FreeRTOS/production/_ext/540595297/tcpip_helpers.o
 .data.tcpSecurePortTbl
                0x0000000000000000       0x28 build/FreeRTOS/production/_ext/540595297/tcpip_helpers.o
 .text          0x0000000000000000        0x0 build/FreeRTOS/production/_ext/540595297/tcpip_heap_internal.o
 .data          0x0000000000000000        0x0 build/FreeRTOS/production/_ext/540595297/tcpip_heap_internal.o
 .bss           0x0000000000000000        0x0 build/FreeRTOS/production/_ext/540595297/tcpip_heap_internal.o
 .text          0x0000000000000000        0x0 build/FreeRTOS/production/_ext/540595297/tcpip_notify.o
 .data          0x0000000000000000        0x0 build/FreeRTOS/production/_ext/540595297/tcpip_notify.o
 .bss           0x0000000000000000        0x0 build/FreeRTOS/production/_ext/540595297/tcpip_notify.o
 .text.TCPIP_Notification_CbackRemove
                0x0000000000000000       0x46 build/FreeRTOS/production/_ext/540595297/tcpip_notify.o
 .text          0x0000000000000000        0x0 build/FreeRTOS/production/_ext/540595297/iperf.o
 .data          0x0000000000000000        0x0 build/FreeRTOS/production/_ext/540595297/iperf.o
 .bss           0x0000000000000000        0x0 build/FreeRTOS/production/_ext/540595297/iperf.o
 .text          0x0000000000000000        0x0 build/FreeRTOS/production/_ext/540595297/tcp.o
 .data          0x0000000000000000        0x0 build/FreeRTOS/production/_ext/540595297/tcp.o
 .bss           0x0000000000000000        0x0 build/FreeRTOS/production/_ext/540595297/tcp.o
 .text.TCPIP_TCP_SocketTraceSet
                0x0000000000000000        0x4 build/FreeRTOS/production/_ext/540595297/tcp.o
 .text.TCPIP_TCP_Disconnect
                0x0000000000000000       0x1a build/FreeRTOS/production/_ext/540595297/tcp.o
 .text.TCPIP_TCP_Abort
                0x0000000000000000       0x14 build/FreeRTOS/production/_ext/540595297/tcp.o
 .text.TCPIP_TCP_SocketFlagsGet
                0x0000000000000000       0x12 build/FreeRTOS/production/_ext/540595297/tcp.o
 .text.TCPIP_TCP_SocketsNumberGet
                0x0000000000000000        0xc build/FreeRTOS/production/_ext/540595297/tcp.o
 .text.TCPIP_TCP_Put
                0x0000000000000000       0x18 build/FreeRTOS/production/_ext/540595297/tcp.o
 .text.TCPIP_TCP_StringPut
                0x0000000000000000       0x1a build/FreeRTOS/production/_ext/540595297/tcp.o
 .text.TCPIP_TCP_FifoTxFreeGet
                0x0000000000000000       0x26 build/FreeRTOS/production/_ext/540595297/tcp.o
 .text.TCPIP_TCP_Get
                0x0000000000000000        0xa build/FreeRTOS/production/_ext/540595297/tcp.o
 .text.TCPIP_TCP_FifoRxFreeGet
                0x0000000000000000       0x1e build/FreeRTOS/production/_ext/540595297/tcp.o
 .text.TCPIP_TCP_ArrayPeek
                0x0000000000000000       0x66 build/FreeRTOS/production/_ext/540595297/tcp.o
 .text.TCPIP_TCP_Peek
                0x0000000000000000       0x20 build/FreeRTOS/production/_ext/540595297/tcp.o
 .text.TCPIP_TCP_ArrayFind
                0x0000000000000000      0x21a build/FreeRTOS/production/_ext/540595297/tcp.o
 .text.TCPIP_TCP_Find
                0x0000000000000000       0x22 build/FreeRTOS/production/_ext/540595297/tcp.o
 .text.TCPIP_TCP_SocketNetSet
                0x0000000000000000       0x28 build/FreeRTOS/production/_ext/540595297/tcp.o
 .text.TCPIP_TCP_OptionsGet
                0x0000000000000000       0xc4 build/FreeRTOS/production/_ext/540595297/tcp.o
 .text.TCPIP_TCP_SourceIPAddressSet
                0x0000000000000000       0x32 build/FreeRTOS/production/_ext/540595297/tcp.o
 .text.TCPIP_TCP_SignalHandlerDeregister
                0x0000000000000000       0x3a build/FreeRTOS/production/_ext/540595297/tcp.o
 .text.TCPIP_TCP_IsReady
                0x0000000000000000        0x4 build/FreeRTOS/production/_ext/540595297/tcp.o
 .text          0x0000000000000000        0x0 build/FreeRTOS/production/_ext/540595297/udp.o
 .data          0x0000000000000000        0x0 build/FreeRTOS/production/_ext/540595297/udp.o
 .bss           0x0000000000000000        0x0 build/FreeRTOS/production/_ext/540595297/udp.o
 .text.TCPIP_UDP_BcastIPV4AddressSet
                0x0000000000000000       0x5c build/FreeRTOS/production/_ext/540595297/udp.o
 .text.TCPIP_UDP_IsConnected
                0x0000000000000000       0x2e build/FreeRTOS/production/_ext/540595297/udp.o
 .text.TCPIP_UDP_Put
                0x0000000000000000       0x18 build/FreeRTOS/production/_ext/540595297/udp.o
 .text.TCPIP_UDP_StringPut
                0x0000000000000000       0x2a build/FreeRTOS/production/_ext/540595297/udp.o
 .text.TCPIP_UDP_TxCountGet
                0x0000000000000000       0x22 build/FreeRTOS/production/_ext/540595297/udp.o
 .text.TCPIP_UDP_RxOffsetSet
                0x0000000000000000       0x34 build/FreeRTOS/production/_ext/540595297/udp.o
 .text.TCPIP_UDP_Get
                0x0000000000000000        0xa build/FreeRTOS/production/_ext/540595297/udp.o
 .text.TCPIP_UDP_SourceIPAddressSet
                0x0000000000000000       0x44 build/FreeRTOS/production/_ext/540595297/udp.o
 .text.TCPIP_UDP_OptionsGet
                0x0000000000000000      0x15c build/FreeRTOS/production/_ext/540595297/udp.o
 .text.TCPIP_UDP_RemoteBind
                0x0000000000000000       0xca build/FreeRTOS/production/_ext/540595297/udp.o
 .text.TCPIP_UDP_SetSplitPayload
                0x0000000000000000       0x58 build/FreeRTOS/production/_ext/540595297/udp.o
 .text.TCPIP_UDP_SignalHandlerDeregister
                0x0000000000000000       0x3a build/FreeRTOS/production/_ext/540595297/udp.o
 .text.TCPIP_UDP_SocketsNumberGet
                0x0000000000000000        0xc build/FreeRTOS/production/_ext/540595297/udp.o
 .text          0x0000000000000000        0x0 build/FreeRTOS/production/_ext/540595297/tcpip_manager.o
 .data          0x0000000000000000        0x0 build/FreeRTOS/production/_ext/540595297/tcpip_manager.o
 .bss           0x0000000000000000        0x0 build/FreeRTOS/production/_ext/540595297/tcpip_manager.o
 .text._NetConfigStringToBuffer
                0x0000000000000000       0x52 build/FreeRTOS/production/_ext/540595297/tcpip_manager.o
 .text.TCPIP_STACK_NetMulticastGet
                0x0000000000000000        0x4 build/FreeRTOS/production/_ext/540595297/tcpip_manager.o
 .text.TCPIP_STACK_NetMulticastSet
                0x0000000000000000        0x4 build/FreeRTOS/production/_ext/540595297/tcpip_manager.o
 .text.TCPIP_STACK_MacToNet
                0x0000000000000000       0x3c build/FreeRTOS/production/_ext/540595297/tcpip_manager.o
 .text.TCPIP_STACK_MacToNetIndex
                0x0000000000000000       0x44 build/FreeRTOS/production/_ext/540595297/tcpip_manager.o
 .text.TCPIP_Stack_UserHandleToNet
                0x0000000000000000       0x3c build/FreeRTOS/production/_ext/540595297/tcpip_manager.o
 .text.TCPIP_STACK_MACObjectGet
                0x0000000000000000        0x6 build/FreeRTOS/production/_ext/540595297/tcpip_manager.o
 .text.TCPIP_STACK_NetMACIdGet
                0x0000000000000000       0x18 build/FreeRTOS/production/_ext/540595297/tcpip_manager.o
 .text.TCPIP_STACK_ModuleConfigGet
                0x0000000000000000       0x48 build/FreeRTOS/production/_ext/540595297/tcpip_manager.o
 .text.TCPIP_STACK_NetConfigGet
                0x0000000000000000       0x50 build/FreeRTOS/production/_ext/540595297/tcpip_manager.o
 .text.TCPIP_STACK_NetConfigSet
                0x0000000000000000      0x1aa build/FreeRTOS/production/_ext/540595297/tcpip_manager.o
 .text.TCPIP_STACK_MACIdToString
                0x0000000000000000       0x3c build/FreeRTOS/production/_ext/540595297/tcpip_manager.o
 .text.TCPIP_STACK_AddressServiceSelect
                0x0000000000000000       0x10 build/FreeRTOS/production/_ext/540595297/tcpip_manager.o
 .text.TCPIP_STACK_AddressServiceEvent
                0x0000000000000000       0x44 build/FreeRTOS/production/_ext/540595297/tcpip_manager.o
 .text.TCPIP_STACK_EventsPendingGet
                0x0000000000000000       0x20 build/FreeRTOS/production/_ext/540595297/tcpip_manager.o
 .text.TCPIP_STACK_NetStaticIPv6AddressGet
                0x0000000000000000        0x4 build/FreeRTOS/production/_ext/540595297/tcpip_manager.o
 .text.TCPIP_STACK_NetDefaultIPv6GatewayGet
                0x0000000000000000        0x4 build/FreeRTOS/production/_ext/540595297/tcpip_manager.o
 .text._TCPIPStackSetConfigAddress
                0x0000000000000000       0x40 build/FreeRTOS/production/_ext/540595297/tcpip_manager.o
 .text.TCPIP_STACK_GatewayAddressSet
                0x0000000000000000        0x8 build/FreeRTOS/production/_ext/540595297/tcpip_manager.o
 .text.TCPIP_STACK_PrimaryDNSAddressSet
                0x0000000000000000        0x8 build/FreeRTOS/production/_ext/540595297/tcpip_manager.o
 .text.TCPIP_STACK_SecondaryDNSAddressSet
                0x0000000000000000        0x8 build/FreeRTOS/production/_ext/540595297/tcpip_manager.o
 .text.TCPIP_STACK_AddressIsOfNetUp
                0x0000000000000000       0x30 build/FreeRTOS/production/_ext/540595297/tcpip_manager.o
 .text._TCPIPStackAnyNetDirected
                0x0000000000000000       0x48 build/FreeRTOS/production/_ext/540595297/tcpip_manager.o
 .text.TCPIP_STACK_NetMACId
                0x0000000000000000        0xc build/FreeRTOS/production/_ext/540595297/tcpip_manager.o
 .text.TCPIP_STACK_NetToMAC
                0x0000000000000000        0xa build/FreeRTOS/production/_ext/540595297/tcpip_manager.o
 .text.TCPIP_STACK_VersionGet
                0x0000000000000000        0x8 build/FreeRTOS/production/_ext/540595297/tcpip_manager.o
 .text.TCPIP_STACK_VersionStrGet
                0x0000000000000000        0x8 build/FreeRTOS/production/_ext/540595297/tcpip_manager.o
 .text.TCPIP_MODULE_SignalFunctionRegister
                0x0000000000000000       0x3c build/FreeRTOS/production/_ext/540595297/tcpip_manager.o
 .text.TCPIP_MODULE_SignalFunctionDeregister
                0x0000000000000000        0xe build/FreeRTOS/production/_ext/540595297/tcpip_manager.o
 .text.TCPIP_MODULE_SignalGet
                0x0000000000000000       0x28 build/FreeRTOS/production/_ext/540595297/tcpip_manager.o
 .text.TCPIP_STACK_HEAP_Size
                0x0000000000000000        0xe build/FreeRTOS/production/_ext/540595297/tcpip_manager.o
 .text.TCPIP_STACK_HEAP_MaxSize
                0x0000000000000000        0xe build/FreeRTOS/production/_ext/540595297/tcpip_manager.o
 .text.TCPIP_STACK_HEAP_FreeSize
                0x0000000000000000        0xe build/FreeRTOS/production/_ext/540595297/tcpip_manager.o
 .text.TCPIP_STACK_HEAP_HighWatermark
                0x0000000000000000        0xe build/FreeRTOS/production/_ext/540595297/tcpip_manager.o
 .text.TCPIP_STACK_HEAP_LastError
                0x0000000000000000       0x10 build/FreeRTOS/production/_ext/540595297/tcpip_manager.o
 .text._TCPIPStackHeapConfig
                0x0000000000000000        0x8 build/FreeRTOS/production/_ext/540595297/tcpip_manager.o
 .text._TCPIP_SecCountGet
                0x0000000000000000        0xc build/FreeRTOS/production/_ext/540595297/tcpip_manager.o
 .text._TCPIP_MsecCountGet
                0x0000000000000000        0xc build/FreeRTOS/production/_ext/540595297/tcpip_manager.o
 .text._TCPIPStack_Condition
                0x0000000000000000       0x24 build/FreeRTOS/production/_ext/540595297/tcpip_manager.o
 .bss._TCPIP_Stack_LeaveCondLoop
                0x0000000000000000        0x4 build/FreeRTOS/production/_ext/540595297/tcpip_manager.o
 .rodata.TCPIP_STACK_VersionStrGet.str1.4
                0x0000000000000000        0xc build/FreeRTOS/production/_ext/540595297/tcpip_manager.o
 .rodata._TCPIPStack_Condition.str1.4
                0x0000000000000000       0x38 build/FreeRTOS/production/_ext/540595297/tcpip_manager.o
 .text          0x0000000000000000        0x0 build/FreeRTOS/production/_ext/540595297/dhcp.o
 .data          0x0000000000000000        0x0 build/FreeRTOS/production/_ext/540595297/dhcp.o
 .bss           0x0000000000000000        0x0 build/FreeRTOS/production/_ext/540595297/dhcp.o
 .text.TCPIP_DHCP_IsEnabled
                0x0000000000000000        0x4 build/FreeRTOS/production/_ext/540595297/dhcp.o
 .text.TCPIP_DHCP_IsActive
                0x0000000000000000        0x4 build/FreeRTOS/production/_ext/540595297/dhcp.o
 .text.TCPIP_DHCP_Disable
                0x0000000000000000        0x4 build/FreeRTOS/production/_ext/540595297/dhcp.o
 .text.TCPIP_DHCP_Enable
                0x0000000000000000        0x4 build/FreeRTOS/production/_ext/540595297/dhcp.o
 .text.TCPIP_DHCP_Renew
                0x0000000000000000        0x4 build/FreeRTOS/production/_ext/540595297/dhcp.o
 .text.TCPIP_DHCP_Request
                0x0000000000000000        0x4 build/FreeRTOS/production/_ext/540595297/dhcp.o
 .text.TCPIP_DHCP_InfoGet
                0x0000000000000000        0x4 build/FreeRTOS/production/_ext/540595297/dhcp.o
 .debug_info    0x0000000000000000      0x40b build/FreeRTOS/production/_ext/540595297/dhcp.o
 .debug_abbrev  0x0000000000000000      0x12a build/FreeRTOS/production/_ext/540595297/dhcp.o
 .debug_loc     0x0000000000000000      0x103 build/FreeRTOS/production/_ext/540595297/dhcp.o
 .debug_aranges
                0x0000000000000000       0x50 build/FreeRTOS/production/_ext/540595297/dhcp.o
 .debug_ranges  0x0000000000000000       0x40 build/FreeRTOS/production/_ext/540595297/dhcp.o
 .debug_line    0x0000000000000000      0x19b build/FreeRTOS/production/_ext/540595297/dhcp.o
 .debug_str     0x0000000000000000      0x5b9 build/FreeRTOS/production/_ext/540595297/dhcp.o
 .comment       0x0000000000000000       0x2c build/FreeRTOS/production/_ext/540595297/dhcp.o
 .debug_frame   0x0000000000000000       0x80 build/FreeRTOS/production/_ext/540595297/dhcp.o
 .ARM.attributes
                0x0000000000000000       0x34 build/FreeRTOS/production/_ext/540595297/dhcp.o
 .text          0x0000000000000000        0x0 build/FreeRTOS/production/_ext/540595297/tcpip_heap_alloc.o
 .data          0x0000000000000000        0x0 build/FreeRTOS/production/_ext/540595297/tcpip_heap_alloc.o
 .bss           0x0000000000000000        0x0 build/FreeRTOS/production/_ext/540595297/tcpip_heap_alloc.o
 .text._TCPIP_HEAP_PointerMapCached
                0x0000000000000000        0x2 build/FreeRTOS/production/_ext/540595297/tcpip_heap_alloc.o
 .text          0x0000000000000000        0x0 build/FreeRTOS/production/_ext/540595297/hash_fnv.o
 .data          0x0000000000000000        0x0 build/FreeRTOS/production/_ext/540595297/hash_fnv.o
 .bss           0x0000000000000000        0x0 build/FreeRTOS/production/_ext/540595297/hash_fnv.o
 .text.fnv_32a_hash
                0x0000000000000000       0x34 build/FreeRTOS/production/_ext/540595297/hash_fnv.o
 .text          0x0000000000000000        0x0 build/FreeRTOS/production/_ext/540595297/arp.o
 .data          0x0000000000000000        0x0 build/FreeRTOS/production/_ext/540595297/arp.o
 .bss           0x0000000000000000        0x0 build/FreeRTOS/production/_ext/540595297/arp.o
 .text.TCPIP_ARP_Probe
                0x0000000000000000       0x5c build/FreeRTOS/production/_ext/540595297/arp.o
 .text.TCPIP_ARP_EntrySet
                0x0000000000000000       0xe8 build/FreeRTOS/production/_ext/540595297/arp.o
 .text.TCPIP_ARP_EntryRemoveNet
                0x0000000000000000       0xf0 build/FreeRTOS/production/_ext/540595297/arp.o
 .text.TCPIP_ARP_EntryRemoveAll
                0x0000000000000000       0x7c build/FreeRTOS/production/_ext/540595297/arp.o
 .text.TCPIP_ARP_EntryQuery
                0x0000000000000000       0xa8 build/FreeRTOS/production/_ext/540595297/arp.o
 .text.TCPIP_ARP_CacheEntriesNoGet
                0x0000000000000000       0x58 build/FreeRTOS/production/_ext/540595297/arp.o
 .text.TCPIP_ARP_CacheThresholdSet
                0x0000000000000000       0x54 build/FreeRTOS/production/_ext/540595297/arp.o
 .text          0x0000000000000000        0x0 build/FreeRTOS/production/_ext/540595297/icmp.o
 .data          0x0000000000000000        0x0 build/FreeRTOS/production/_ext/540595297/icmp.o
 .bss           0x0000000000000000        0x0 build/FreeRTOS/production/_ext/540595297/icmp.o
 .text          0x0000000000000000        0x0 build/FreeRTOS/production/_ext/540595297/ipv4.o
 .data          0x0000000000000000        0x0 build/FreeRTOS/production/_ext/540595297/ipv4.o
 .bss           0x0000000000000000        0x0 build/FreeRTOS/production/_ext/540595297/ipv4.o
 .text.Ipv4DeRegisterCallback
                0x0000000000000000       0x14 build/FreeRTOS/production/_ext/540595297/ipv4.o
 .text.TCPIP_IPv4_ArpStatGet
                0x0000000000000000        0x4 build/FreeRTOS/production/_ext/540595297/ipv4.o
 .text.TCPIP_IPv4_ForwardStatGet
                0x0000000000000000        0x4 build/FreeRTOS/production/_ext/540595297/ipv4.o
 .text.IPv4RegisterFilter
                0x0000000000000000       0x5c build/FreeRTOS/production/_ext/540595297/ipv4.o
 .text.Ipv4DeRegisterFilter
                0x0000000000000000       0x28 build/FreeRTOS/production/_ext/540595297/ipv4.o
 .text.Ipv4FilterSetActive
                0x0000000000000000       0x60 build/FreeRTOS/production/_ext/540595297/ipv4.o
 .text.TCPIP_IPV4_PacketFilterSet
                0x0000000000000000       0x24 build/FreeRTOS/production/_ext/540595297/ipv4.o
 .text.TCPIP_IPV4_PacketFilterClear
                0x0000000000000000       0x24 build/FreeRTOS/production/_ext/540595297/ipv4.o
 .text.TCPIP_IPV4_MacPacketTransmit
                0x0000000000000000       0x60 build/FreeRTOS/production/_ext/540595297/ipv4.o
 .text.TCPIP_IPV4_PacketAlloc
                0x0000000000000000       0x78 build/FreeRTOS/production/_ext/540595297/ipv4.o
 .text.TCPIP_IPV4_PacketOptionFieldSet
                0x0000000000000000       0x36 build/FreeRTOS/production/_ext/540595297/ipv4.o
 .text.TCPIP_IPV4_PacketOptionListGet
                0x0000000000000000       0x56 build/FreeRTOS/production/_ext/540595297/ipv4.o
 .text.TCPIP_IPV4_PacketOptionGet
                0x0000000000000000       0x70 build/FreeRTOS/production/_ext/540595297/ipv4.o
 .text          0x0000000000000000        0x0 build/FreeRTOS/production/_ext/540595297/oahash.o
 .data          0x0000000000000000        0x0 build/FreeRTOS/production/_ext/540595297/oahash.o
 .bss           0x0000000000000000        0x0 build/FreeRTOS/production/_ext/540595297/oahash.o
 .text.TCPIP_OAHASH_EntryGetIndex
                0x0000000000000000       0x46 build/FreeRTOS/production/_ext/540595297/oahash.o
 .text          0x0000000000000000        0x0 build/FreeRTOS/production/_ext/540595297/dns.o
 .data          0x0000000000000000        0x0 build/FreeRTOS/production/_ext/540595297/dns.o
 .bss           0x0000000000000000        0x0 build/FreeRTOS/production/_ext/540595297/dns.o
 .text.TCPIP_DNS_Send_Query
                0x0000000000000000        0xa build/FreeRTOS/production/_ext/540595297/dns.o
 .text.TCPIP_DNS_IsEnabled
                0x0000000000000000       0x1a build/FreeRTOS/production/_ext/540595297/dns.o
 .text          0x0000000000000000        0x0 build/FreeRTOS/production/_ext/891571577/osal_freertos.o
 .data          0x0000000000000000        0x0 build/FreeRTOS/production/_ext/891571577/osal_freertos.o
 .bss           0x0000000000000000        0x0 build/FreeRTOS/production/_ext/891571577/osal_freertos.o
 .text.OSAL_SEM_PostISR
                0x0000000000000000       0x3c build/FreeRTOS/production/_ext/891571577/osal_freertos.o
 .text.OSAL_SEM_GetCount
                0x0000000000000000       0x12 build/FreeRTOS/production/_ext/891571577/osal_freertos.o
 .text.OSAL_Free
                0x0000000000000000        0x8 build/FreeRTOS/production/_ext/891571577/osal_freertos.o
 .text.OSAL_Initialize
                0x0000000000000000        0x4 build/FreeRTOS/production/_ext/891571577/osal_freertos.o
 .text          0x0000000000000000        0x0 build/FreeRTOS/production/_ext/892004133/plib_clock.o
 .data          0x0000000000000000        0x0 build/FreeRTOS/production/_ext/892004133/plib_clock.o
 .bss           0x0000000000000000        0x0 build/FreeRTOS/production/_ext/892004133/plib_clock.o
 .text          0x0000000000000000        0x0 build/FreeRTOS/production/_ext/1495245741/plib_cmcc.o
 .data          0x0000000000000000        0x0 build/FreeRTOS/production/_ext/1495245741/plib_cmcc.o
 .bss           0x0000000000000000        0x0 build/FreeRTOS/production/_ext/1495245741/plib_cmcc.o
 .text.CMCC_Disable
                0x0000000000000000       0x18 build/FreeRTOS/production/_ext/1495245741/plib_cmcc.o
 .text.CMCC_EnableICache
                0x0000000000000000       0x28 build/FreeRTOS/production/_ext/1495245741/plib_cmcc.o
 .text.CMCC_DisableICache
                0x0000000000000000       0x28 build/FreeRTOS/production/_ext/1495245741/plib_cmcc.o
 .text.CMCC_EnableDCache
                0x0000000000000000       0x28 build/FreeRTOS/production/_ext/1495245741/plib_cmcc.o
 .text.CMCC_DisableDCache
                0x0000000000000000       0x28 build/FreeRTOS/production/_ext/1495245741/plib_cmcc.o
 .text.CMCC_InvalidateAll
                0x0000000000000000       0x20 build/FreeRTOS/production/_ext/1495245741/plib_cmcc.o
 .debug_info    0x0000000000000000      0x213 build/FreeRTOS/production/_ext/1495245741/plib_cmcc.o
 .debug_abbrev  0x0000000000000000       0xa4 build/FreeRTOS/production/_ext/1495245741/plib_cmcc.o
 .debug_aranges
                0x0000000000000000       0x48 build/FreeRTOS/production/_ext/1495245741/plib_cmcc.o
 .debug_ranges  0x0000000000000000       0x38 build/FreeRTOS/production/_ext/1495245741/plib_cmcc.o
 .debug_line    0x0000000000000000      0x208 build/FreeRTOS/production/_ext/1495245741/plib_cmcc.o
 .debug_str     0x0000000000000000      0x3c8 build/FreeRTOS/production/_ext/1495245741/plib_cmcc.o
 .comment       0x0000000000000000       0x2c build/FreeRTOS/production/_ext/1495245741/plib_cmcc.o
 .debug_frame   0x0000000000000000       0x70 build/FreeRTOS/production/_ext/1495245741/plib_cmcc.o
 .ARM.attributes
                0x0000000000000000       0x34 build/FreeRTOS/production/_ext/1495245741/plib_cmcc.o
 .text          0x0000000000000000        0x0 build/FreeRTOS/production/_ext/1495216012/plib_dmac.o
 .data          0x0000000000000000        0x0 build/FreeRTOS/production/_ext/1495216012/plib_dmac.o
 .bss           0x0000000000000000        0x0 build/FreeRTOS/production/_ext/1495216012/plib_dmac.o
 .text.DMAC_ChannelIsBusy
                0x0000000000000000       0x24 build/FreeRTOS/production/_ext/1495216012/plib_dmac.o
 .text.DMAC_ChannelTransferStatusGet
                0x0000000000000000       0x1e build/FreeRTOS/production/_ext/1495216012/plib_dmac.o
 .text.DMAC_ChannelDisable
                0x0000000000000000       0x2c build/FreeRTOS/production/_ext/1495216012/plib_dmac.o
 .text.DMAC_ChannelGetTransferredCount
                0x0000000000000000       0x1c build/FreeRTOS/production/_ext/1495216012/plib_dmac.o
 .text.DMAC_ChannelSuspend
                0x0000000000000000       0x1c build/FreeRTOS/production/_ext/1495216012/plib_dmac.o
 .text.DMAC_ChannelResume
                0x0000000000000000       0x1c build/FreeRTOS/production/_ext/1495216012/plib_dmac.o
 .text.DMAC_CRCDisable
                0x0000000000000000        0xc build/FreeRTOS/production/_ext/1495216012/plib_dmac.o
 .text.DMAC_ChannelCRCSetup
                0x0000000000000000       0x40 build/FreeRTOS/production/_ext/1495216012/plib_dmac.o
 .text.DMAC_CRCRead
                0x0000000000000000        0xc build/FreeRTOS/production/_ext/1495216012/plib_dmac.o
 .text.DMAC_CRCCalculate
                0x0000000000000000       0x98 build/FreeRTOS/production/_ext/1495216012/plib_dmac.o
 .text          0x0000000000000000        0x0 build/FreeRTOS/production/_ext/894153619/plib_evsys.o
 .data          0x0000000000000000        0x0 build/FreeRTOS/production/_ext/894153619/plib_evsys.o
 .bss           0x0000000000000000        0x0 build/FreeRTOS/production/_ext/894153619/plib_evsys.o
 .text          0x0000000000000000        0x0 build/FreeRTOS/production/_ext/1494909205/plib_nvic.o
 .data          0x0000000000000000        0x0 build/FreeRTOS/production/_ext/1494909205/plib_nvic.o
 .bss           0x0000000000000000        0x0 build/FreeRTOS/production/_ext/1494909205/plib_nvic.o
 .text.NVIC_INT_Enable
                0x0000000000000000        0x8 build/FreeRTOS/production/_ext/1494909205/plib_nvic.o
 .text          0x0000000000000000        0x0 build/FreeRTOS/production/_ext/320424729/plib_nvmctrl.o
 .data          0x0000000000000000        0x0 build/FreeRTOS/production/_ext/320424729/plib_nvmctrl.o
 .bss           0x0000000000000000        0x0 build/FreeRTOS/production/_ext/320424729/plib_nvmctrl.o
 .text.NVMCTRL_Read
                0x0000000000000000       0x10 build/FreeRTOS/production/_ext/320424729/plib_nvmctrl.o
 .text.NVMCTRL_SetWriteMode
                0x0000000000000000       0x14 build/FreeRTOS/production/_ext/320424729/plib_nvmctrl.o
 .text.NVMCTRL_QuadWordWrite
                0x0000000000000000       0x4c build/FreeRTOS/production/_ext/320424729/plib_nvmctrl.o
 .text.NVMCTRL_DoubleWordWrite
                0x0000000000000000       0x40 build/FreeRTOS/production/_ext/320424729/plib_nvmctrl.o
 .text.NVMCTRL_PageBufferWrite
                0x0000000000000000       0x2c build/FreeRTOS/production/_ext/320424729/plib_nvmctrl.o
 .text.NVMCTRL_PageBufferCommit
                0x0000000000000000       0x28 build/FreeRTOS/production/_ext/320424729/plib_nvmctrl.o
 .text.NVMCTRL_PageWrite
                0x0000000000000000       0x40 build/FreeRTOS/production/_ext/320424729/plib_nvmctrl.o
 .text.NVMCTRL_BlockErase
                0x0000000000000000       0x1c build/FreeRTOS/production/_ext/320424729/plib_nvmctrl.o
 .text.NVMCTRL_USER_ROW_RowErase
                0x0000000000000000       0x30 build/FreeRTOS/production/_ext/320424729/plib_nvmctrl.o
 .text.NVMCTRL_ErrorGet
                0x0000000000000000       0x20 build/FreeRTOS/production/_ext/320424729/plib_nvmctrl.o
 .text.NVMCTRL_StatusGet
                0x0000000000000000        0xc build/FreeRTOS/production/_ext/320424729/plib_nvmctrl.o
 .text.NVMCTRL_IsBusy
                0x0000000000000000       0x14 build/FreeRTOS/production/_ext/320424729/plib_nvmctrl.o
 .text.NVMCTRL_USER_ROW_PageWrite
                0x0000000000000000       0x6c build/FreeRTOS/production/_ext/320424729/plib_nvmctrl.o
 .text.NVMCTRL_RegionLock
                0x0000000000000000       0x10 build/FreeRTOS/production/_ext/320424729/plib_nvmctrl.o
 .text.NVMCTRL_RegionUnlock
                0x0000000000000000       0x10 build/FreeRTOS/production/_ext/320424729/plib_nvmctrl.o
 .text.NVMCTRL_RegionLockStatusGet
                0x0000000000000000        0xc build/FreeRTOS/production/_ext/320424729/plib_nvmctrl.o
 .text.NVMCTRL_SecurityBitSet
                0x0000000000000000       0x10 build/FreeRTOS/production/_ext/320424729/plib_nvmctrl.o
 .text.NVMCTRL_SmartEEPROM_IsBusy
                0x0000000000000000       0x10 build/FreeRTOS/production/_ext/320424729/plib_nvmctrl.o
 .text.NVMCTRL_SmartEEPROMStatusGet
                0x0000000000000000        0xc build/FreeRTOS/production/_ext/320424729/plib_nvmctrl.o
 .text.NVMCTRL_SmartEEPROM_IsActiveSectorFull
                0x0000000000000000       0x10 build/FreeRTOS/production/_ext/320424729/plib_nvmctrl.o
 .text.NVMCTRL_BankSwap
                0x0000000000000000       0x10 build/FreeRTOS/production/_ext/320424729/plib_nvmctrl.o
 .text.NVMCTRL_SmartEEPROMSectorReallocate
                0x0000000000000000       0x10 build/FreeRTOS/production/_ext/320424729/plib_nvmctrl.o
 .text.NVMCTRL_SmartEEPROMFlushPageBuffer
                0x0000000000000000       0x18 build/FreeRTOS/production/_ext/320424729/plib_nvmctrl.o
 .bss.nvm_error
                0x0000000000000000        0x2 build/FreeRTOS/production/_ext/320424729/plib_nvmctrl.o
 .text          0x0000000000000000        0x0 build/FreeRTOS/production/_ext/1494856054/plib_port.o
 .data          0x0000000000000000        0x0 build/FreeRTOS/production/_ext/1494856054/plib_port.o
 .bss           0x0000000000000000        0x0 build/FreeRTOS/production/_ext/1494856054/plib_port.o
 .text.PORT_GroupLatchRead
                0x0000000000000000        0x4 build/FreeRTOS/production/_ext/1494856054/plib_port.o
 .text.PORT_GroupToggle
                0x0000000000000000        0x4 build/FreeRTOS/production/_ext/1494856054/plib_port.o
 .text.PORT_GroupInputEnable
                0x0000000000000000        0x4 build/FreeRTOS/production/_ext/1494856054/plib_port.o
 .text.PORT_GroupOutputEnable
                0x0000000000000000        0x4 build/FreeRTOS/production/_ext/1494856054/plib_port.o
 .text.PORT_PinPeripheralFunctionConfig
                0x0000000000000000       0x4a build/FreeRTOS/production/_ext/1494856054/plib_port.o
 .text.PORT_PinGPIOConfig
                0x0000000000000000       0x20 build/FreeRTOS/production/_ext/1494856054/plib_port.o
 .text          0x0000000000000000        0x0 build/FreeRTOS/production/_ext/1428073114/plib_sercom0_spi_master.o
 .data          0x0000000000000000        0x0 build/FreeRTOS/production/_ext/1428073114/plib_sercom0_spi_master.o
 .bss           0x0000000000000000        0x0 build/FreeRTOS/production/_ext/1428073114/plib_sercom0_spi_master.o
 .text.SERCOM0_SPI_IsBusy
                0x0000000000000000       0x2c build/FreeRTOS/production/_ext/1428073114/plib_sercom0_spi_master.o
 .text.SERCOM0_SPI_Write
                0x0000000000000000        0xc build/FreeRTOS/production/_ext/1428073114/plib_sercom0_spi_master.o
 .text.SERCOM0_SPI_Read
                0x0000000000000000       0x10 build/FreeRTOS/production/_ext/1428073114/plib_sercom0_spi_master.o
 .text          0x0000000000000000        0x0 build/FreeRTOS/production/_ext/2092608928/plib_sercom1_usart.o
 .data          0x0000000000000000        0x0 build/FreeRTOS/production/_ext/2092608928/plib_sercom1_usart.o
 .bss           0x0000000000000000        0x0 build/FreeRTOS/production/_ext/2092608928/plib_sercom1_usart.o
 .text.SERCOM1_USART_FrequencyGet
                0x0000000000000000        0x8 build/FreeRTOS/production/_ext/2092608928/plib_sercom1_usart.o
 .text.SERCOM1_USART_SerialSetup
                0x0000000000000000      0x144 build/FreeRTOS/production/_ext/2092608928/plib_sercom1_usart.o
 .text.SERCOM1_USART_Enable
                0x0000000000000000       0x20 build/FreeRTOS/production/_ext/2092608928/plib_sercom1_usart.o
 .text.SERCOM1_USART_Disable
                0x0000000000000000       0x20 build/FreeRTOS/production/_ext/2092608928/plib_sercom1_usart.o
 .text.SERCOM1_USART_ErrorGet
                0x0000000000000000       0x10 build/FreeRTOS/production/_ext/2092608928/plib_sercom1_usart.o
 .text.SERCOM1_USART_ReadBufferSizeGet
                0x0000000000000000        0xc build/FreeRTOS/production/_ext/2092608928/plib_sercom1_usart.o
 .text.SERCOM1_USART_ReadNotificationEnable
                0x0000000000000000       0x18 build/FreeRTOS/production/_ext/2092608928/plib_sercom1_usart.o
 .text.SERCOM1_USART_ReadThresholdSet
                0x0000000000000000        0xc build/FreeRTOS/production/_ext/2092608928/plib_sercom1_usart.o
 .text.SERCOM1_USART_ReadCallbackRegister
                0x0000000000000000        0xc build/FreeRTOS/production/_ext/2092608928/plib_sercom1_usart.o
 .text.SERCOM1_USART_TransmitComplete
                0x0000000000000000       0x10 build/FreeRTOS/production/_ext/2092608928/plib_sercom1_usart.o
 .text.SERCOM1_USART_WriteBufferSizeGet
                0x0000000000000000        0xc build/FreeRTOS/production/_ext/2092608928/plib_sercom1_usart.o
 .text.SERCOM1_USART_WriteNotificationEnable
                0x0000000000000000       0x10 build/FreeRTOS/production/_ext/2092608928/plib_sercom1_usart.o
 .text.SERCOM1_USART_WriteThresholdSet
                0x0000000000000000        0xc build/FreeRTOS/production/_ext/2092608928/plib_sercom1_usart.o
 .text.SERCOM1_USART_WriteCallbackRegister
                0x0000000000000000        0xc build/FreeRTOS/production/_ext/2092608928/plib_sercom1_usart.o
 .text          0x0000000000000000        0x0 build/FreeRTOS/production/_ext/579449528/plib_tc0.o
 .data          0x0000000000000000        0x0 build/FreeRTOS/production/_ext/579449528/plib_tc0.o
 .bss           0x0000000000000000        0x0 build/FreeRTOS/production/_ext/579449528/plib_tc0.o
 .text.TC0_TimerCommandSet
                0x0000000000000000       0x18 build/FreeRTOS/production/_ext/579449528/plib_tc0.o
 .text.TC0_Timer16bitCounterSet
                0x0000000000000000       0x14 build/FreeRTOS/production/_ext/579449528/plib_tc0.o
 .text.TC0_Timer16bitPeriodGet
                0x0000000000000000        0xc build/FreeRTOS/production/_ext/579449528/plib_tc0.o
 .text          0x0000000000000000        0x0 build/FreeRTOS/production/_ext/1872641887/xc32_monitor.o
 .data          0x0000000000000000        0x0 build/FreeRTOS/production/_ext/1872641887/xc32_monitor.o
 .bss           0x0000000000000000        0x0 build/FreeRTOS/production/_ext/1872641887/xc32_monitor.o
 .text.read     0x0000000000000000        0x6 build/FreeRTOS/production/_ext/1872641887/xc32_monitor.o
 .text.write    0x0000000000000000        0x6 build/FreeRTOS/production/_ext/1872641887/xc32_monitor.o
 .debug_info    0x0000000000000000       0xf5 build/FreeRTOS/production/_ext/1872641887/xc32_monitor.o
 .debug_abbrev  0x0000000000000000       0xb2 build/FreeRTOS/production/_ext/1872641887/xc32_monitor.o
 .debug_loc     0x0000000000000000       0x4a build/FreeRTOS/production/_ext/1872641887/xc32_monitor.o
 .debug_aranges
                0x0000000000000000       0x28 build/FreeRTOS/production/_ext/1872641887/xc32_monitor.o
 .debug_ranges  0x0000000000000000       0x18 build/FreeRTOS/production/_ext/1872641887/xc32_monitor.o
 .debug_line    0x0000000000000000       0xcb build/FreeRTOS/production/_ext/1872641887/xc32_monitor.o
 .debug_str     0x0000000000000000      0x27f build/FreeRTOS/production/_ext/1872641887/xc32_monitor.o
 .comment       0x0000000000000000       0x2c build/FreeRTOS/production/_ext/1872641887/xc32_monitor.o
 .debug_frame   0x0000000000000000       0x30 build/FreeRTOS/production/_ext/1872641887/xc32_monitor.o
 .ARM.attributes
                0x0000000000000000       0x34 build/FreeRTOS/production/_ext/1872641887/xc32_monitor.o
 .text          0x0000000000000000        0x0 build/FreeRTOS/production/_ext/1107142132/sys_cache.o
 .data          0x0000000000000000        0x0 build/FreeRTOS/production/_ext/1107142132/sys_cache.o
 .bss           0x0000000000000000        0x0 build/FreeRTOS/production/_ext/1107142132/sys_cache.o
 .text.SYS_CACHE_EnableCaches
                0x0000000000000000        0x2 build/FreeRTOS/production/_ext/1107142132/sys_cache.o
 .text.SYS_CACHE_DisableCaches
                0x0000000000000000        0x2 build/FreeRTOS/production/_ext/1107142132/sys_cache.o
 .text.SYS_CACHE_EnableICache
                0x0000000000000000        0x2 build/FreeRTOS/production/_ext/1107142132/sys_cache.o
 .text.SYS_CACHE_DisableICache
                0x0000000000000000        0x2 build/FreeRTOS/production/_ext/1107142132/sys_cache.o
 .text.SYS_CACHE_InvalidateICache
                0x0000000000000000        0x2 build/FreeRTOS/production/_ext/1107142132/sys_cache.o
 .text.SYS_CACHE_EnableDCache
                0x0000000000000000        0x2 build/FreeRTOS/production/_ext/1107142132/sys_cache.o
 .text.SYS_CACHE_DisableDCache
                0x0000000000000000        0x2 build/FreeRTOS/production/_ext/1107142132/sys_cache.o
 .text.SYS_CACHE_InvalidateDCache
                0x0000000000000000        0x2 build/FreeRTOS/production/_ext/1107142132/sys_cache.o
 .text.SYS_CACHE_CleanDCache
                0x0000000000000000        0x2 build/FreeRTOS/production/_ext/1107142132/sys_cache.o
 .text.SYS_CACHE_InvalidateDCache_by_Addr
                0x0000000000000000        0x2 build/FreeRTOS/production/_ext/1107142132/sys_cache.o
 .text.SYS_CACHE_CleanDCache_by_Addr
                0x0000000000000000        0x2 build/FreeRTOS/production/_ext/1107142132/sys_cache.o
 .text.SYS_CACHE_CleanInvalidateDCache
                0x0000000000000000        0x2 build/FreeRTOS/production/_ext/1107142132/sys_cache.o
 .text.SYS_CACHE_CleanInvalidateDCache_by_Addr
                0x0000000000000000        0x2 build/FreeRTOS/production/_ext/1107142132/sys_cache.o
 .debug_info    0x0000000000000000      0x214 build/FreeRTOS/production/_ext/1107142132/sys_cache.o
 .debug_abbrev  0x0000000000000000       0x89 build/FreeRTOS/production/_ext/1107142132/sys_cache.o
 .debug_aranges
                0x0000000000000000       0x80 build/FreeRTOS/production/_ext/1107142132/sys_cache.o
 .debug_ranges  0x0000000000000000       0x70 build/FreeRTOS/production/_ext/1107142132/sys_cache.o
 .debug_line    0x0000000000000000      0x192 build/FreeRTOS/production/_ext/1107142132/sys_cache.o
 .debug_str     0x0000000000000000      0x43f build/FreeRTOS/production/_ext/1107142132/sys_cache.o
 .comment       0x0000000000000000       0x2c build/FreeRTOS/production/_ext/1107142132/sys_cache.o
 .debug_frame   0x0000000000000000       0xe0 build/FreeRTOS/production/_ext/1107142132/sys_cache.o
 .ARM.attributes
                0x0000000000000000       0x34 build/FreeRTOS/production/_ext/1107142132/sys_cache.o
 .text          0x0000000000000000        0x0 build/FreeRTOS/production/_ext/1005353002/sys_command.o
 .data          0x0000000000000000        0x0 build/FreeRTOS/production/_ext/1005353002/sys_command.o
 .bss           0x0000000000000000        0x0 build/FreeRTOS/production/_ext/1005353002/sys_command.o
 .text.SYS_CMD_READY_TO_READ
                0x0000000000000000        0x4 build/FreeRTOS/production/_ext/1005353002/sys_command.o
 .text.SYS_CMD_MESSAGE
                0x0000000000000000        0xc build/FreeRTOS/production/_ext/1005353002/sys_command.o
 .text.SYS_CMD_PRINT
                0x0000000000000000       0x80 build/FreeRTOS/production/_ext/1005353002/sys_command.o
 .text.SYS_CMDIO_GET_HANDLE
                0x0000000000000000       0x20 build/FreeRTOS/production/_ext/1005353002/sys_command.o
 .text.SYS_CMD_DELETE
                0x0000000000000000       0x64 build/FreeRTOS/production/_ext/1005353002/sys_command.o
 .text.SYS_CMD_CallbackRegister
                0x0000000000000000       0x50 build/FreeRTOS/production/_ext/1005353002/sys_command.o
 .text.SYS_CMD_CallbackDeregister
                0x0000000000000000       0x48 build/FreeRTOS/production/_ext/1005353002/sys_command.o
 .text          0x0000000000000000        0x0 build/FreeRTOS/production/_ext/548640822/sys_console.o
 .data          0x0000000000000000        0x0 build/FreeRTOS/production/_ext/548640822/sys_console.o
 .bss           0x0000000000000000        0x0 build/FreeRTOS/production/_ext/548640822/sys_console.o
 .text.SYS_CONSOLE_HandleGet
                0x0000000000000000        0xa build/FreeRTOS/production/_ext/548640822/sys_console.o
 .text.SYS_CONSOLE_DeviceGet
                0x0000000000000000       0x18 build/FreeRTOS/production/_ext/548640822/sys_console.o
 .text.SYS_CONSOLE_Tasks
                0x0000000000000000       0x28 build/FreeRTOS/production/_ext/548640822/sys_console.o
 .text.SYS_CONSOLE_ReadFreeBufferCountGet
                0x0000000000000000       0x34 build/FreeRTOS/production/_ext/548640822/sys_console.o
 .text.SYS_CONSOLE_WriteFreeBufferCountGet
                0x0000000000000000       0x34 build/FreeRTOS/production/_ext/548640822/sys_console.o
 .text.SYS_CONSOLE_WriteCountGet
                0x0000000000000000       0x34 build/FreeRTOS/production/_ext/548640822/sys_console.o
 .text.SYS_CONSOLE_Flush
                0x0000000000000000       0x2c build/FreeRTOS/production/_ext/548640822/sys_console.o
 .text          0x0000000000000000        0x0 build/FreeRTOS/production/_ext/548640822/sys_console_uart.o
 .data          0x0000000000000000        0x0 build/FreeRTOS/production/_ext/548640822/sys_console_uart.o
 .bss           0x0000000000000000        0x0 build/FreeRTOS/production/_ext/548640822/sys_console_uart.o
 .text          0x0000000000000000        0x0 build/FreeRTOS/production/_ext/147610190/sys_debug.o
 .data          0x0000000000000000        0x0 build/FreeRTOS/production/_ext/147610190/sys_debug.o
 .bss           0x0000000000000000        0x0 build/FreeRTOS/production/_ext/147610190/sys_debug.o
 .text.SYS_DEBUG_Status
                0x0000000000000000        0xc build/FreeRTOS/production/_ext/147610190/sys_debug.o
 .text.SYS_DEBUG_ErrorLevelSet
                0x0000000000000000        0xc build/FreeRTOS/production/_ext/147610190/sys_debug.o
 .text.SYS_DEBUG_Redirect
                0x0000000000000000       0x14 build/FreeRTOS/production/_ext/147610190/sys_debug.o
 .text          0x0000000000000000        0x0 build/FreeRTOS/production/_ext/50312702/sys_dma.o
 .data          0x0000000000000000        0x0 build/FreeRTOS/production/_ext/50312702/sys_dma.o
 .bss           0x0000000000000000        0x0 build/FreeRTOS/production/_ext/50312702/sys_dma.o
 .text          0x0000000000000000        0x0 build/FreeRTOS/production/_ext/1690414130/sys_int.o
 .data          0x0000000000000000        0x0 build/FreeRTOS/production/_ext/1690414130/sys_int.o
 .bss           0x0000000000000000        0x0 build/FreeRTOS/production/_ext/1690414130/sys_int.o
 .text.SYS_INT_Enable
                0x0000000000000000        0x8 build/FreeRTOS/production/_ext/1690414130/sys_int.o
 .text          0x0000000000000000        0x0 build/FreeRTOS/production/_ext/1093154855/sys_reset.o
 .data          0x0000000000000000        0x0 build/FreeRTOS/production/_ext/1093154855/sys_reset.o
 .bss           0x0000000000000000        0x0 build/FreeRTOS/production/_ext/1093154855/sys_reset.o
 .text          0x0000000000000000        0x0 build/FreeRTOS/production/_ext/832704728/sys_time.o
 .data          0x0000000000000000        0x0 build/FreeRTOS/production/_ext/832704728/sys_time.o
 .bss           0x0000000000000000        0x0 build/FreeRTOS/production/_ext/832704728/sys_time.o
 .text.SYS_TIME_Deinitialize
                0x0000000000000000       0x30 build/FreeRTOS/production/_ext/832704728/sys_time.o
 .text.SYS_TIME_Status
                0x0000000000000000       0x14 build/FreeRTOS/production/_ext/832704728/sys_time.o
 .text.SYS_TIME_CounterSet
                0x0000000000000000       0x1c build/FreeRTOS/production/_ext/832704728/sys_time.o
 .text.SYS_TIME_CountToUS
                0x0000000000000000       0x44 build/FreeRTOS/production/_ext/832704728/sys_time.o
 .text.SYS_TIME_USToCount
                0x0000000000000000       0x1c build/FreeRTOS/production/_ext/832704728/sys_time.o
 .text.SYS_TIME_TimerCreate
                0x0000000000000000       0x1c build/FreeRTOS/production/_ext/832704728/sys_time.o
 .text.SYS_TIME_TimerReload
                0x0000000000000000       0x88 build/FreeRTOS/production/_ext/832704728/sys_time.o
 .text.SYS_TIME_TimerStop
                0x0000000000000000       0x3c build/FreeRTOS/production/_ext/832704728/sys_time.o
 .text.SYS_TIME_TimerCounterGet
                0x0000000000000000       0x88 build/FreeRTOS/production/_ext/832704728/sys_time.o
 .text.SYS_TIME_TimerPeriodHasExpired
                0x0000000000000000       0x28 build/FreeRTOS/production/_ext/832704728/sys_time.o
 .text.SYS_TIME_DelayUS
                0x0000000000000000       0x50 build/FreeRTOS/production/_ext/832704728/sys_time.o
 .text.SYS_TIME_DelayMS
                0x0000000000000000       0x50 build/FreeRTOS/production/_ext/832704728/sys_time.o
 .text.SYS_TIME_DelayIsComplete
                0x0000000000000000       0x18 build/FreeRTOS/production/_ext/832704728/sys_time.o
 .text.SYS_TIME_CallbackRegisterUS
                0x0000000000000000       0x58 build/FreeRTOS/production/_ext/832704728/sys_time.o
 .text          0x0000000000000000        0x0 build/FreeRTOS/production/_ext/2072568807/sys_time_h2_adapter.o
 .data          0x0000000000000000        0x0 build/FreeRTOS/production/_ext/2072568807/sys_time_h2_adapter.o
 .bss           0x0000000000000000        0x0 build/FreeRTOS/production/_ext/2072568807/sys_time_h2_adapter.o
 .text          0x0000000000000000        0x0 build/FreeRTOS/production/_ext/2072568807/sys_random_h2_adapter.o
 .data          0x0000000000000000        0x0 build/FreeRTOS/production/_ext/2072568807/sys_random_h2_adapter.o
 .bss           0x0000000000000000        0x0 build/FreeRTOS/production/_ext/2072568807/sys_random_h2_adapter.o
 .text.SYS_RANDOM_CryptoInitialize
                0x0000000000000000       0x10 build/FreeRTOS/production/_ext/2072568807/sys_random_h2_adapter.o
 .text.SYS_RANDOM_CryptoDeinitialize
                0x0000000000000000       0x5c build/FreeRTOS/production/_ext/2072568807/sys_random_h2_adapter.o
 .text.SYS_RANDOM_CryptoByteGet
                0x0000000000000000       0x2c build/FreeRTOS/production/_ext/2072568807/sys_random_h2_adapter.o
 .text          0x0000000000000000        0x0 build/FreeRTOS/production/_ext/161576091/tasks.o
 .data          0x0000000000000000        0x0 build/FreeRTOS/production/_ext/161576091/tasks.o
 .bss           0x0000000000000000        0x0 build/FreeRTOS/production/_ext/161576091/tasks.o
 .text          0x0000000000000000        0x0 build/FreeRTOS/production/_ext/161576091/freertos_hooks.o
 .data          0x0000000000000000        0x0 build/FreeRTOS/production/_ext/161576091/freertos_hooks.o
 .bss           0x0000000000000000        0x0 build/FreeRTOS/production/_ext/161576091/freertos_hooks.o
 .text.vApplicationIdleHook
                0x0000000000000000        0x2 build/FreeRTOS/production/_ext/161576091/freertos_hooks.o
 .text.vApplicationTickHook
                0x0000000000000000        0x2 build/FreeRTOS/production/_ext/161576091/freertos_hooks.o
 .text.vAssertCalled
                0x0000000000000000       0x1c build/FreeRTOS/production/_ext/161576091/freertos_hooks.o
 .text          0x0000000000000000        0x0 build/FreeRTOS/production/_ext/161576091/startup_xc32.o
 .data          0x0000000000000000        0x0 build/FreeRTOS/production/_ext/161576091/startup_xc32.o
 .bss           0x0000000000000000        0x0 build/FreeRTOS/production/_ext/161576091/startup_xc32.o
 .text          0x0000000000000000        0x0 build/FreeRTOS/production/_ext/161576091/initialization.o
 .data          0x0000000000000000        0x0 build/FreeRTOS/production/_ext/161576091/initialization.o
 .bss           0x0000000000000000        0x0 build/FreeRTOS/production/_ext/161576091/initialization.o
 .bss.tcpipICMPInitData
                0x0000000000000000        0x4 build/FreeRTOS/production/_ext/161576091/initialization.o
 .rodata.TCPIP_HOSTS_CONFIGURATION_SIZE
                0x0000000000000000        0x4 build/FreeRTOS/production/_ext/161576091/initialization.o
 .rodata.TCPIP_STACK_MODULE_CONFIG_TBL_SIZE
                0x0000000000000000        0x4 build/FreeRTOS/production/_ext/161576091/initialization.o
 .text          0x0000000000000000        0x0 build/FreeRTOS/production/_ext/161576091/interrupts.o
 .data          0x0000000000000000        0x0 build/FreeRTOS/production/_ext/161576091/interrupts.o
 .bss           0x0000000000000000        0x0 build/FreeRTOS/production/_ext/161576091/interrupts.o
 .text          0x0000000000000000        0x0 build/FreeRTOS/production/_ext/161576091/libc_syscalls.o
 .data          0x0000000000000000        0x0 build/FreeRTOS/production/_ext/161576091/libc_syscalls.o
 .bss           0x0000000000000000        0x0 build/FreeRTOS/production/_ext/161576091/libc_syscalls.o
 .text._exit    0x0000000000000000        0x2 build/FreeRTOS/production/_ext/161576091/libc_syscalls.o
 .debug_info    0x0000000000000000       0xaa build/FreeRTOS/production/_ext/161576091/libc_syscalls.o
 .debug_abbrev  0x0000000000000000       0x5d build/FreeRTOS/production/_ext/161576091/libc_syscalls.o
 .debug_loc     0x0000000000000000       0x15 build/FreeRTOS/production/_ext/161576091/libc_syscalls.o
 .debug_aranges
                0x0000000000000000       0x20 build/FreeRTOS/production/_ext/161576091/libc_syscalls.o
 .debug_ranges  0x0000000000000000       0x10 build/FreeRTOS/production/_ext/161576091/libc_syscalls.o
 .debug_line    0x0000000000000000       0x5c build/FreeRTOS/production/_ext/161576091/libc_syscalls.o
 .debug_str     0x0000000000000000      0x2c3 build/FreeRTOS/production/_ext/161576091/libc_syscalls.o
 .comment       0x0000000000000000       0x2c build/FreeRTOS/production/_ext/161576091/libc_syscalls.o
 .debug_frame   0x0000000000000000       0x20 build/FreeRTOS/production/_ext/161576091/libc_syscalls.o
 .ARM.attributes
                0x0000000000000000       0x34 build/FreeRTOS/production/_ext/161576091/libc_syscalls.o
 .text          0x0000000000000000        0x0 build/FreeRTOS/production/_ext/161576091/exceptions.o
 .data          0x0000000000000000        0x0 build/FreeRTOS/production/_ext/161576091/exceptions.o
 .bss           0x0000000000000000        0x0 build/FreeRTOS/production/_ext/161576091/exceptions.o
 .text          0x0000000000000000        0x0 build/FreeRTOS/production/_ext/246609638/port.o
 .data          0x0000000000000000        0x0 build/FreeRTOS/production/_ext/246609638/port.o
 .bss           0x0000000000000000        0x0 build/FreeRTOS/production/_ext/246609638/port.o
 .text.vPortEndScheduler
                0x0000000000000000        0x2 build/FreeRTOS/production/_ext/246609638/port.o
 .text          0x0000000000000000        0x0 build/FreeRTOS/production/_ext/1665200909/heap_1.o
 .data          0x0000000000000000        0x0 build/FreeRTOS/production/_ext/1665200909/heap_1.o
 .bss           0x0000000000000000        0x0 build/FreeRTOS/production/_ext/1665200909/heap_1.o
 .text.vPortInitialiseBlocks
                0x0000000000000000        0xc build/FreeRTOS/production/_ext/1665200909/heap_1.o
 .text.xPortGetFreeHeapSize
                0x0000000000000000       0x10 build/FreeRTOS/production/_ext/1665200909/heap_1.o
 .text          0x0000000000000000        0x0 build/FreeRTOS/production/_ext/404212886/list.o
 .data          0x0000000000000000        0x0 build/FreeRTOS/production/_ext/404212886/list.o
 .bss           0x0000000000000000        0x0 build/FreeRTOS/production/_ext/404212886/list.o
 .text.vListInsertEnd
                0x0000000000000000       0x16 build/FreeRTOS/production/_ext/404212886/list.o
 .text          0x0000000000000000        0x0 build/FreeRTOS/production/_ext/404212886/FreeRTOS_tasks.o
 .data          0x0000000000000000        0x0 build/FreeRTOS/production/_ext/404212886/FreeRTOS_tasks.o
 .bss           0x0000000000000000        0x0 build/FreeRTOS/production/_ext/404212886/FreeRTOS_tasks.o
 .text.vTaskDelete
                0x0000000000000000       0xd4 build/FreeRTOS/production/_ext/404212886/FreeRTOS_tasks.o
 .text.uxTaskPriorityGet
                0x0000000000000000       0x20 build/FreeRTOS/production/_ext/404212886/FreeRTOS_tasks.o
 .text.uxTaskPriorityGetFromISR
                0x0000000000000000       0x28 build/FreeRTOS/production/_ext/404212886/FreeRTOS_tasks.o
 .text.vTaskPrioritySet
                0x0000000000000000       0xec build/FreeRTOS/production/_ext/404212886/FreeRTOS_tasks.o
 .text.vTaskResume
                0x0000000000000000       0xa4 build/FreeRTOS/production/_ext/404212886/FreeRTOS_tasks.o
 .text.vTaskEndScheduler
                0x0000000000000000       0x24 build/FreeRTOS/production/_ext/404212886/FreeRTOS_tasks.o
 .text.xTaskGetTickCount
                0x0000000000000000        0xc build/FreeRTOS/production/_ext/404212886/FreeRTOS_tasks.o
 .text.xTaskGetTickCountFromISR
                0x0000000000000000        0xc build/FreeRTOS/production/_ext/404212886/FreeRTOS_tasks.o
 .text.uxTaskGetNumberOfTasks
                0x0000000000000000        0xc build/FreeRTOS/production/_ext/404212886/FreeRTOS_tasks.o
 .text.pcTaskGetName
                0x0000000000000000       0x14 build/FreeRTOS/production/_ext/404212886/FreeRTOS_tasks.o
 .text.xTaskDelayUntil
                0x0000000000000000       0x6c build/FreeRTOS/production/_ext/404212886/FreeRTOS_tasks.o
 .text.xTaskCatchUpTicks
                0x0000000000000000       0x24 build/FreeRTOS/production/_ext/404212886/FreeRTOS_tasks.o
 .text.vTaskSuspend
                0x0000000000000000       0xcc build/FreeRTOS/production/_ext/404212886/FreeRTOS_tasks.o
 .text.vTaskPlaceOnUnorderedEventList
                0x0000000000000000       0x3c build/FreeRTOS/production/_ext/404212886/FreeRTOS_tasks.o
 .text.vTaskRemoveFromUnorderedEventList
                0x0000000000000000       0xb0 build/FreeRTOS/production/_ext/404212886/FreeRTOS_tasks.o
 .text.vTaskSetTimeOutState
                0x0000000000000000       0x24 build/FreeRTOS/production/_ext/404212886/FreeRTOS_tasks.o
 .text.xTaskGetCurrentTaskHandle
                0x0000000000000000        0xc build/FreeRTOS/production/_ext/404212886/FreeRTOS_tasks.o
 .text.uxTaskResetEventItemValue
                0x0000000000000000       0x18 build/FreeRTOS/production/_ext/404212886/FreeRTOS_tasks.o
 .text.ulTaskGenericNotifyTake
                0x0000000000000000       0x98 build/FreeRTOS/production/_ext/404212886/FreeRTOS_tasks.o
 .text.xTaskGenericNotifyWait
                0x0000000000000000       0xb4 build/FreeRTOS/production/_ext/404212886/FreeRTOS_tasks.o
 .text.xTaskGenericNotify
                0x0000000000000000      0x118 build/FreeRTOS/production/_ext/404212886/FreeRTOS_tasks.o
 .text.xTaskGenericNotifyFromISR
                0x0000000000000000      0x140 build/FreeRTOS/production/_ext/404212886/FreeRTOS_tasks.o
 .text.vTaskGenericNotifyGiveFromISR
                0x0000000000000000       0xf0 build/FreeRTOS/production/_ext/404212886/FreeRTOS_tasks.o
 .text.xTaskGenericNotifyStateClear
                0x0000000000000000       0x38 build/FreeRTOS/production/_ext/404212886/FreeRTOS_tasks.o
 .text.ulTaskGenericNotifyValueClear
                0x0000000000000000       0x30 build/FreeRTOS/production/_ext/404212886/FreeRTOS_tasks.o
 .text          0x0000000000000000        0x0 build/FreeRTOS/production/_ext/404212886/event_groups.o
 .data          0x0000000000000000        0x0 build/FreeRTOS/production/_ext/404212886/event_groups.o
 .bss           0x0000000000000000        0x0 build/FreeRTOS/production/_ext/404212886/event_groups.o
 .text.xEventGroupCreate
                0x0000000000000000       0x1a build/FreeRTOS/production/_ext/404212886/event_groups.o
 .text.xEventGroupWaitBits
                0x0000000000000000       0xc0 build/FreeRTOS/production/_ext/404212886/event_groups.o
 .text.xEventGroupClearBits
                0x0000000000000000       0x1a build/FreeRTOS/production/_ext/404212886/event_groups.o
 .text.xEventGroupGetBitsFromISR
                0x0000000000000000       0x1c build/FreeRTOS/production/_ext/404212886/event_groups.o
 .text.xEventGroupSetBits
                0x0000000000000000       0x66 build/FreeRTOS/production/_ext/404212886/event_groups.o
 .text.xEventGroupSync
                0x0000000000000000       0x90 build/FreeRTOS/production/_ext/404212886/event_groups.o
 .text.vEventGroupDelete
                0x0000000000000000       0x2a build/FreeRTOS/production/_ext/404212886/event_groups.o
 .text.vEventGroupSetBitsCallback
                0x0000000000000000        0x8 build/FreeRTOS/production/_ext/404212886/event_groups.o
 .text.vEventGroupClearBitsCallback
                0x0000000000000000        0x8 build/FreeRTOS/production/_ext/404212886/event_groups.o
 .debug_info    0x0000000000000000      0xaea build/FreeRTOS/production/_ext/404212886/event_groups.o
 .debug_abbrev  0x0000000000000000      0x2ad build/FreeRTOS/production/_ext/404212886/event_groups.o
 .debug_loc     0x0000000000000000      0xac5 build/FreeRTOS/production/_ext/404212886/event_groups.o
 .debug_aranges
                0x0000000000000000       0x60 build/FreeRTOS/production/_ext/404212886/event_groups.o
 .debug_ranges  0x0000000000000000       0x98 build/FreeRTOS/production/_ext/404212886/event_groups.o
 .debug_line    0x0000000000000000      0x5da build/FreeRTOS/production/_ext/404212886/event_groups.o
 .debug_str     0x0000000000000000      0x744 build/FreeRTOS/production/_ext/404212886/event_groups.o
 .comment       0x0000000000000000       0x2c build/FreeRTOS/production/_ext/404212886/event_groups.o
 .debug_frame   0x0000000000000000      0x100 build/FreeRTOS/production/_ext/404212886/event_groups.o
 .ARM.attributes
                0x0000000000000000       0x34 build/FreeRTOS/production/_ext/404212886/event_groups.o
 .text          0x0000000000000000        0x0 build/FreeRTOS/production/_ext/404212886/stream_buffer.o
 .data          0x0000000000000000        0x0 build/FreeRTOS/production/_ext/404212886/stream_buffer.o
 .bss           0x0000000000000000        0x0 build/FreeRTOS/production/_ext/404212886/stream_buffer.o
 .text.prvBytesInBuffer
                0x0000000000000000       0x12 build/FreeRTOS/production/_ext/404212886/stream_buffer.o
 .text.prvWriteBytesToBuffer
                0x0000000000000000       0x40 build/FreeRTOS/production/_ext/404212886/stream_buffer.o
 .text.prvWriteMessageToBuffer
                0x0000000000000000       0x4e build/FreeRTOS/production/_ext/404212886/stream_buffer.o
 .text.prvReadBytesFromBuffer
                0x0000000000000000       0x42 build/FreeRTOS/production/_ext/404212886/stream_buffer.o
 .text.prvReadMessageFromBuffer
                0x0000000000000000       0x4e build/FreeRTOS/production/_ext/404212886/stream_buffer.o
 .text.xStreamBufferGenericCreate
                0x0000000000000000       0x42 build/FreeRTOS/production/_ext/404212886/stream_buffer.o
 .text.vStreamBufferDelete
                0x0000000000000000       0x1a build/FreeRTOS/production/_ext/404212886/stream_buffer.o
 .text.xStreamBufferReset
                0x0000000000000000       0x44 build/FreeRTOS/production/_ext/404212886/stream_buffer.o
 .text.xStreamBufferSetTriggerLevel
                0x0000000000000000       0x14 build/FreeRTOS/production/_ext/404212886/stream_buffer.o
 .text.xStreamBufferSpacesAvailable
                0x0000000000000000       0x20 build/FreeRTOS/production/_ext/404212886/stream_buffer.o
 .text.xStreamBufferBytesAvailable
                0x0000000000000000        0x8 build/FreeRTOS/production/_ext/404212886/stream_buffer.o
 .text.xStreamBufferSend
                0x0000000000000000       0xd8 build/FreeRTOS/production/_ext/404212886/stream_buffer.o
 .text.xStreamBufferSendFromISR
                0x0000000000000000       0x78 build/FreeRTOS/production/_ext/404212886/stream_buffer.o
 .text.xStreamBufferReceive
                0x0000000000000000       0xa4 build/FreeRTOS/production/_ext/404212886/stream_buffer.o
 .text.xStreamBufferNextMessageLengthBytes
                0x0000000000000000       0x32 build/FreeRTOS/production/_ext/404212886/stream_buffer.o
 .text.xStreamBufferReceiveFromISR
                0x0000000000000000       0x6c build/FreeRTOS/production/_ext/404212886/stream_buffer.o
 .text.xStreamBufferIsEmpty
                0x0000000000000000        0xe build/FreeRTOS/production/_ext/404212886/stream_buffer.o
 .text.xStreamBufferIsFull
                0x0000000000000000       0x18 build/FreeRTOS/production/_ext/404212886/stream_buffer.o
 .text.xStreamBufferSendCompletedFromISR
                0x0000000000000000       0x40 build/FreeRTOS/production/_ext/404212886/stream_buffer.o
 .text.xStreamBufferReceiveCompletedFromISR
                0x0000000000000000       0x40 build/FreeRTOS/production/_ext/404212886/stream_buffer.o
 .debug_info    0x0000000000000000     0x16db build/FreeRTOS/production/_ext/404212886/stream_buffer.o
 .debug_abbrev  0x0000000000000000      0x2ea build/FreeRTOS/production/_ext/404212886/stream_buffer.o
 .debug_loc     0x0000000000000000     0x1a59 build/FreeRTOS/production/_ext/404212886/stream_buffer.o
 .debug_aranges
                0x0000000000000000       0xb8 build/FreeRTOS/production/_ext/404212886/stream_buffer.o
 .debug_ranges  0x0000000000000000       0xd0 build/FreeRTOS/production/_ext/404212886/stream_buffer.o
 .debug_line    0x0000000000000000      0xab9 build/FreeRTOS/production/_ext/404212886/stream_buffer.o
 .debug_str     0x0000000000000000      0xa1b build/FreeRTOS/production/_ext/404212886/stream_buffer.o
 .comment       0x0000000000000000       0x2c build/FreeRTOS/production/_ext/404212886/stream_buffer.o
 .debug_frame   0x0000000000000000      0x27c build/FreeRTOS/production/_ext/404212886/stream_buffer.o
 .ARM.attributes
                0x0000000000000000       0x34 build/FreeRTOS/production/_ext/404212886/stream_buffer.o
 .text          0x0000000000000000        0x0 build/FreeRTOS/production/_ext/404212886/timers.o
 .data          0x0000000000000000        0x0 build/FreeRTOS/production/_ext/404212886/timers.o
 .bss           0x0000000000000000        0x0 build/FreeRTOS/production/_ext/404212886/timers.o
 .debug_info    0x0000000000000000       0x79 build/FreeRTOS/production/_ext/404212886/timers.o
 .debug_abbrev  0x0000000000000000       0x26 build/FreeRTOS/production/_ext/404212886/timers.o
 .debug_aranges
                0x0000000000000000       0x18 build/FreeRTOS/production/_ext/404212886/timers.o
 .debug_line    0x0000000000000000       0x1d build/FreeRTOS/production/_ext/404212886/timers.o
 .debug_str     0x0000000000000000      0x2cc build/FreeRTOS/production/_ext/404212886/timers.o
 .comment       0x0000000000000000       0x2c build/FreeRTOS/production/_ext/404212886/timers.o
 .ARM.attributes
                0x0000000000000000       0x39 build/FreeRTOS/production/_ext/404212886/timers.o
 .text          0x0000000000000000        0x0 build/FreeRTOS/production/_ext/404212886/croutine.o
 .data          0x0000000000000000        0x0 build/FreeRTOS/production/_ext/404212886/croutine.o
 .bss           0x0000000000000000        0x0 build/FreeRTOS/production/_ext/404212886/croutine.o
 .debug_info    0x0000000000000000       0x79 build/FreeRTOS/production/_ext/404212886/croutine.o
 .debug_abbrev  0x0000000000000000       0x26 build/FreeRTOS/production/_ext/404212886/croutine.o
 .debug_aranges
                0x0000000000000000       0x18 build/FreeRTOS/production/_ext/404212886/croutine.o
 .debug_line    0x0000000000000000       0x1d build/FreeRTOS/production/_ext/404212886/croutine.o
 .debug_str     0x0000000000000000      0x2ce build/FreeRTOS/production/_ext/404212886/croutine.o
 .comment       0x0000000000000000       0x2c build/FreeRTOS/production/_ext/404212886/croutine.o
 .ARM.attributes
                0x0000000000000000       0x39 build/FreeRTOS/production/_ext/404212886/croutine.o
 .text          0x0000000000000000        0x0 build/FreeRTOS/production/_ext/404212886/queue.o
 .data          0x0000000000000000        0x0 build/FreeRTOS/production/_ext/404212886/queue.o
 .bss           0x0000000000000000        0x0 build/FreeRTOS/production/_ext/404212886/queue.o
 .text.prvCopyDataFromQueue
                0x0000000000000000       0x24 build/FreeRTOS/production/_ext/404212886/queue.o
 .text.xQueueGenericSendFromISR
                0x0000000000000000       0x7c build/FreeRTOS/production/_ext/404212886/queue.o
 .text.xQueueGiveFromISR
                0x0000000000000000       0x72 build/FreeRTOS/production/_ext/404212886/queue.o
 .text.xQueueReceive
                0x0000000000000000      0x110 build/FreeRTOS/production/_ext/404212886/queue.o
 .text.xQueuePeek
                0x0000000000000000      0x10c build/FreeRTOS/production/_ext/404212886/queue.o
 .text.xQueueReceiveFromISR
                0x0000000000000000       0x7e build/FreeRTOS/production/_ext/404212886/queue.o
 .text.xQueuePeekFromISR
                0x0000000000000000       0x30 build/FreeRTOS/production/_ext/404212886/queue.o
 .text.uxQueueMessagesWaiting
                0x0000000000000000       0x12 build/FreeRTOS/production/_ext/404212886/queue.o
 .text.uxQueueSpacesAvailable
                0x0000000000000000       0x16 build/FreeRTOS/production/_ext/404212886/queue.o
 .text.uxQueueMessagesWaitingFromISR
                0x0000000000000000        0x4 build/FreeRTOS/production/_ext/404212886/queue.o
 .text.xQueueIsQueueEmptyFromISR
                0x0000000000000000        0xa build/FreeRTOS/production/_ext/404212886/queue.o
 .text.xQueueIsQueueFullFromISR
                0x0000000000000000        0xe build/FreeRTOS/production/_ext/404212886/queue.o
 .text          0x0000000000000000        0x0 build/FreeRTOS/production/_ext/172253694/crypt_sha384_sam6156.o
 .data          0x0000000000000000        0x0 build/FreeRTOS/production/_ext/172253694/crypt_sha384_sam6156.o
 .bss           0x0000000000000000        0x0 build/FreeRTOS/production/_ext/172253694/crypt_sha384_sam6156.o
 .debug_info    0x0000000000000000       0x79 build/FreeRTOS/production/_ext/172253694/crypt_sha384_sam6156.o
 .debug_abbrev  0x0000000000000000       0x26 build/FreeRTOS/production/_ext/172253694/crypt_sha384_sam6156.o
 .debug_aranges
                0x0000000000000000       0x18 build/FreeRTOS/production/_ext/172253694/crypt_sha384_sam6156.o
 .debug_line    0x0000000000000000       0x1d build/FreeRTOS/production/_ext/172253694/crypt_sha384_sam6156.o
 .debug_str     0x0000000000000000      0x2ee build/FreeRTOS/production/_ext/172253694/crypt_sha384_sam6156.o
 .comment       0x0000000000000000       0x2c build/FreeRTOS/production/_ext/172253694/crypt_sha384_sam6156.o
 .ARM.attributes
                0x0000000000000000       0x39 build/FreeRTOS/production/_ext/172253694/crypt_sha384_sam6156.o
 .text          0x0000000000000000        0x0 build/FreeRTOS/production/_ext/172253694/crypt_rng_u2242.o
 .data          0x0000000000000000        0x0 build/FreeRTOS/production/_ext/172253694/crypt_rng_u2242.o
 .bss           0x0000000000000000        0x0 build/FreeRTOS/production/_ext/172253694/crypt_rng_u2242.o
 .debug_info    0x0000000000000000       0x79 build/FreeRTOS/production/_ext/172253694/crypt_rng_u2242.o
 .debug_abbrev  0x0000000000000000       0x26 build/FreeRTOS/production/_ext/172253694/crypt_rng_u2242.o
 .debug_aranges
                0x0000000000000000       0x18 build/FreeRTOS/production/_ext/172253694/crypt_rng_u2242.o
 .debug_line    0x0000000000000000       0x1d build/FreeRTOS/production/_ext/172253694/crypt_rng_u2242.o
 .debug_str     0x0000000000000000      0x2e9 build/FreeRTOS/production/_ext/172253694/crypt_rng_u2242.o
 .comment       0x0000000000000000       0x2c build/FreeRTOS/production/_ext/172253694/crypt_rng_u2242.o
 .ARM.attributes
                0x0000000000000000       0x39 build/FreeRTOS/production/_ext/172253694/crypt_rng_u2242.o
 .text          0x0000000000000000        0x0 build/FreeRTOS/production/_ext/172253694/crypt_aes_u2238.o
 .data          0x0000000000000000        0x0 build/FreeRTOS/production/_ext/172253694/crypt_aes_u2238.o
 .bss           0x0000000000000000        0x0 build/FreeRTOS/production/_ext/172253694/crypt_aes_u2238.o
 .debug_info    0x0000000000000000       0x79 build/FreeRTOS/production/_ext/172253694/crypt_aes_u2238.o
 .debug_abbrev  0x0000000000000000       0x26 build/FreeRTOS/production/_ext/172253694/crypt_aes_u2238.o
 .debug_aranges
                0x0000000000000000       0x18 build/FreeRTOS/production/_ext/172253694/crypt_aes_u2238.o
 .debug_line    0x0000000000000000       0x1d build/FreeRTOS/production/_ext/172253694/crypt_aes_u2238.o
 .debug_str     0x0000000000000000      0x2e9 build/FreeRTOS/production/_ext/172253694/crypt_aes_u2238.o
 .comment       0x0000000000000000       0x2c build/FreeRTOS/production/_ext/172253694/crypt_aes_u2238.o
 .ARM.attributes
                0x0000000000000000       0x39 build/FreeRTOS/production/_ext/172253694/crypt_aes_u2238.o
 .text          0x0000000000000000        0x0 build/FreeRTOS/production/_ext/172253694/crypt_aes_sam6149.o
 .data          0x0000000000000000        0x0 build/FreeRTOS/production/_ext/172253694/crypt_aes_sam6149.o
 .bss           0x0000000000000000        0x0 build/FreeRTOS/production/_ext/172253694/crypt_aes_sam6149.o
 .debug_info    0x0000000000000000       0x79 build/FreeRTOS/production/_ext/172253694/crypt_aes_sam6149.o
 .debug_abbrev  0x0000000000000000       0x26 build/FreeRTOS/production/_ext/172253694/crypt_aes_sam6149.o
 .debug_aranges
                0x0000000000000000       0x18 build/FreeRTOS/production/_ext/172253694/crypt_aes_sam6149.o
 .debug_line    0x0000000000000000       0x1d build/FreeRTOS/production/_ext/172253694/crypt_aes_sam6149.o
 .debug_str     0x0000000000000000      0x2eb build/FreeRTOS/production/_ext/172253694/crypt_aes_sam6149.o
 .comment       0x0000000000000000       0x2c build/FreeRTOS/production/_ext/172253694/crypt_aes_sam6149.o
 .ARM.attributes
                0x0000000000000000       0x39 build/FreeRTOS/production/_ext/172253694/crypt_aes_sam6149.o
 .text          0x0000000000000000        0x0 build/FreeRTOS/production/_ext/172253694/crypt_sha1_sam11105.o
 .data          0x0000000000000000        0x0 build/FreeRTOS/production/_ext/172253694/crypt_sha1_sam11105.o
 .bss           0x0000000000000000        0x0 build/FreeRTOS/production/_ext/172253694/crypt_sha1_sam11105.o
 .debug_info    0x0000000000000000       0x79 build/FreeRTOS/production/_ext/172253694/crypt_sha1_sam11105.o
 .debug_abbrev  0x0000000000000000       0x26 build/FreeRTOS/production/_ext/172253694/crypt_sha1_sam11105.o
 .debug_aranges
                0x0000000000000000       0x18 build/FreeRTOS/production/_ext/172253694/crypt_sha1_sam11105.o
 .debug_line    0x0000000000000000       0x1d build/FreeRTOS/production/_ext/172253694/crypt_sha1_sam11105.o
 .debug_str     0x0000000000000000      0x2ed build/FreeRTOS/production/_ext/172253694/crypt_sha1_sam11105.o
 .comment       0x0000000000000000       0x2c build/FreeRTOS/production/_ext/172253694/crypt_sha1_sam11105.o
 .ARM.attributes
                0x0000000000000000       0x39 build/FreeRTOS/production/_ext/172253694/crypt_sha1_sam11105.o
 .text          0x0000000000000000        0x0 build/FreeRTOS/production/_ext/172253694/crypt_rsa_pukcl.o
 .data          0x0000000000000000        0x0 build/FreeRTOS/production/_ext/172253694/crypt_rsa_pukcl.o
 .bss           0x0000000000000000        0x0 build/FreeRTOS/production/_ext/172253694/crypt_rsa_pukcl.o
 .debug_info    0x0000000000000000       0x79 build/FreeRTOS/production/_ext/172253694/crypt_rsa_pukcl.o
 .debug_abbrev  0x0000000000000000       0x26 build/FreeRTOS/production/_ext/172253694/crypt_rsa_pukcl.o
 .debug_aranges
                0x0000000000000000       0x18 build/FreeRTOS/production/_ext/172253694/crypt_rsa_pukcl.o
 .debug_line    0x0000000000000000       0x1d build/FreeRTOS/production/_ext/172253694/crypt_rsa_pukcl.o
 .debug_str     0x0000000000000000      0x2e9 build/FreeRTOS/production/_ext/172253694/crypt_rsa_pukcl.o
 .comment       0x0000000000000000       0x2c build/FreeRTOS/production/_ext/172253694/crypt_rsa_pukcl.o
 .ARM.attributes
                0x0000000000000000       0x39 build/FreeRTOS/production/_ext/172253694/crypt_rsa_pukcl.o
 .text          0x0000000000000000        0x0 build/FreeRTOS/production/_ext/172253694/crypt_tdes_sam6150.o
 .data          0x0000000000000000        0x0 build/FreeRTOS/production/_ext/172253694/crypt_tdes_sam6150.o
 .bss           0x0000000000000000        0x0 build/FreeRTOS/production/_ext/172253694/crypt_tdes_sam6150.o
 .debug_info    0x0000000000000000       0x72 build/FreeRTOS/production/_ext/172253694/crypt_tdes_sam6150.o
 .debug_abbrev  0x0000000000000000       0x26 build/FreeRTOS/production/_ext/172253694/crypt_tdes_sam6150.o
 .debug_aranges
                0x0000000000000000       0x18 build/FreeRTOS/production/_ext/172253694/crypt_tdes_sam6150.o
 .debug_line    0x0000000000000000       0x1d build/FreeRTOS/production/_ext/172253694/crypt_tdes_sam6150.o
 .debug_str     0x0000000000000000      0x2e0 build/FreeRTOS/production/_ext/172253694/crypt_tdes_sam6150.o
 .comment       0x0000000000000000       0x2c build/FreeRTOS/production/_ext/172253694/crypt_tdes_sam6150.o
 .ARM.attributes
                0x0000000000000000       0x39 build/FreeRTOS/production/_ext/172253694/crypt_tdes_sam6150.o
 .text          0x0000000000000000        0x0 build/FreeRTOS/production/_ext/172253694/crypt_wolfcryptcb.o
 .data          0x0000000000000000        0x0 build/FreeRTOS/production/_ext/172253694/crypt_wolfcryptcb.o
 .bss           0x0000000000000000        0x0 build/FreeRTOS/production/_ext/172253694/crypt_wolfcryptcb.o
 .text          0x0000000000000000        0x0 build/FreeRTOS/production/_ext/172253694/crypt_sha224_sam11105.o
 .data          0x0000000000000000        0x0 build/FreeRTOS/production/_ext/172253694/crypt_sha224_sam11105.o
 .bss           0x0000000000000000        0x0 build/FreeRTOS/production/_ext/172253694/crypt_sha224_sam11105.o
 .debug_info    0x0000000000000000       0x79 build/FreeRTOS/production/_ext/172253694/crypt_sha224_sam11105.o
 .debug_abbrev  0x0000000000000000       0x26 build/FreeRTOS/production/_ext/172253694/crypt_sha224_sam11105.o
 .debug_aranges
                0x0000000000000000       0x18 build/FreeRTOS/production/_ext/172253694/crypt_sha224_sam11105.o
 .debug_line    0x0000000000000000       0x1d build/FreeRTOS/production/_ext/172253694/crypt_sha224_sam11105.o
 .debug_str     0x0000000000000000      0x2ef build/FreeRTOS/production/_ext/172253694/crypt_sha224_sam11105.o
 .comment       0x0000000000000000       0x2c build/FreeRTOS/production/_ext/172253694/crypt_sha224_sam11105.o
 .ARM.attributes
                0x0000000000000000       0x39 build/FreeRTOS/production/_ext/172253694/crypt_sha224_sam11105.o
 .text          0x0000000000000000        0x0 build/FreeRTOS/production/_ext/172253694/crypt_ecc_pukcl.o
 .data          0x0000000000000000        0x0 build/FreeRTOS/production/_ext/172253694/crypt_ecc_pukcl.o
 .bss           0x0000000000000000        0x0 build/FreeRTOS/production/_ext/172253694/crypt_ecc_pukcl.o
 .debug_info    0x0000000000000000       0x79 build/FreeRTOS/production/_ext/172253694/crypt_ecc_pukcl.o
 .debug_abbrev  0x0000000000000000       0x26 build/FreeRTOS/production/_ext/172253694/crypt_ecc_pukcl.o
 .debug_aranges
                0x0000000000000000       0x18 build/FreeRTOS/production/_ext/172253694/crypt_ecc_pukcl.o
 .debug_line    0x0000000000000000       0x1d build/FreeRTOS/production/_ext/172253694/crypt_ecc_pukcl.o
 .debug_str     0x0000000000000000      0x2e9 build/FreeRTOS/production/_ext/172253694/crypt_ecc_pukcl.o
 .comment       0x0000000000000000       0x2c build/FreeRTOS/production/_ext/172253694/crypt_ecc_pukcl.o
 .ARM.attributes
                0x0000000000000000       0x39 build/FreeRTOS/production/_ext/172253694/crypt_ecc_pukcl.o
 .text          0x0000000000000000        0x0 build/FreeRTOS/production/_ext/172253694/crypt_sha224_sam6156.o
 .data          0x0000000000000000        0x0 build/FreeRTOS/production/_ext/172253694/crypt_sha224_sam6156.o
 .bss           0x0000000000000000        0x0 build/FreeRTOS/production/_ext/172253694/crypt_sha224_sam6156.o
 .debug_info    0x0000000000000000       0x79 build/FreeRTOS/production/_ext/172253694/crypt_sha224_sam6156.o
 .debug_abbrev  0x0000000000000000       0x26 build/FreeRTOS/production/_ext/172253694/crypt_sha224_sam6156.o
 .debug_aranges
                0x0000000000000000       0x18 build/FreeRTOS/production/_ext/172253694/crypt_sha224_sam6156.o
 .debug_line    0x0000000000000000       0x1d build/FreeRTOS/production/_ext/172253694/crypt_sha224_sam6156.o
 .debug_str     0x0000000000000000      0x2ee build/FreeRTOS/production/_ext/172253694/crypt_sha224_sam6156.o
 .comment       0x0000000000000000       0x2c build/FreeRTOS/production/_ext/172253694/crypt_sha224_sam6156.o
 .ARM.attributes
                0x0000000000000000       0x39 build/FreeRTOS/production/_ext/172253694/crypt_sha224_sam6156.o
 .text          0x0000000000000000        0x0 build/FreeRTOS/production/_ext/172253694/crypt_sha256_sam11105.o
 .data          0x0000000000000000        0x0 build/FreeRTOS/production/_ext/172253694/crypt_sha256_sam11105.o
 .bss           0x0000000000000000        0x0 build/FreeRTOS/production/_ext/172253694/crypt_sha256_sam11105.o
 .debug_info    0x0000000000000000       0x79 build/FreeRTOS/production/_ext/172253694/crypt_sha256_sam11105.o
 .debug_abbrev  0x0000000000000000       0x26 build/FreeRTOS/production/_ext/172253694/crypt_sha256_sam11105.o
 .debug_aranges
                0x0000000000000000       0x18 build/FreeRTOS/production/_ext/172253694/crypt_sha256_sam11105.o
 .debug_line    0x0000000000000000       0x1d build/FreeRTOS/production/_ext/172253694/crypt_sha256_sam11105.o
 .debug_str     0x0000000000000000      0x2ef build/FreeRTOS/production/_ext/172253694/crypt_sha256_sam11105.o
 .comment       0x0000000000000000       0x2c build/FreeRTOS/production/_ext/172253694/crypt_sha256_sam11105.o
 .ARM.attributes
                0x0000000000000000       0x39 build/FreeRTOS/production/_ext/172253694/crypt_sha256_sam11105.o
 .text          0x0000000000000000        0x0 build/FreeRTOS/production/_ext/172253694/pic32mz-crypt.o
 .data          0x0000000000000000        0x0 build/FreeRTOS/production/_ext/172253694/pic32mz-crypt.o
 .bss           0x0000000000000000        0x0 build/FreeRTOS/production/_ext/172253694/pic32mz-crypt.o
 .debug_info    0x0000000000000000       0x79 build/FreeRTOS/production/_ext/172253694/pic32mz-crypt.o
 .debug_abbrev  0x0000000000000000       0x26 build/FreeRTOS/production/_ext/172253694/pic32mz-crypt.o
 .debug_aranges
                0x0000000000000000       0x18 build/FreeRTOS/production/_ext/172253694/pic32mz-crypt.o
 .debug_line    0x0000000000000000       0x1d build/FreeRTOS/production/_ext/172253694/pic32mz-crypt.o
 .debug_str     0x0000000000000000      0x2e7 build/FreeRTOS/production/_ext/172253694/pic32mz-crypt.o
 .comment       0x0000000000000000       0x2c build/FreeRTOS/production/_ext/172253694/pic32mz-crypt.o
 .ARM.attributes
                0x0000000000000000       0x39 build/FreeRTOS/production/_ext/172253694/pic32mz-crypt.o
 .text          0x0000000000000000        0x0 build/FreeRTOS/production/_ext/172253694/crypt_sam_u2803.o
 .data          0x0000000000000000        0x0 build/FreeRTOS/production/_ext/172253694/crypt_sam_u2803.o
 .bss           0x0000000000000000        0x0 build/FreeRTOS/production/_ext/172253694/crypt_sam_u2803.o
 .debug_info    0x0000000000000000       0x72 build/FreeRTOS/production/_ext/172253694/crypt_sam_u2803.o
 .debug_abbrev  0x0000000000000000       0x26 build/FreeRTOS/production/_ext/172253694/crypt_sam_u2803.o
 .debug_aranges
                0x0000000000000000       0x18 build/FreeRTOS/production/_ext/172253694/crypt_sam_u2803.o
 .debug_line    0x0000000000000000       0x1d build/FreeRTOS/production/_ext/172253694/crypt_sam_u2803.o
 .debug_str     0x0000000000000000      0x2dd build/FreeRTOS/production/_ext/172253694/crypt_sam_u2803.o
 .comment       0x0000000000000000       0x2c build/FreeRTOS/production/_ext/172253694/crypt_sam_u2803.o
 .ARM.attributes
                0x0000000000000000       0x39 build/FreeRTOS/production/_ext/172253694/crypt_sam_u2803.o
 .text          0x0000000000000000        0x0 build/FreeRTOS/production/_ext/172253694/crypt_rng_sam6334.o
 .data          0x0000000000000000        0x0 build/FreeRTOS/production/_ext/172253694/crypt_rng_sam6334.o
 .bss           0x0000000000000000        0x0 build/FreeRTOS/production/_ext/172253694/crypt_rng_sam6334.o
 .debug_info    0x0000000000000000       0x79 build/FreeRTOS/production/_ext/172253694/crypt_rng_sam6334.o
 .debug_abbrev  0x0000000000000000       0x26 build/FreeRTOS/production/_ext/172253694/crypt_rng_sam6334.o
 .debug_aranges
                0x0000000000000000       0x18 build/FreeRTOS/production/_ext/172253694/crypt_rng_sam6334.o
 .debug_line    0x0000000000000000       0x1d build/FreeRTOS/production/_ext/172253694/crypt_rng_sam6334.o
 .debug_str     0x0000000000000000      0x2eb build/FreeRTOS/production/_ext/172253694/crypt_rng_sam6334.o
 .comment       0x0000000000000000       0x2c build/FreeRTOS/production/_ext/172253694/crypt_rng_sam6334.o
 .ARM.attributes
                0x0000000000000000       0x39 build/FreeRTOS/production/_ext/172253694/crypt_rng_sam6334.o
 .text          0x0000000000000000        0x0 build/FreeRTOS/production/_ext/172253694/crypt_sha256_sam6156.o
 .data          0x0000000000000000        0x0 build/FreeRTOS/production/_ext/172253694/crypt_sha256_sam6156.o
 .bss           0x0000000000000000        0x0 build/FreeRTOS/production/_ext/172253694/crypt_sha256_sam6156.o
 .debug_info    0x0000000000000000       0x79 build/FreeRTOS/production/_ext/172253694/crypt_sha256_sam6156.o
 .debug_abbrev  0x0000000000000000       0x26 build/FreeRTOS/production/_ext/172253694/crypt_sha256_sam6156.o
 .debug_aranges
                0x0000000000000000       0x18 build/FreeRTOS/production/_ext/172253694/crypt_sha256_sam6156.o
 .debug_line    0x0000000000000000       0x1d build/FreeRTOS/production/_ext/172253694/crypt_sha256_sam6156.o
 .debug_str     0x0000000000000000      0x2ee build/FreeRTOS/production/_ext/172253694/crypt_sha256_sam6156.o
 .comment       0x0000000000000000       0x2c build/FreeRTOS/production/_ext/172253694/crypt_sha256_sam6156.o
 .ARM.attributes
                0x0000000000000000       0x39 build/FreeRTOS/production/_ext/172253694/crypt_sha256_sam6156.o
 .text          0x0000000000000000        0x0 build/FreeRTOS/production/_ext/172253694/crypt_ecc_ba414e.o
 .data          0x0000000000000000        0x0 build/FreeRTOS/production/_ext/172253694/crypt_ecc_ba414e.o
 .bss           0x0000000000000000        0x0 build/FreeRTOS/production/_ext/172253694/crypt_ecc_ba414e.o
 .debug_info    0x0000000000000000       0x72 build/FreeRTOS/production/_ext/172253694/crypt_ecc_ba414e.o
 .debug_abbrev  0x0000000000000000       0x26 build/FreeRTOS/production/_ext/172253694/crypt_ecc_ba414e.o
 .debug_aranges
                0x0000000000000000       0x18 build/FreeRTOS/production/_ext/172253694/crypt_ecc_ba414e.o
 .debug_line    0x0000000000000000       0x1d build/FreeRTOS/production/_ext/172253694/crypt_ecc_ba414e.o
 .debug_str     0x0000000000000000      0x2de build/FreeRTOS/production/_ext/172253694/crypt_ecc_ba414e.o
 .comment       0x0000000000000000       0x2c build/FreeRTOS/production/_ext/172253694/crypt_ecc_ba414e.o
 .ARM.attributes
                0x0000000000000000       0x39 build/FreeRTOS/production/_ext/172253694/crypt_ecc_ba414e.o
 .text          0x0000000000000000        0x0 build/FreeRTOS/production/_ext/172253694/crypt_sha1_sam6156.o
 .data          0x0000000000000000        0x0 build/FreeRTOS/production/_ext/172253694/crypt_sha1_sam6156.o
 .bss           0x0000000000000000        0x0 build/FreeRTOS/production/_ext/172253694/crypt_sha1_sam6156.o
 .debug_info    0x0000000000000000       0x79 build/FreeRTOS/production/_ext/172253694/crypt_sha1_sam6156.o
 .debug_abbrev  0x0000000000000000       0x26 build/FreeRTOS/production/_ext/172253694/crypt_sha1_sam6156.o
 .debug_aranges
                0x0000000000000000       0x18 build/FreeRTOS/production/_ext/172253694/crypt_sha1_sam6156.o
 .debug_line    0x0000000000000000       0x1d build/FreeRTOS/production/_ext/172253694/crypt_sha1_sam6156.o
 .debug_str     0x0000000000000000      0x2ec build/FreeRTOS/production/_ext/172253694/crypt_sha1_sam6156.o
 .comment       0x0000000000000000       0x2c build/FreeRTOS/production/_ext/172253694/crypt_sha1_sam6156.o
 .ARM.attributes
                0x0000000000000000       0x39 build/FreeRTOS/production/_ext/172253694/crypt_sha1_sam6156.o
 .text          0x0000000000000000        0x0 build/FreeRTOS/production/_ext/172253694/crypt_sha512_sam6156.o
 .data          0x0000000000000000        0x0 build/FreeRTOS/production/_ext/172253694/crypt_sha512_sam6156.o
 .bss           0x0000000000000000        0x0 build/FreeRTOS/production/_ext/172253694/crypt_sha512_sam6156.o
 .debug_info    0x0000000000000000       0x79 build/FreeRTOS/production/_ext/172253694/crypt_sha512_sam6156.o
 .debug_abbrev  0x0000000000000000       0x26 build/FreeRTOS/production/_ext/172253694/crypt_sha512_sam6156.o
 .debug_aranges
                0x0000000000000000       0x18 build/FreeRTOS/production/_ext/172253694/crypt_sha512_sam6156.o
 .debug_line    0x0000000000000000       0x1d build/FreeRTOS/production/_ext/172253694/crypt_sha512_sam6156.o
 .debug_str     0x0000000000000000      0x2ee build/FreeRTOS/production/_ext/172253694/crypt_sha512_sam6156.o
 .comment       0x0000000000000000       0x2c build/FreeRTOS/production/_ext/172253694/crypt_sha512_sam6156.o
 .ARM.attributes
                0x0000000000000000       0x39 build/FreeRTOS/production/_ext/172253694/crypt_sha512_sam6156.o
 .text          0x0000000000000000        0x0 build/FreeRTOS/production/_ext/172253694/crypt_pukcl_functions.o
 .data          0x0000000000000000        0x0 build/FreeRTOS/production/_ext/172253694/crypt_pukcl_functions.o
 .bss           0x0000000000000000        0x0 build/FreeRTOS/production/_ext/172253694/crypt_pukcl_functions.o
 .text.crypt_pukcl_SelfTest
                0x0000000000000000       0x88 build/FreeRTOS/production/_ext/172253694/crypt_pukcl_functions.o
 .text.SecureCopy
                0x0000000000000000       0x50 build/FreeRTOS/production/_ext/172253694/crypt_pukcl_functions.o
 .bss.PUKCLParam
                0x0000000000000000       0x30 build/FreeRTOS/production/_ext/172253694/crypt_pukcl_functions.o
 .bss.SelfTestState
                0x0000000000000000        0x1 build/FreeRTOS/production/_ext/172253694/crypt_pukcl_functions.o
 .bss.pvPUKCLParam
                0x0000000000000000        0x4 build/FreeRTOS/production/_ext/172253694/crypt_pukcl_functions.o
 .debug_info    0x0000000000000000     0x1df5 build/FreeRTOS/production/_ext/172253694/crypt_pukcl_functions.o
 .debug_abbrev  0x0000000000000000      0x1f9 build/FreeRTOS/production/_ext/172253694/crypt_pukcl_functions.o
 .debug_loc     0x0000000000000000      0x223 build/FreeRTOS/production/_ext/172253694/crypt_pukcl_functions.o
 .debug_aranges
                0x0000000000000000       0x28 build/FreeRTOS/production/_ext/172253694/crypt_pukcl_functions.o
 .debug_ranges  0x0000000000000000       0x18 build/FreeRTOS/production/_ext/172253694/crypt_pukcl_functions.o
 .debug_line    0x0000000000000000      0x54d build/FreeRTOS/production/_ext/172253694/crypt_pukcl_functions.o
 .debug_str     0x0000000000000000     0x1084 build/FreeRTOS/production/_ext/172253694/crypt_pukcl_functions.o
 .comment       0x0000000000000000       0x2c build/FreeRTOS/production/_ext/172253694/crypt_pukcl_functions.o
 .debug_frame   0x0000000000000000       0x4c build/FreeRTOS/production/_ext/172253694/crypt_pukcl_functions.o
 .ARM.attributes
                0x0000000000000000       0x34 build/FreeRTOS/production/_ext/172253694/crypt_pukcl_functions.o
 .text          0x0000000000000000        0x0 build/FreeRTOS/production/_ext/1664057780/aes.o
 .data          0x0000000000000000        0x0 build/FreeRTOS/production/_ext/1664057780/aes.o
 .bss           0x0000000000000000        0x0 build/FreeRTOS/production/_ext/1664057780/aes.o
 .text.col_mul  0x0000000000000000       0x3a build/FreeRTOS/production/_ext/1664057780/aes.o
 .text.inv_col_mul
                0x0000000000000000       0x66 build/FreeRTOS/production/_ext/1664057780/aes.o
 .text.wc_AesEncrypt
                0x0000000000000000      0x3a4 build/FreeRTOS/production/_ext/1664057780/aes.o
 .text.wc_AesDecrypt
                0x0000000000000000      0x3ac build/FreeRTOS/production/_ext/1664057780/aes.o
 .text.GMULT    0x0000000000000000       0xb4 build/FreeRTOS/production/_ext/1664057780/aes.o
 .text.roll_x   0x0000000000000000       0xc4 build/FreeRTOS/production/_ext/1664057780/aes.o
 .text.roll_auth
                0x0000000000000000       0xfc build/FreeRTOS/production/_ext/1664057780/aes.o
 .text.wc_AesSetIV
                0x0000000000000000       0x4a build/FreeRTOS/production/_ext/1664057780/aes.o
 .text.wc_AesSetKeyLocal
                0x0000000000000000      0x28c build/FreeRTOS/production/_ext/1664057780/aes.o
 .text.wc_AesSetKey
                0x0000000000000000       0x26 build/FreeRTOS/production/_ext/1664057780/aes.o
 .text.wc_AesSetKeyDirect
                0x0000000000000000       0x26 build/FreeRTOS/production/_ext/1664057780/aes.o
 .text.wc_AesEncryptDirect
                0x0000000000000000        0xe build/FreeRTOS/production/_ext/1664057780/aes.o
 .text.wc_AesDecryptDirect
                0x0000000000000000        0xe build/FreeRTOS/production/_ext/1664057780/aes.o
 .text.wc_AesCbcEncrypt
                0x0000000000000000       0xd4 build/FreeRTOS/production/_ext/1664057780/aes.o
 .text.wc_AesCbcDecrypt
                0x0000000000000000      0x100 build/FreeRTOS/production/_ext/1664057780/aes.o
 .text.wc_AesGcmSetKey
                0x0000000000000000       0x68 build/FreeRTOS/production/_ext/1664057780/aes.o
 .text.GHASH    0x0000000000000000      0x39a build/FreeRTOS/production/_ext/1664057780/aes.o
 .text.wc_AesGcmSetExtIV
                0x0000000000000000       0x4a build/FreeRTOS/production/_ext/1664057780/aes.o
 .text.wc_AesGcmSetIV
                0x0000000000000000       0x86 build/FreeRTOS/production/_ext/1664057780/aes.o
 .text.wc_GmacSetKey
                0x0000000000000000       0x18 build/FreeRTOS/production/_ext/1664057780/aes.o
 .text.wc_AesCcmSetKey
                0x0000000000000000       0x24 build/FreeRTOS/production/_ext/1664057780/aes.o
 .text.wc_AesCcmCheckTagSize
                0x0000000000000000       0x24 build/FreeRTOS/production/_ext/1664057780/aes.o
 .text.wc_AesCcmEncrypt
                0x0000000000000000      0x424 build/FreeRTOS/production/_ext/1664057780/aes.o
 .text.wc_AesCcmDecrypt
                0x0000000000000000      0x4bc build/FreeRTOS/production/_ext/1664057780/aes.o
 .text.wc_AesCcmSetNonce
                0x0000000000000000       0x3c build/FreeRTOS/production/_ext/1664057780/aes.o
 .text.wc_AesCcmEncrypt_ex
                0x0000000000000000       0xda build/FreeRTOS/production/_ext/1664057780/aes.o
 .text.wc_AesInit
                0x0000000000000000       0x1a build/FreeRTOS/production/_ext/1664057780/aes.o
 .text.wc_AesInit_Id
                0x0000000000000000       0x3c build/FreeRTOS/production/_ext/1664057780/aes.o
 .text.wc_AesInit_Label
                0x0000000000000000       0x5e build/FreeRTOS/production/_ext/1664057780/aes.o
 .text.wc_AesFree
                0x0000000000000000       0x1a build/FreeRTOS/production/_ext/1664057780/aes.o
 .text.wc_AesGetKeySize
                0x0000000000000000       0x42 build/FreeRTOS/production/_ext/1664057780/aes.o
 .text.wc_AesEcbEncrypt
                0x0000000000000000       0x62 build/FreeRTOS/production/_ext/1664057780/aes.o
 .text.wc_AesCtrEncrypt
                0x0000000000000000      0x2a8 build/FreeRTOS/production/_ext/1664057780/aes.o
 .text.wc_AesGcmEncrypt
                0x0000000000000000      0x368 build/FreeRTOS/production/_ext/1664057780/aes.o
 .text.wc_AesGcmEncrypt_ex
                0x0000000000000000       0xf4 build/FreeRTOS/production/_ext/1664057780/aes.o
 .text.wc_Gmac  0x0000000000000000       0xc4 build/FreeRTOS/production/_ext/1664057780/aes.o
 .text.wc_GmacUpdate
                0x0000000000000000       0x2c build/FreeRTOS/production/_ext/1664057780/aes.o
 .text.wc_AesGcmDecrypt
                0x0000000000000000      0x364 build/FreeRTOS/production/_ext/1664057780/aes.o
 .text.wc_GmacVerify
                0x0000000000000000       0xa4 build/FreeRTOS/production/_ext/1664057780/aes.o
 .text.wc_AesEcbDecrypt
                0x0000000000000000       0x62 build/FreeRTOS/production/_ext/1664057780/aes.o
 .text.wc_AesOfbEncrypt
                0x0000000000000000      0x174 build/FreeRTOS/production/_ext/1664057780/aes.o
 .text.wc_AesOfbDecrypt
                0x0000000000000000      0x174 build/FreeRTOS/production/_ext/1664057780/aes.o
 .rodata.Td4    0x0000000000000000      0x100 build/FreeRTOS/production/_ext/1664057780/aes.o
 .rodata.Tsbox  0x0000000000000000      0x100 build/FreeRTOS/production/_ext/1664057780/aes.o
 .rodata.rcon   0x0000000000000000       0x28 build/FreeRTOS/production/_ext/1664057780/aes.o
 .debug_info    0x0000000000000000     0x7786 build/FreeRTOS/production/_ext/1664057780/aes.o
 .debug_abbrev  0x0000000000000000      0x557 build/FreeRTOS/production/_ext/1664057780/aes.o
 .debug_loc     0x0000000000000000     0xb540 build/FreeRTOS/production/_ext/1664057780/aes.o
 .debug_aranges
                0x0000000000000000      0x168 build/FreeRTOS/production/_ext/1664057780/aes.o
 .debug_ranges  0x0000000000000000      0xbb0 build/FreeRTOS/production/_ext/1664057780/aes.o
 .debug_line    0x0000000000000000     0x3a9b build/FreeRTOS/production/_ext/1664057780/aes.o
 .debug_str     0x0000000000000000     0x1b86 build/FreeRTOS/production/_ext/1664057780/aes.o
 .comment       0x0000000000000000       0x2c build/FreeRTOS/production/_ext/1664057780/aes.o
 .debug_frame   0x0000000000000000      0x6c4 build/FreeRTOS/production/_ext/1664057780/aes.o
 .ARM.attributes
                0x0000000000000000       0x34 build/FreeRTOS/production/_ext/1664057780/aes.o
 .text          0x0000000000000000        0x0 build/FreeRTOS/production/_ext/1664057780/dsa.o
 .data          0x0000000000000000        0x0 build/FreeRTOS/production/_ext/1664057780/dsa.o
 .bss           0x0000000000000000        0x0 build/FreeRTOS/production/_ext/1664057780/dsa.o
 .debug_info    0x0000000000000000       0x79 build/FreeRTOS/production/_ext/1664057780/dsa.o
 .debug_abbrev  0x0000000000000000       0x26 build/FreeRTOS/production/_ext/1664057780/dsa.o
 .debug_aranges
                0x0000000000000000       0x18 build/FreeRTOS/production/_ext/1664057780/dsa.o
 .debug_line    0x0000000000000000       0x1d build/FreeRTOS/production/_ext/1664057780/dsa.o
 .debug_str     0x0000000000000000      0x2d2 build/FreeRTOS/production/_ext/1664057780/dsa.o
 .comment       0x0000000000000000       0x2c build/FreeRTOS/production/_ext/1664057780/dsa.o
 .ARM.attributes
                0x0000000000000000       0x39 build/FreeRTOS/production/_ext/1664057780/dsa.o
 .text          0x0000000000000000        0x0 build/FreeRTOS/production/_ext/1664057780/wc_dsp.o
 .data          0x0000000000000000        0x0 build/FreeRTOS/production/_ext/1664057780/wc_dsp.o
 .bss           0x0000000000000000        0x0 build/FreeRTOS/production/_ext/1664057780/wc_dsp.o
 .debug_info    0x0000000000000000       0x79 build/FreeRTOS/production/_ext/1664057780/wc_dsp.o
 .debug_abbrev  0x0000000000000000       0x26 build/FreeRTOS/production/_ext/1664057780/wc_dsp.o
 .debug_aranges
                0x0000000000000000       0x18 build/FreeRTOS/production/_ext/1664057780/wc_dsp.o
 .debug_line    0x0000000000000000       0x1d build/FreeRTOS/production/_ext/1664057780/wc_dsp.o
 .debug_str     0x0000000000000000      0x2d5 build/FreeRTOS/production/_ext/1664057780/wc_dsp.o
 .comment       0x0000000000000000       0x2c build/FreeRTOS/production/_ext/1664057780/wc_dsp.o
 .ARM.attributes
                0x0000000000000000       0x39 build/FreeRTOS/production/_ext/1664057780/wc_dsp.o
 .text          0x0000000000000000        0x0 build/FreeRTOS/production/_ext/1664057780/md5.o
 .data          0x0000000000000000        0x0 build/FreeRTOS/production/_ext/1664057780/md5.o
 .bss           0x0000000000000000        0x0 build/FreeRTOS/production/_ext/1664057780/md5.o
 .text.wc_Md5Free
                0x0000000000000000        0x2 build/FreeRTOS/production/_ext/1664057780/md5.o
 .text.wc_Md5Copy
                0x0000000000000000       0x2a build/FreeRTOS/production/_ext/1664057780/md5.o
 .text.wc_Md5GetHash
                0x0000000000000000       0x34 build/FreeRTOS/production/_ext/1664057780/md5.o
 .text.wc_Md5SetFlags
                0x0000000000000000        0x8 build/FreeRTOS/production/_ext/1664057780/md5.o
 .text.wc_Md5GetFlags
                0x0000000000000000        0xc build/FreeRTOS/production/_ext/1664057780/md5.o
 .text          0x0000000000000000        0x0 build/FreeRTOS/production/_ext/1664057780/ecc_fp.o
 .data          0x0000000000000000        0x0 build/FreeRTOS/production/_ext/1664057780/ecc_fp.o
 .bss           0x0000000000000000        0x0 build/FreeRTOS/production/_ext/1664057780/ecc_fp.o
 .debug_line    0x0000000000000000        0x0 build/FreeRTOS/production/_ext/1664057780/ecc_fp.o
 .debug_str     0x0000000000000000      0x239 build/FreeRTOS/production/_ext/1664057780/ecc_fp.o
 .comment       0x0000000000000000       0x2c build/FreeRTOS/production/_ext/1664057780/ecc_fp.o
 .ARM.attributes
                0x0000000000000000       0x39 build/FreeRTOS/production/_ext/1664057780/ecc_fp.o
 .text          0x0000000000000000        0x0 build/FreeRTOS/production/_ext/1664057780/arc4.o
 .data          0x0000000000000000        0x0 build/FreeRTOS/production/_ext/1664057780/arc4.o
 .bss           0x0000000000000000        0x0 build/FreeRTOS/production/_ext/1664057780/arc4.o
 .debug_info    0x0000000000000000       0x79 build/FreeRTOS/production/_ext/1664057780/arc4.o
 .debug_abbrev  0x0000000000000000       0x26 build/FreeRTOS/production/_ext/1664057780/arc4.o
 .debug_aranges
                0x0000000000000000       0x18 build/FreeRTOS/production/_ext/1664057780/arc4.o
 .debug_line    0x0000000000000000       0x1d build/FreeRTOS/production/_ext/1664057780/arc4.o
 .debug_str     0x0000000000000000      0x2d3 build/FreeRTOS/production/_ext/1664057780/arc4.o
 .comment       0x0000000000000000       0x2c build/FreeRTOS/production/_ext/1664057780/arc4.o
 .ARM.attributes
                0x0000000000000000       0x39 build/FreeRTOS/production/_ext/1664057780/arc4.o
 .text          0x0000000000000000        0x0 build/FreeRTOS/production/_ext/1664057780/md4.o
 .data          0x0000000000000000        0x0 build/FreeRTOS/production/_ext/1664057780/md4.o
 .bss           0x0000000000000000        0x0 build/FreeRTOS/production/_ext/1664057780/md4.o
 .debug_info    0x0000000000000000       0x79 build/FreeRTOS/production/_ext/1664057780/md4.o
 .debug_abbrev  0x0000000000000000       0x26 build/FreeRTOS/production/_ext/1664057780/md4.o
 .debug_aranges
                0x0000000000000000       0x18 build/FreeRTOS/production/_ext/1664057780/md4.o
 .debug_line    0x0000000000000000       0x1d build/FreeRTOS/production/_ext/1664057780/md4.o
 .debug_str     0x0000000000000000      0x2d2 build/FreeRTOS/production/_ext/1664057780/md4.o
 .comment       0x0000000000000000       0x2c build/FreeRTOS/production/_ext/1664057780/md4.o
 .ARM.attributes
                0x0000000000000000       0x39 build/FreeRTOS/production/_ext/1664057780/md4.o
 .text          0x0000000000000000        0x0 build/FreeRTOS/production/_ext/1664057780/curve25519.o
 .data          0x0000000000000000        0x0 build/FreeRTOS/production/_ext/1664057780/curve25519.o
 .bss           0x0000000000000000        0x0 build/FreeRTOS/production/_ext/1664057780/curve25519.o
 .debug_info    0x0000000000000000       0x79 build/FreeRTOS/production/_ext/1664057780/curve25519.o
 .debug_abbrev  0x0000000000000000       0x26 build/FreeRTOS/production/_ext/1664057780/curve25519.o
 .debug_aranges
                0x0000000000000000       0x18 build/FreeRTOS/production/_ext/1664057780/curve25519.o
 .debug_line    0x0000000000000000       0x1d build/FreeRTOS/production/_ext/1664057780/curve25519.o
 .debug_str     0x0000000000000000      0x2d9 build/FreeRTOS/production/_ext/1664057780/curve25519.o
 .comment       0x0000000000000000       0x2c build/FreeRTOS/production/_ext/1664057780/curve25519.o
 .ARM.attributes
                0x0000000000000000       0x39 build/FreeRTOS/production/_ext/1664057780/curve25519.o
 .text          0x0000000000000000        0x0 build/FreeRTOS/production/_ext/1664057780/sha.o
 .data          0x0000000000000000        0x0 build/FreeRTOS/production/_ext/1664057780/sha.o
 .bss           0x0000000000000000        0x0 build/FreeRTOS/production/_ext/1664057780/sha.o
 .text.Transform
                0x0000000000000000      0xda0 build/FreeRTOS/production/_ext/1664057780/sha.o
 .text.wc_InitSha_ex
                0x0000000000000000       0x48 build/FreeRTOS/production/_ext/1664057780/sha.o
 .text.wc_ShaUpdate
                0x0000000000000000      0x160 build/FreeRTOS/production/_ext/1664057780/sha.o
 .text.wc_ShaFinalRaw
                0x0000000000000000       0x58 build/FreeRTOS/production/_ext/1664057780/sha.o
 .text.wc_ShaFinal
                0x0000000000000000      0x160 build/FreeRTOS/production/_ext/1664057780/sha.o
 .text.wc_InitSha
                0x0000000000000000        0xe build/FreeRTOS/production/_ext/1664057780/sha.o
 .text.wc_ShaFree
                0x0000000000000000        0x2 build/FreeRTOS/production/_ext/1664057780/sha.o
 .text.wc_ShaCopy
                0x0000000000000000       0x2a build/FreeRTOS/production/_ext/1664057780/sha.o
 .text.wc_ShaGetHash
                0x0000000000000000       0x34 build/FreeRTOS/production/_ext/1664057780/sha.o
 .text.wc_ShaSetFlags
                0x0000000000000000        0x8 build/FreeRTOS/production/_ext/1664057780/sha.o
 .text.wc_ShaGetFlags
                0x0000000000000000        0xc build/FreeRTOS/production/_ext/1664057780/sha.o
 .debug_info    0x0000000000000000     0x4113 build/FreeRTOS/production/_ext/1664057780/sha.o
 .debug_abbrev  0x0000000000000000      0x38a build/FreeRTOS/production/_ext/1664057780/sha.o
 .debug_loc     0x0000000000000000     0x6988 build/FreeRTOS/production/_ext/1664057780/sha.o
 .debug_aranges
                0x0000000000000000       0x70 build/FreeRTOS/production/_ext/1664057780/sha.o
 .debug_ranges  0x0000000000000000      0x6d8 build/FreeRTOS/production/_ext/1664057780/sha.o
 .debug_line    0x0000000000000000     0x1db5 build/FreeRTOS/production/_ext/1664057780/sha.o
 .debug_str     0x0000000000000000      0xf12 build/FreeRTOS/production/_ext/1664057780/sha.o
 .comment       0x0000000000000000       0x2c build/FreeRTOS/production/_ext/1664057780/sha.o
 .debug_frame   0x0000000000000000      0x154 build/FreeRTOS/production/_ext/1664057780/sha.o
 .ARM.attributes
                0x0000000000000000       0x34 build/FreeRTOS/production/_ext/1664057780/sha.o
 .text          0x0000000000000000        0x0 build/FreeRTOS/production/_ext/1664057780/sp_armthumb.o
 .data          0x0000000000000000        0x0 build/FreeRTOS/production/_ext/1664057780/sp_armthumb.o
 .bss           0x0000000000000000        0x0 build/FreeRTOS/production/_ext/1664057780/sp_armthumb.o
 .debug_info    0x0000000000000000       0x79 build/FreeRTOS/production/_ext/1664057780/sp_armthumb.o
 .debug_abbrev  0x0000000000000000       0x26 build/FreeRTOS/production/_ext/1664057780/sp_armthumb.o
 .debug_aranges
                0x0000000000000000       0x18 build/FreeRTOS/production/_ext/1664057780/sp_armthumb.o
 .debug_line    0x0000000000000000       0x1d build/FreeRTOS/production/_ext/1664057780/sp_armthumb.o
 .debug_str     0x0000000000000000      0x2da build/FreeRTOS/production/_ext/1664057780/sp_armthumb.o
 .comment       0x0000000000000000       0x2c build/FreeRTOS/production/_ext/1664057780/sp_armthumb.o
 .ARM.attributes
                0x0000000000000000       0x39 build/FreeRTOS/production/_ext/1664057780/sp_armthumb.o
 .text          0x0000000000000000        0x0 build/FreeRTOS/production/_ext/1664057780/srp.o
 .data          0x0000000000000000        0x0 build/FreeRTOS/production/_ext/1664057780/srp.o
 .bss           0x0000000000000000        0x0 build/FreeRTOS/production/_ext/1664057780/srp.o
 .debug_info    0x0000000000000000       0x79 build/FreeRTOS/production/_ext/1664057780/srp.o
 .debug_abbrev  0x0000000000000000       0x26 build/FreeRTOS/production/_ext/1664057780/srp.o
 .debug_aranges
                0x0000000000000000       0x18 build/FreeRTOS/production/_ext/1664057780/srp.o
 .debug_line    0x0000000000000000       0x1d build/FreeRTOS/production/_ext/1664057780/srp.o
 .debug_str     0x0000000000000000      0x2d2 build/FreeRTOS/production/_ext/1664057780/srp.o
 .comment       0x0000000000000000       0x2c build/FreeRTOS/production/_ext/1664057780/srp.o
 .ARM.attributes
                0x0000000000000000       0x39 build/FreeRTOS/production/_ext/1664057780/srp.o
 .text          0x0000000000000000        0x0 build/FreeRTOS/production/_ext/1664057780/ge_low_mem.o
 .data          0x0000000000000000        0x0 build/FreeRTOS/production/_ext/1664057780/ge_low_mem.o
 .bss           0x0000000000000000        0x0 build/FreeRTOS/production/_ext/1664057780/ge_low_mem.o
 .debug_info    0x0000000000000000       0x79 build/FreeRTOS/production/_ext/1664057780/ge_low_mem.o
 .debug_abbrev  0x0000000000000000       0x26 build/FreeRTOS/production/_ext/1664057780/ge_low_mem.o
 .debug_aranges
                0x0000000000000000       0x18 build/FreeRTOS/production/_ext/1664057780/ge_low_mem.o
 .debug_line    0x0000000000000000       0x1d build/FreeRTOS/production/_ext/1664057780/ge_low_mem.o
 .debug_str     0x0000000000000000      0x2d9 build/FreeRTOS/production/_ext/1664057780/ge_low_mem.o
 .comment       0x0000000000000000       0x2c build/FreeRTOS/production/_ext/1664057780/ge_low_mem.o
 .ARM.attributes
                0x0000000000000000       0x39 build/FreeRTOS/production/_ext/1664057780/ge_low_mem.o
 .text          0x0000000000000000        0x0 build/FreeRTOS/production/_ext/1664057780/rsa.o
 .data          0x0000000000000000        0x0 build/FreeRTOS/production/_ext/1664057780/rsa.o
 .bss           0x0000000000000000        0x0 build/FreeRTOS/production/_ext/1664057780/rsa.o
 .text.wc_RsaCleanup
                0x0000000000000000       0x66 build/FreeRTOS/production/_ext/1664057780/rsa.o
 .text.RsaMGF1  0x0000000000000000       0xd8 build/FreeRTOS/production/_ext/1664057780/rsa.o
 .text.RsaMGF   0x0000000000000000       0x4a build/FreeRTOS/production/_ext/1664057780/rsa.o
 .text.RsaPad_OAEP
                0x0000000000000000      0x1d0 build/FreeRTOS/production/_ext/1664057780/rsa.o
 .text.RsaUnPad_OAEP
                0x0000000000000000      0x1ac build/FreeRTOS/production/_ext/1664057780/rsa.o
 .text.RsaGetValue
                0x0000000000000000       0x2c build/FreeRTOS/production/_ext/1664057780/rsa.o
 .text.wc_InitRsaKey_ex
                0x0000000000000000       0x8c build/FreeRTOS/production/_ext/1664057780/rsa.o
 .text.wc_InitRsaKey
                0x0000000000000000        0xc build/FreeRTOS/production/_ext/1664057780/rsa.o
 .text.wc_InitRsaKey_Id
                0x0000000000000000       0x46 build/FreeRTOS/production/_ext/1664057780/rsa.o
 .text.wc_InitRsaKey_Label
                0x0000000000000000       0x60 build/FreeRTOS/production/_ext/1664057780/rsa.o
 .text.wc_FreeRsaKey
                0x0000000000000000       0x90 build/FreeRTOS/production/_ext/1664057780/rsa.o
 .text.wc_RsaPad_ex
                0x0000000000000000       0xea build/FreeRTOS/production/_ext/1664057780/rsa.o
 .text.wc_RsaUnPad_ex
                0x0000000000000000      0x114 build/FreeRTOS/production/_ext/1664057780/rsa.o
 .text.wc_hash2mgf
                0x0000000000000000       0x1a build/FreeRTOS/production/_ext/1664057780/rsa.o
 .text.wc_RsaEncryptSize
                0x0000000000000000       0x2c build/FreeRTOS/production/_ext/1664057780/rsa.o
 .text.wc_RsaFunction_ex
                0x0000000000000000      0x2f0 build/FreeRTOS/production/_ext/1664057780/rsa.o
 .text.wc_RsaFunction
                0x0000000000000000       0x1c build/FreeRTOS/production/_ext/1664057780/rsa.o
 .text.RsaPrivateDecryptEx
                0x0000000000000000      0x21c build/FreeRTOS/production/_ext/1664057780/rsa.o
 .text.wc_RsaPrivateDecryptInline
                0x0000000000000000       0x2c build/FreeRTOS/production/_ext/1664057780/rsa.o
 .text.wc_RsaPrivateDecryptInline_ex
                0x0000000000000000       0x38 build/FreeRTOS/production/_ext/1664057780/rsa.o
 .text.wc_RsaPrivateDecrypt
                0x0000000000000000       0x2a build/FreeRTOS/production/_ext/1664057780/rsa.o
 .text.wc_RsaPrivateDecrypt_ex
                0x0000000000000000       0x36 build/FreeRTOS/production/_ext/1664057780/rsa.o
 .text.wc_RsaSSL_VerifyInline
                0x0000000000000000       0x2a build/FreeRTOS/production/_ext/1664057780/rsa.o
 .text.wc_RsaSSL_Verify_ex2
                0x0000000000000000       0x54 build/FreeRTOS/production/_ext/1664057780/rsa.o
 .text.wc_RsaSSL_Verify_ex
                0x0000000000000000       0x18 build/FreeRTOS/production/_ext/1664057780/rsa.o
 .text.wc_RsaSSL_Verify
                0x0000000000000000       0x14 build/FreeRTOS/production/_ext/1664057780/rsa.o
 .text.RsaPublicEncryptEx
                0x0000000000000000      0x12c build/FreeRTOS/production/_ext/1664057780/rsa.o
 .text.wc_RsaPublicEncrypt
                0x0000000000000000       0x28 build/FreeRTOS/production/_ext/1664057780/rsa.o
 .text.wc_RsaPublicEncrypt_ex
                0x0000000000000000       0x34 build/FreeRTOS/production/_ext/1664057780/rsa.o
 .text.wc_RsaSSL_Sign
                0x0000000000000000       0x2a build/FreeRTOS/production/_ext/1664057780/rsa.o
 .text.wc_RsaFlattenPublicKey
                0x0000000000000000       0x8a build/FreeRTOS/production/_ext/1664057780/rsa.o
 .text.wc_RsaExportKey
                0x0000000000000000       0xd0 build/FreeRTOS/production/_ext/1664057780/rsa.o
 .debug_info    0x0000000000000000     0x41f7 build/FreeRTOS/production/_ext/1664057780/rsa.o
 .debug_abbrev  0x0000000000000000      0x428 build/FreeRTOS/production/_ext/1664057780/rsa.o
 .debug_loc     0x0000000000000000     0x5121 build/FreeRTOS/production/_ext/1664057780/rsa.o
 .debug_aranges
                0x0000000000000000      0x118 build/FreeRTOS/production/_ext/1664057780/rsa.o
 .debug_ranges  0x0000000000000000      0x450 build/FreeRTOS/production/_ext/1664057780/rsa.o
 .debug_line    0x0000000000000000     0x1613 build/FreeRTOS/production/_ext/1664057780/rsa.o
 .debug_str     0x0000000000000000     0x169f build/FreeRTOS/production/_ext/1664057780/rsa.o
 .comment       0x0000000000000000       0x2c build/FreeRTOS/production/_ext/1664057780/rsa.o
 .debug_frame   0x0000000000000000      0x488 build/FreeRTOS/production/_ext/1664057780/rsa.o
 .ARM.attributes
                0x0000000000000000       0x34 build/FreeRTOS/production/_ext/1664057780/rsa.o
 .text          0x0000000000000000        0x0 build/FreeRTOS/production/_ext/1664057780/wc_encrypt.o
 .data          0x0000000000000000        0x0 build/FreeRTOS/production/_ext/1664057780/wc_encrypt.o
 .bss           0x0000000000000000        0x0 build/FreeRTOS/production/_ext/1664057780/wc_encrypt.o
 .text.wc_AesCbcDecryptWithKey
                0x0000000000000000       0x74 build/FreeRTOS/production/_ext/1664057780/wc_encrypt.o
 .text.wc_AesCbcEncryptWithKey
                0x0000000000000000       0x52 build/FreeRTOS/production/_ext/1664057780/wc_encrypt.o
 .text.wc_Des_CbcEncryptWithKey
                0x0000000000000000       0x30 build/FreeRTOS/production/_ext/1664057780/wc_encrypt.o
 .text.wc_Des_CbcDecryptWithKey
                0x0000000000000000       0x30 build/FreeRTOS/production/_ext/1664057780/wc_encrypt.o
 .text.wc_Des3_CbcEncryptWithKey
                0x0000000000000000       0x4e build/FreeRTOS/production/_ext/1664057780/wc_encrypt.o
 .text.wc_Des3_CbcDecryptWithKey
                0x0000000000000000       0x4e build/FreeRTOS/production/_ext/1664057780/wc_encrypt.o
 .debug_info    0x0000000000000000     0x106a build/FreeRTOS/production/_ext/1664057780/wc_encrypt.o
 .debug_abbrev  0x0000000000000000      0x1d5 build/FreeRTOS/production/_ext/1664057780/wc_encrypt.o
 .debug_loc     0x0000000000000000      0x97d build/FreeRTOS/production/_ext/1664057780/wc_encrypt.o
 .debug_aranges
                0x0000000000000000       0x48 build/FreeRTOS/production/_ext/1664057780/wc_encrypt.o
 .debug_ranges  0x0000000000000000       0x38 build/FreeRTOS/production/_ext/1664057780/wc_encrypt.o
 .debug_line    0x0000000000000000      0x2be build/FreeRTOS/production/_ext/1664057780/wc_encrypt.o
 .debug_str     0x0000000000000000     0x1001 build/FreeRTOS/production/_ext/1664057780/wc_encrypt.o
 .comment       0x0000000000000000       0x2c build/FreeRTOS/production/_ext/1664057780/wc_encrypt.o
 .debug_frame   0x0000000000000000      0x110 build/FreeRTOS/production/_ext/1664057780/wc_encrypt.o
 .ARM.attributes
                0x0000000000000000       0x34 build/FreeRTOS/production/_ext/1664057780/wc_encrypt.o
 .text          0x0000000000000000        0x0 build/FreeRTOS/production/_ext/1664057780/coding.o
 .data          0x0000000000000000        0x0 build/FreeRTOS/production/_ext/1664057780/coding.o
 .bss           0x0000000000000000        0x0 build/FreeRTOS/production/_ext/1664057780/coding.o
 .text.Base64_SkipNewline
                0x0000000000000000       0x90 build/FreeRTOS/production/_ext/1664057780/coding.o
 .text.Base64_Decode
                0x0000000000000000      0x2a8 build/FreeRTOS/production/_ext/1664057780/coding.o
 .rodata.base64Decode
                0x0000000000000000       0x50 build/FreeRTOS/production/_ext/1664057780/coding.o
 .debug_info    0x0000000000000000      0xca2 build/FreeRTOS/production/_ext/1664057780/coding.o
 .debug_abbrev  0x0000000000000000      0x214 build/FreeRTOS/production/_ext/1664057780/coding.o
 .debug_loc     0x0000000000000000      0xbeb build/FreeRTOS/production/_ext/1664057780/coding.o
 .debug_aranges
                0x0000000000000000       0x28 build/FreeRTOS/production/_ext/1664057780/coding.o
 .debug_ranges  0x0000000000000000       0x40 build/FreeRTOS/production/_ext/1664057780/coding.o
 .debug_line    0x0000000000000000      0x484 build/FreeRTOS/production/_ext/1664057780/coding.o
 .debug_str     0x0000000000000000     0x140f build/FreeRTOS/production/_ext/1664057780/coding.o
 .comment       0x0000000000000000       0x2c build/FreeRTOS/production/_ext/1664057780/coding.o
 .debug_frame   0x0000000000000000       0x68 build/FreeRTOS/production/_ext/1664057780/coding.o
 .ARM.attributes
                0x0000000000000000       0x34 build/FreeRTOS/production/_ext/1664057780/coding.o
 .text          0x0000000000000000        0x0 build/FreeRTOS/production/_ext/1664057780/fe_operations.o
 .data          0x0000000000000000        0x0 build/FreeRTOS/production/_ext/1664057780/fe_operations.o
 .bss           0x0000000000000000        0x0 build/FreeRTOS/production/_ext/1664057780/fe_operations.o
 .debug_info    0x0000000000000000       0x79 build/FreeRTOS/production/_ext/1664057780/fe_operations.o
 .debug_abbrev  0x0000000000000000       0x26 build/FreeRTOS/production/_ext/1664057780/fe_operations.o
 .debug_aranges
                0x0000000000000000       0x18 build/FreeRTOS/production/_ext/1664057780/fe_operations.o
 .debug_line    0x0000000000000000       0x1d build/FreeRTOS/production/_ext/1664057780/fe_operations.o
 .debug_str     0x0000000000000000      0x2dc build/FreeRTOS/production/_ext/1664057780/fe_operations.o
 .comment       0x0000000000000000       0x2c build/FreeRTOS/production/_ext/1664057780/fe_operations.o
 .ARM.attributes
                0x0000000000000000       0x39 build/FreeRTOS/production/_ext/1664057780/fe_operations.o
 .text          0x0000000000000000        0x0 build/FreeRTOS/production/_ext/1664057780/md2.o
 .data          0x0000000000000000        0x0 build/FreeRTOS/production/_ext/1664057780/md2.o
 .bss           0x0000000000000000        0x0 build/FreeRTOS/production/_ext/1664057780/md2.o
 .debug_info    0x0000000000000000       0x79 build/FreeRTOS/production/_ext/1664057780/md2.o
 .debug_abbrev  0x0000000000000000       0x26 build/FreeRTOS/production/_ext/1664057780/md2.o
 .debug_aranges
                0x0000000000000000       0x18 build/FreeRTOS/production/_ext/1664057780/md2.o
 .debug_line    0x0000000000000000       0x1d build/FreeRTOS/production/_ext/1664057780/md2.o
 .debug_str     0x0000000000000000      0x2d2 build/FreeRTOS/production/_ext/1664057780/md2.o
 .comment       0x0000000000000000       0x2c build/FreeRTOS/production/_ext/1664057780/md2.o
 .ARM.attributes
                0x0000000000000000       0x39 build/FreeRTOS/production/_ext/1664057780/md2.o
 .text          0x0000000000000000        0x0 build/FreeRTOS/production/_ext/1664057780/fe_448.o
 .data          0x0000000000000000        0x0 build/FreeRTOS/production/_ext/1664057780/fe_448.o
 .bss           0x0000000000000000        0x0 build/FreeRTOS/production/_ext/1664057780/fe_448.o
 .debug_info    0x0000000000000000       0x79 build/FreeRTOS/production/_ext/1664057780/fe_448.o
 .debug_abbrev  0x0000000000000000       0x26 build/FreeRTOS/production/_ext/1664057780/fe_448.o
 .debug_aranges
                0x0000000000000000       0x18 build/FreeRTOS/production/_ext/1664057780/fe_448.o
 .debug_line    0x0000000000000000       0x1d build/FreeRTOS/production/_ext/1664057780/fe_448.o
 .debug_str     0x0000000000000000      0x2d5 build/FreeRTOS/production/_ext/1664057780/fe_448.o
 .comment       0x0000000000000000       0x2c build/FreeRTOS/production/_ext/1664057780/fe_448.o
 .ARM.attributes
                0x0000000000000000       0x39 build/FreeRTOS/production/_ext/1664057780/fe_448.o
 .text          0x0000000000000000        0x0 build/FreeRTOS/production/_ext/1664057780/sha3.o
 .data          0x0000000000000000        0x0 build/FreeRTOS/production/_ext/1664057780/sha3.o
 .bss           0x0000000000000000        0x0 build/FreeRTOS/production/_ext/1664057780/sha3.o
 .debug_info    0x0000000000000000       0x79 build/FreeRTOS/production/_ext/1664057780/sha3.o
 .debug_abbrev  0x0000000000000000       0x26 build/FreeRTOS/production/_ext/1664057780/sha3.o
 .debug_aranges
                0x0000000000000000       0x18 build/FreeRTOS/production/_ext/1664057780/sha3.o
 .debug_line    0x0000000000000000       0x1d build/FreeRTOS/production/_ext/1664057780/sha3.o
 .debug_str     0x0000000000000000      0x2d3 build/FreeRTOS/production/_ext/1664057780/sha3.o
 .comment       0x0000000000000000       0x2c build/FreeRTOS/production/_ext/1664057780/sha3.o
 .ARM.attributes
                0x0000000000000000       0x39 build/FreeRTOS/production/_ext/1664057780/sha3.o
 .text          0x0000000000000000        0x0 build/FreeRTOS/production/_ext/1664057780/compress.o
 .data          0x0000000000000000        0x0 build/FreeRTOS/production/_ext/1664057780/compress.o
 .bss           0x0000000000000000        0x0 build/FreeRTOS/production/_ext/1664057780/compress.o
 .debug_info    0x0000000000000000       0x79 build/FreeRTOS/production/_ext/1664057780/compress.o
 .debug_abbrev  0x0000000000000000       0x26 build/FreeRTOS/production/_ext/1664057780/compress.o
 .debug_aranges
                0x0000000000000000       0x18 build/FreeRTOS/production/_ext/1664057780/compress.o
 .debug_line    0x0000000000000000       0x1d build/FreeRTOS/production/_ext/1664057780/compress.o
 .debug_str     0x0000000000000000      0x2d7 build/FreeRTOS/production/_ext/1664057780/compress.o
 .comment       0x0000000000000000       0x2c build/FreeRTOS/production/_ext/1664057780/compress.o
 .ARM.attributes
                0x0000000000000000       0x39 build/FreeRTOS/production/_ext/1664057780/compress.o
 .text          0x0000000000000000        0x0 build/FreeRTOS/production/_ext/1664057780/sp_c32.o
 .data          0x0000000000000000        0x0 build/FreeRTOS/production/_ext/1664057780/sp_c32.o
 .bss           0x0000000000000000        0x0 build/FreeRTOS/production/_ext/1664057780/sp_c32.o
 .debug_info    0x0000000000000000       0x79 build/FreeRTOS/production/_ext/1664057780/sp_c32.o
 .debug_abbrev  0x0000000000000000       0x26 build/FreeRTOS/production/_ext/1664057780/sp_c32.o
 .debug_aranges
                0x0000000000000000       0x18 build/FreeRTOS/production/_ext/1664057780/sp_c32.o
 .debug_line    0x0000000000000000       0x1d build/FreeRTOS/production/_ext/1664057780/sp_c32.o
 .debug_str     0x0000000000000000      0x2d5 build/FreeRTOS/production/_ext/1664057780/sp_c32.o
 .comment       0x0000000000000000       0x2c build/FreeRTOS/production/_ext/1664057780/sp_c32.o
 .ARM.attributes
                0x0000000000000000       0x39 build/FreeRTOS/production/_ext/1664057780/sp_c32.o
 .text          0x0000000000000000        0x0 build/FreeRTOS/production/_ext/1664057780/curve448.o
 .data          0x0000000000000000        0x0 build/FreeRTOS/production/_ext/1664057780/curve448.o
 .bss           0x0000000000000000        0x0 build/FreeRTOS/production/_ext/1664057780/curve448.o
 .debug_info    0x0000000000000000       0x79 build/FreeRTOS/production/_ext/1664057780/curve448.o
 .debug_abbrev  0x0000000000000000       0x26 build/FreeRTOS/production/_ext/1664057780/curve448.o
 .debug_aranges
                0x0000000000000000       0x18 build/FreeRTOS/production/_ext/1664057780/curve448.o
 .debug_line    0x0000000000000000       0x1d build/FreeRTOS/production/_ext/1664057780/curve448.o
 .debug_str     0x0000000000000000      0x2d7 build/FreeRTOS/production/_ext/1664057780/curve448.o
 .comment       0x0000000000000000       0x2c build/FreeRTOS/production/_ext/1664057780/curve448.o
 .ARM.attributes
                0x0000000000000000       0x39 build/FreeRTOS/production/_ext/1664057780/curve448.o
 .text          0x0000000000000000        0x0 build/FreeRTOS/production/_ext/1664057780/hmac.o
 .data          0x0000000000000000        0x0 build/FreeRTOS/production/_ext/1664057780/hmac.o
 .bss           0x0000000000000000        0x0 build/FreeRTOS/production/_ext/1664057780/hmac.o
 .text.HmacKeyInnerHash
                0x0000000000000000       0x50 build/FreeRTOS/production/_ext/1664057780/hmac.o
 .text.wc_HmacSizeByType
                0x0000000000000000       0x30 build/FreeRTOS/production/_ext/1664057780/hmac.o
 .text._InitHmac
                0x0000000000000000       0x42 build/FreeRTOS/production/_ext/1664057780/hmac.o
 .text.wc_HmacUpdate
                0x0000000000000000       0xb0 build/FreeRTOS/production/_ext/1664057780/hmac.o
 .text.wc_HmacFinal
                0x0000000000000000      0x17a build/FreeRTOS/production/_ext/1664057780/hmac.o
 .text.wc_HmacInit
                0x0000000000000000       0x2a build/FreeRTOS/production/_ext/1664057780/hmac.o
 .text.wc_HmacInit_Id
                0x0000000000000000       0x3a build/FreeRTOS/production/_ext/1664057780/hmac.o
 .text.wc_HmacInit_Label
                0x0000000000000000       0x5a build/FreeRTOS/production/_ext/1664057780/hmac.o
 .text.wc_HmacFree
                0x0000000000000000       0x5e build/FreeRTOS/production/_ext/1664057780/hmac.o
 .text.wc_HmacSetKey
                0x0000000000000000      0x190 build/FreeRTOS/production/_ext/1664057780/hmac.o
 .text.wolfSSL_GetHmacMaxSize
                0x0000000000000000        0x4 build/FreeRTOS/production/_ext/1664057780/hmac.o
 .debug_info    0x0000000000000000     0x174b build/FreeRTOS/production/_ext/1664057780/hmac.o
 .debug_abbrev  0x0000000000000000      0x316 build/FreeRTOS/production/_ext/1664057780/hmac.o
 .debug_loc     0x0000000000000000     0x128b build/FreeRTOS/production/_ext/1664057780/hmac.o
 .debug_aranges
                0x0000000000000000       0x70 build/FreeRTOS/production/_ext/1664057780/hmac.o
 .debug_ranges  0x0000000000000000       0x60 build/FreeRTOS/production/_ext/1664057780/hmac.o
 .debug_line    0x0000000000000000      0x7eb build/FreeRTOS/production/_ext/1664057780/hmac.o
 .debug_str     0x0000000000000000     0x1329 build/FreeRTOS/production/_ext/1664057780/hmac.o
 .comment       0x0000000000000000       0x2c build/FreeRTOS/production/_ext/1664057780/hmac.o
 .debug_frame   0x0000000000000000      0x174 build/FreeRTOS/production/_ext/1664057780/hmac.o
 .ARM.attributes
                0x0000000000000000       0x34 build/FreeRTOS/production/_ext/1664057780/hmac.o
 .text          0x0000000000000000        0x0 build/FreeRTOS/production/_ext/1664057780/sp_c64.o
 .data          0x0000000000000000        0x0 build/FreeRTOS/production/_ext/1664057780/sp_c64.o
 .bss           0x0000000000000000        0x0 build/FreeRTOS/production/_ext/1664057780/sp_c64.o
 .debug_info    0x0000000000000000       0x79 build/FreeRTOS/production/_ext/1664057780/sp_c64.o
 .debug_abbrev  0x0000000000000000       0x26 build/FreeRTOS/production/_ext/1664057780/sp_c64.o
 .debug_aranges
                0x0000000000000000       0x18 build/FreeRTOS/production/_ext/1664057780/sp_c64.o
 .debug_line    0x0000000000000000       0x1d build/FreeRTOS/production/_ext/1664057780/sp_c64.o
 .debug_str     0x0000000000000000      0x2d5 build/FreeRTOS/production/_ext/1664057780/sp_c64.o
 .comment       0x0000000000000000       0x2c build/FreeRTOS/production/_ext/1664057780/sp_c64.o
 .ARM.attributes
                0x0000000000000000       0x39 build/FreeRTOS/production/_ext/1664057780/sp_c64.o
 .text          0x0000000000000000        0x0 build/FreeRTOS/production/_ext/1664057780/ed25519.o
 .data          0x0000000000000000        0x0 build/FreeRTOS/production/_ext/1664057780/ed25519.o
 .bss           0x0000000000000000        0x0 build/FreeRTOS/production/_ext/1664057780/ed25519.o
 .debug_info    0x0000000000000000       0x79 build/FreeRTOS/production/_ext/1664057780/ed25519.o
 .debug_abbrev  0x0000000000000000       0x26 build/FreeRTOS/production/_ext/1664057780/ed25519.o
 .debug_aranges
                0x0000000000000000       0x18 build/FreeRTOS/production/_ext/1664057780/ed25519.o
 .debug_line    0x0000000000000000       0x1d build/FreeRTOS/production/_ext/1664057780/ed25519.o
 .debug_str     0x0000000000000000      0x2d6 build/FreeRTOS/production/_ext/1664057780/ed25519.o
 .comment       0x0000000000000000       0x2c build/FreeRTOS/production/_ext/1664057780/ed25519.o
 .ARM.attributes
                0x0000000000000000       0x39 build/FreeRTOS/production/_ext/1664057780/ed25519.o
 .text          0x0000000000000000        0x0 build/FreeRTOS/production/_ext/1664057780/asm.o
 .data          0x0000000000000000        0x0 build/FreeRTOS/production/_ext/1664057780/asm.o
 .bss           0x0000000000000000        0x0 build/FreeRTOS/production/_ext/1664057780/asm.o
 .debug_info    0x0000000000000000       0x79 build/FreeRTOS/production/_ext/1664057780/asm.o
 .debug_abbrev  0x0000000000000000       0x26 build/FreeRTOS/production/_ext/1664057780/asm.o
 .debug_aranges
                0x0000000000000000       0x18 build/FreeRTOS/production/_ext/1664057780/asm.o
 .debug_line    0x0000000000000000       0x1d build/FreeRTOS/production/_ext/1664057780/asm.o
 .debug_str     0x0000000000000000      0x2d2 build/FreeRTOS/production/_ext/1664057780/asm.o
 .comment       0x0000000000000000       0x2c build/FreeRTOS/production/_ext/1664057780/asm.o
 .ARM.attributes
                0x0000000000000000       0x39 build/FreeRTOS/production/_ext/1664057780/asm.o
 .text          0x0000000000000000        0x0 build/FreeRTOS/production/_ext/1664057780/wolfmath.o
 .data          0x0000000000000000        0x0 build/FreeRTOS/production/_ext/1664057780/wolfmath.o
 .bss           0x0000000000000000        0x0 build/FreeRTOS/production/_ext/1664057780/wolfmath.o
 .text.get_digit_count
                0x0000000000000000        0xa build/FreeRTOS/production/_ext/1664057780/wolfmath.o
 .text.get_digit
                0x0000000000000000       0x20 build/FreeRTOS/production/_ext/1664057780/wolfmath.o
 .text.mp_cond_copy
                0x0000000000000000       0xb6 build/FreeRTOS/production/_ext/1664057780/wolfmath.o
 .text.get_rand_digit
                0x0000000000000000        0xa build/FreeRTOS/production/_ext/1664057780/wolfmath.o
 .text.wc_export_int
                0x0000000000000000       0x96 build/FreeRTOS/production/_ext/1664057780/wolfmath.o
 .rodata.wc_off_on_addr
                0x0000000000000000        0x8 build/FreeRTOS/production/_ext/1664057780/wolfmath.o
 .debug_info    0x0000000000000000      0xb2b build/FreeRTOS/production/_ext/1664057780/wolfmath.o
 .debug_abbrev  0x0000000000000000      0x255 build/FreeRTOS/production/_ext/1664057780/wolfmath.o
 .debug_loc     0x0000000000000000      0x54c build/FreeRTOS/production/_ext/1664057780/wolfmath.o
 .debug_aranges
                0x0000000000000000       0x40 build/FreeRTOS/production/_ext/1664057780/wolfmath.o
 .debug_ranges  0x0000000000000000       0x30 build/FreeRTOS/production/_ext/1664057780/wolfmath.o
 .debug_line    0x0000000000000000      0x316 build/FreeRTOS/production/_ext/1664057780/wolfmath.o
 .debug_str     0x0000000000000000     0x1048 build/FreeRTOS/production/_ext/1664057780/wolfmath.o
 .comment       0x0000000000000000       0x2c build/FreeRTOS/production/_ext/1664057780/wolfmath.o
 .debug_frame   0x0000000000000000       0xc8 build/FreeRTOS/production/_ext/1664057780/wolfmath.o
 .ARM.attributes
                0x0000000000000000       0x34 build/FreeRTOS/production/_ext/1664057780/wolfmath.o
 .text          0x0000000000000000        0x0 build/FreeRTOS/production/_ext/1664057780/cmac.o
 .data          0x0000000000000000        0x0 build/FreeRTOS/production/_ext/1664057780/cmac.o
 .bss           0x0000000000000000        0x0 build/FreeRTOS/production/_ext/1664057780/cmac.o
 .debug_info    0x0000000000000000       0x79 build/FreeRTOS/production/_ext/1664057780/cmac.o
 .debug_abbrev  0x0000000000000000       0x26 build/FreeRTOS/production/_ext/1664057780/cmac.o
 .debug_aranges
                0x0000000000000000       0x18 build/FreeRTOS/production/_ext/1664057780/cmac.o
 .debug_line    0x0000000000000000       0x1d build/FreeRTOS/production/_ext/1664057780/cmac.o
 .debug_str     0x0000000000000000      0x2d3 build/FreeRTOS/production/_ext/1664057780/cmac.o
 .comment       0x0000000000000000       0x2c build/FreeRTOS/production/_ext/1664057780/cmac.o
 .ARM.attributes
                0x0000000000000000       0x39 build/FreeRTOS/production/_ext/1664057780/cmac.o
 .text          0x0000000000000000        0x0 build/FreeRTOS/production/_ext/1664057780/error.o
 .data          0x0000000000000000        0x0 build/FreeRTOS/production/_ext/1664057780/error.o
 .bss           0x0000000000000000        0x0 build/FreeRTOS/production/_ext/1664057780/error.o
 .debug_info    0x0000000000000000       0x79 build/FreeRTOS/production/_ext/1664057780/error.o
 .debug_abbrev  0x0000000000000000       0x26 build/FreeRTOS/production/_ext/1664057780/error.o
 .debug_aranges
                0x0000000000000000       0x18 build/FreeRTOS/production/_ext/1664057780/error.o
 .debug_line    0x0000000000000000       0x1d build/FreeRTOS/production/_ext/1664057780/error.o
 .debug_str     0x0000000000000000      0x2d4 build/FreeRTOS/production/_ext/1664057780/error.o
 .comment       0x0000000000000000       0x2c build/FreeRTOS/production/_ext/1664057780/error.o
 .ARM.attributes
                0x0000000000000000       0x39 build/FreeRTOS/production/_ext/1664057780/error.o
 .text          0x0000000000000000        0x0 build/FreeRTOS/production/_ext/1664057780/pkcs7.o
 .data          0x0000000000000000        0x0 build/FreeRTOS/production/_ext/1664057780/pkcs7.o
 .bss           0x0000000000000000        0x0 build/FreeRTOS/production/_ext/1664057780/pkcs7.o
 .debug_info    0x0000000000000000       0x79 build/FreeRTOS/production/_ext/1664057780/pkcs7.o
 .debug_abbrev  0x0000000000000000       0x26 build/FreeRTOS/production/_ext/1664057780/pkcs7.o
 .debug_aranges
                0x0000000000000000       0x18 build/FreeRTOS/production/_ext/1664057780/pkcs7.o
 .debug_line    0x0000000000000000       0x1d build/FreeRTOS/production/_ext/1664057780/pkcs7.o
 .debug_str     0x0000000000000000      0x2d4 build/FreeRTOS/production/_ext/1664057780/pkcs7.o
 .comment       0x0000000000000000       0x2c build/FreeRTOS/production/_ext/1664057780/pkcs7.o
 .ARM.attributes
                0x0000000000000000       0x39 build/FreeRTOS/production/_ext/1664057780/pkcs7.o
 .text          0x0000000000000000        0x0 build/FreeRTOS/production/_ext/1664057780/sha256.o
 .data          0x0000000000000000        0x0 build/FreeRTOS/production/_ext/1664057780/sha256.o
 .bss           0x0000000000000000        0x0 build/FreeRTOS/production/_ext/1664057780/sha256.o
 .text.wc_Sha256FinalRaw
                0x0000000000000000       0x5c build/FreeRTOS/production/_ext/1664057780/sha256.o
 .text.wc_InitSha224_ex
                0x0000000000000000       0x64 build/FreeRTOS/production/_ext/1664057780/sha256.o
 .text.wc_Sha224Update
                0x0000000000000000      0x130 build/FreeRTOS/production/_ext/1664057780/sha256.o
 .text.wc_Sha224Final
                0x0000000000000000      0x170 build/FreeRTOS/production/_ext/1664057780/sha256.o
 .text.wc_InitSha224
                0x0000000000000000       0x14 build/FreeRTOS/production/_ext/1664057780/sha256.o
 .text.wc_Sha224Free
                0x0000000000000000        0x2 build/FreeRTOS/production/_ext/1664057780/sha256.o
 .text.wc_InitSha256
                0x0000000000000000       0x14 build/FreeRTOS/production/_ext/1664057780/sha256.o
 .text.wc_Sha224Copy
                0x0000000000000000       0x2a build/FreeRTOS/production/_ext/1664057780/sha256.o
 .text.wc_Sha224GetHash
                0x0000000000000000       0x3c build/FreeRTOS/production/_ext/1664057780/sha256.o
 .text.wc_Sha224SetFlags
                0x0000000000000000        0x8 build/FreeRTOS/production/_ext/1664057780/sha256.o
 .text.wc_Sha224GetFlags
                0x0000000000000000        0xc build/FreeRTOS/production/_ext/1664057780/sha256.o
 .text.wc_Sha256Copy
                0x0000000000000000       0x2a build/FreeRTOS/production/_ext/1664057780/sha256.o
 .text.wc_Sha256GetHash
                0x0000000000000000       0x34 build/FreeRTOS/production/_ext/1664057780/sha256.o
 .text.wc_Sha256SetFlags
                0x0000000000000000        0x8 build/FreeRTOS/production/_ext/1664057780/sha256.o
 .text.wc_Sha256GetFlags
                0x0000000000000000        0xc build/FreeRTOS/production/_ext/1664057780/sha256.o
 .text          0x0000000000000000        0x0 build/FreeRTOS/production/_ext/1664057780/camellia.o
 .data          0x0000000000000000        0x0 build/FreeRTOS/production/_ext/1664057780/camellia.o
 .bss           0x0000000000000000        0x0 build/FreeRTOS/production/_ext/1664057780/camellia.o
 .debug_info    0x0000000000000000       0x79 build/FreeRTOS/production/_ext/1664057780/camellia.o
 .debug_abbrev  0x0000000000000000       0x26 build/FreeRTOS/production/_ext/1664057780/camellia.o
 .debug_aranges
                0x0000000000000000       0x18 build/FreeRTOS/production/_ext/1664057780/camellia.o
 .debug_line    0x0000000000000000       0x1d build/FreeRTOS/production/_ext/1664057780/camellia.o
 .debug_str     0x0000000000000000      0x2d7 build/FreeRTOS/production/_ext/1664057780/camellia.o
 .comment       0x0000000000000000       0x2c build/FreeRTOS/production/_ext/1664057780/camellia.o
 .ARM.attributes
                0x0000000000000000       0x39 build/FreeRTOS/production/_ext/1664057780/camellia.o
 .text          0x0000000000000000        0x0 build/FreeRTOS/production/_ext/1664057780/ge_448.o
 .data          0x0000000000000000        0x0 build/FreeRTOS/production/_ext/1664057780/ge_448.o
 .bss           0x0000000000000000        0x0 build/FreeRTOS/production/_ext/1664057780/ge_448.o
 .debug_info    0x0000000000000000       0x79 build/FreeRTOS/production/_ext/1664057780/ge_448.o
 .debug_abbrev  0x0000000000000000       0x26 build/FreeRTOS/production/_ext/1664057780/ge_448.o
 .debug_aranges
                0x0000000000000000       0x18 build/FreeRTOS/production/_ext/1664057780/ge_448.o
 .debug_line    0x0000000000000000       0x1d build/FreeRTOS/production/_ext/1664057780/ge_448.o
 .debug_str     0x0000000000000000      0x2d5 build/FreeRTOS/production/_ext/1664057780/ge_448.o
 .comment       0x0000000000000000       0x2c build/FreeRTOS/production/_ext/1664057780/ge_448.o
 .ARM.attributes
                0x0000000000000000       0x39 build/FreeRTOS/production/_ext/1664057780/ge_448.o
 .text          0x0000000000000000        0x0 build/FreeRTOS/production/_ext/1664057780/cpuid.o
 .data          0x0000000000000000        0x0 build/FreeRTOS/production/_ext/1664057780/cpuid.o
 .bss           0x0000000000000000        0x0 build/FreeRTOS/production/_ext/1664057780/cpuid.o
 .debug_info    0x0000000000000000       0x79 build/FreeRTOS/production/_ext/1664057780/cpuid.o
 .debug_abbrev  0x0000000000000000       0x26 build/FreeRTOS/production/_ext/1664057780/cpuid.o
 .debug_aranges
                0x0000000000000000       0x18 build/FreeRTOS/production/_ext/1664057780/cpuid.o
 .debug_line    0x0000000000000000       0x1d build/FreeRTOS/production/_ext/1664057780/cpuid.o
 .debug_str     0x0000000000000000      0x2d4 build/FreeRTOS/production/_ext/1664057780/cpuid.o
 .comment       0x0000000000000000       0x2c build/FreeRTOS/production/_ext/1664057780/cpuid.o
 .ARM.attributes
                0x0000000000000000       0x39 build/FreeRTOS/production/_ext/1664057780/cpuid.o
 .text          0x0000000000000000        0x0 build/FreeRTOS/production/_ext/1664057780/sp_dsp32.o
 .data          0x0000000000000000        0x0 build/FreeRTOS/production/_ext/1664057780/sp_dsp32.o
 .bss           0x0000000000000000        0x0 build/FreeRTOS/production/_ext/1664057780/sp_dsp32.o
 .debug_info    0x0000000000000000       0x79 build/FreeRTOS/production/_ext/1664057780/sp_dsp32.o
 .debug_abbrev  0x0000000000000000       0x26 build/FreeRTOS/production/_ext/1664057780/sp_dsp32.o
 .debug_aranges
                0x0000000000000000       0x18 build/FreeRTOS/production/_ext/1664057780/sp_dsp32.o
 .debug_line    0x0000000000000000       0x1d build/FreeRTOS/production/_ext/1664057780/sp_dsp32.o
 .debug_str     0x0000000000000000      0x2d7 build/FreeRTOS/production/_ext/1664057780/sp_dsp32.o
 .comment       0x0000000000000000       0x2c build/FreeRTOS/production/_ext/1664057780/sp_dsp32.o
 .ARM.attributes
                0x0000000000000000       0x39 build/FreeRTOS/production/_ext/1664057780/sp_dsp32.o
 .text          0x0000000000000000        0x0 build/FreeRTOS/production/_ext/1664057780/rc2.o
 .data          0x0000000000000000        0x0 build/FreeRTOS/production/_ext/1664057780/rc2.o
 .bss           0x0000000000000000        0x0 build/FreeRTOS/production/_ext/1664057780/rc2.o
 .debug_info    0x0000000000000000       0x79 build/FreeRTOS/production/_ext/1664057780/rc2.o
 .debug_abbrev  0x0000000000000000       0x26 build/FreeRTOS/production/_ext/1664057780/rc2.o
 .debug_aranges
                0x0000000000000000       0x18 build/FreeRTOS/production/_ext/1664057780/rc2.o
 .debug_line    0x0000000000000000       0x1d build/FreeRTOS/production/_ext/1664057780/rc2.o
 .debug_str     0x0000000000000000      0x2d2 build/FreeRTOS/production/_ext/1664057780/rc2.o
 .comment       0x0000000000000000       0x2c build/FreeRTOS/production/_ext/1664057780/rc2.o
 .ARM.attributes
                0x0000000000000000       0x39 build/FreeRTOS/production/_ext/1664057780/rc2.o
 .text          0x0000000000000000        0x0 build/FreeRTOS/production/_ext/1664057780/chacha.o
 .data          0x0000000000000000        0x0 build/FreeRTOS/production/_ext/1664057780/chacha.o
 .bss           0x0000000000000000        0x0 build/FreeRTOS/production/_ext/1664057780/chacha.o
 .debug_info    0x0000000000000000       0x79 build/FreeRTOS/production/_ext/1664057780/chacha.o
 .debug_abbrev  0x0000000000000000       0x26 build/FreeRTOS/production/_ext/1664057780/chacha.o
 .debug_aranges
                0x0000000000000000       0x18 build/FreeRTOS/production/_ext/1664057780/chacha.o
 .debug_line    0x0000000000000000       0x1d build/FreeRTOS/production/_ext/1664057780/chacha.o
 .debug_str     0x0000000000000000      0x2d5 build/FreeRTOS/production/_ext/1664057780/chacha.o
 .comment       0x0000000000000000       0x2c build/FreeRTOS/production/_ext/1664057780/chacha.o
 .ARM.attributes
                0x0000000000000000       0x39 build/FreeRTOS/production/_ext/1664057780/chacha.o
 .text          0x0000000000000000        0x0 build/FreeRTOS/production/_ext/1664057780/misc.o
 .data          0x0000000000000000        0x0 build/FreeRTOS/production/_ext/1664057780/misc.o
 .bss           0x0000000000000000        0x0 build/FreeRTOS/production/_ext/1664057780/misc.o
 .debug_info    0x0000000000000000       0x79 build/FreeRTOS/production/_ext/1664057780/misc.o
 .debug_abbrev  0x0000000000000000       0x26 build/FreeRTOS/production/_ext/1664057780/misc.o
 .debug_aranges
                0x0000000000000000       0x18 build/FreeRTOS/production/_ext/1664057780/misc.o
 .debug_line    0x0000000000000000       0x1d build/FreeRTOS/production/_ext/1664057780/misc.o
 .debug_str     0x0000000000000000      0x2d3 build/FreeRTOS/production/_ext/1664057780/misc.o
 .comment       0x0000000000000000       0x2c build/FreeRTOS/production/_ext/1664057780/misc.o
 .ARM.attributes
                0x0000000000000000       0x39 build/FreeRTOS/production/_ext/1664057780/misc.o
 .text          0x0000000000000000        0x0 build/FreeRTOS/production/_ext/1664057780/wolfevent.o
 .data          0x0000000000000000        0x0 build/FreeRTOS/production/_ext/1664057780/wolfevent.o
 .bss           0x0000000000000000        0x0 build/FreeRTOS/production/_ext/1664057780/wolfevent.o
 .debug_info    0x0000000000000000       0x79 build/FreeRTOS/production/_ext/1664057780/wolfevent.o
 .debug_abbrev  0x0000000000000000       0x26 build/FreeRTOS/production/_ext/1664057780/wolfevent.o
 .debug_aranges
                0x0000000000000000       0x18 build/FreeRTOS/production/_ext/1664057780/wolfevent.o
 .debug_line    0x0000000000000000       0x1d build/FreeRTOS/production/_ext/1664057780/wolfevent.o
 .debug_str     0x0000000000000000      0x2d8 build/FreeRTOS/production/_ext/1664057780/wolfevent.o
 .comment       0x0000000000000000       0x2c build/FreeRTOS/production/_ext/1664057780/wolfevent.o
 .ARM.attributes
                0x0000000000000000       0x39 build/FreeRTOS/production/_ext/1664057780/wolfevent.o
 .text          0x0000000000000000        0x0 build/FreeRTOS/production/_ext/1664057780/blake2s.o
 .data          0x0000000000000000        0x0 build/FreeRTOS/production/_ext/1664057780/blake2s.o
 .bss           0x0000000000000000        0x0 build/FreeRTOS/production/_ext/1664057780/blake2s.o
 .debug_info    0x0000000000000000       0x79 build/FreeRTOS/production/_ext/1664057780/blake2s.o
 .debug_abbrev  0x0000000000000000       0x26 build/FreeRTOS/production/_ext/1664057780/blake2s.o
 .debug_aranges
                0x0000000000000000       0x18 build/FreeRTOS/production/_ext/1664057780/blake2s.o
 .debug_line    0x0000000000000000       0x1d build/FreeRTOS/production/_ext/1664057780/blake2s.o
 .debug_str     0x0000000000000000      0x2d6 build/FreeRTOS/production/_ext/1664057780/blake2s.o
 .comment       0x0000000000000000       0x2c build/FreeRTOS/production/_ext/1664057780/blake2s.o
 .ARM.attributes
                0x0000000000000000       0x39 build/FreeRTOS/production/_ext/1664057780/blake2s.o
 .text          0x0000000000000000        0x0 build/FreeRTOS/production/_ext/1664057780/blake2b.o
 .data          0x0000000000000000        0x0 build/FreeRTOS/production/_ext/1664057780/blake2b.o
 .bss           0x0000000000000000        0x0 build/FreeRTOS/production/_ext/1664057780/blake2b.o
 .debug_info    0x0000000000000000       0x79 build/FreeRTOS/production/_ext/1664057780/blake2b.o
 .debug_abbrev  0x0000000000000000       0x26 build/FreeRTOS/production/_ext/1664057780/blake2b.o
 .debug_aranges
                0x0000000000000000       0x18 build/FreeRTOS/production/_ext/1664057780/blake2b.o
 .debug_line    0x0000000000000000       0x1d build/FreeRTOS/production/_ext/1664057780/blake2b.o
 .debug_str     0x0000000000000000      0x2d6 build/FreeRTOS/production/_ext/1664057780/blake2b.o
 .comment       0x0000000000000000       0x2c build/FreeRTOS/production/_ext/1664057780/blake2b.o
 .ARM.attributes
                0x0000000000000000       0x39 build/FreeRTOS/production/_ext/1664057780/blake2b.o
 .text          0x0000000000000000        0x0 build/FreeRTOS/production/_ext/1664057780/logging.o
 .data          0x0000000000000000        0x0 build/FreeRTOS/production/_ext/1664057780/logging.o
 .bss           0x0000000000000000        0x0 build/FreeRTOS/production/_ext/1664057780/logging.o
 .text.wolfSSL_SetLoggingCb
                0x0000000000000000        0x6 build/FreeRTOS/production/_ext/1664057780/logging.o
 .text.wolfSSL_GetLoggingCb
                0x0000000000000000        0x4 build/FreeRTOS/production/_ext/1664057780/logging.o
 .text.wolfSSL_Debugging_ON
                0x0000000000000000        0x6 build/FreeRTOS/production/_ext/1664057780/logging.o
 .text.wolfSSL_Debugging_OFF
                0x0000000000000000        0x2 build/FreeRTOS/production/_ext/1664057780/logging.o
 .debug_info    0x0000000000000000      0x621 build/FreeRTOS/production/_ext/1664057780/logging.o
 .debug_abbrev  0x0000000000000000       0xdd build/FreeRTOS/production/_ext/1664057780/logging.o
 .debug_loc     0x0000000000000000       0x25 build/FreeRTOS/production/_ext/1664057780/logging.o
 .debug_aranges
                0x0000000000000000       0x38 build/FreeRTOS/production/_ext/1664057780/logging.o
 .debug_ranges  0x0000000000000000       0x28 build/FreeRTOS/production/_ext/1664057780/logging.o
 .debug_line    0x0000000000000000      0x106 build/FreeRTOS/production/_ext/1664057780/logging.o
 .debug_str     0x0000000000000000      0xd5d build/FreeRTOS/production/_ext/1664057780/logging.o
 .comment       0x0000000000000000       0x2c build/FreeRTOS/production/_ext/1664057780/logging.o
 .debug_frame   0x0000000000000000       0x50 build/FreeRTOS/production/_ext/1664057780/logging.o
 .ARM.attributes
                0x0000000000000000       0x34 build/FreeRTOS/production/_ext/1664057780/logging.o
 .text          0x0000000000000000        0x0 build/FreeRTOS/production/_ext/1664057780/pkcs12.o
 .data          0x0000000000000000        0x0 build/FreeRTOS/production/_ext/1664057780/pkcs12.o
 .bss           0x0000000000000000        0x0 build/FreeRTOS/production/_ext/1664057780/pkcs12.o
 .debug_info    0x0000000000000000       0x79 build/FreeRTOS/production/_ext/1664057780/pkcs12.o
 .debug_abbrev  0x0000000000000000       0x26 build/FreeRTOS/production/_ext/1664057780/pkcs12.o
 .debug_aranges
                0x0000000000000000       0x18 build/FreeRTOS/production/_ext/1664057780/pkcs12.o
 .debug_line    0x0000000000000000       0x1d build/FreeRTOS/production/_ext/1664057780/pkcs12.o
 .debug_str     0x0000000000000000      0x2d5 build/FreeRTOS/production/_ext/1664057780/pkcs12.o
 .comment       0x0000000000000000       0x2c build/FreeRTOS/production/_ext/1664057780/pkcs12.o
 .ARM.attributes
                0x0000000000000000       0x39 build/FreeRTOS/production/_ext/1664057780/pkcs12.o
 .text          0x0000000000000000        0x0 build/FreeRTOS/production/_ext/1664057780/des3.o
 .data          0x0000000000000000        0x0 build/FreeRTOS/production/_ext/1664057780/des3.o
 .bss           0x0000000000000000        0x0 build/FreeRTOS/production/_ext/1664057780/des3.o
 .text.DesRawProcessBlock
                0x0000000000000000      0x130 build/FreeRTOS/production/_ext/1664057780/des3.o
 .text.Des3ProcessBlock
                0x0000000000000000      0x12a build/FreeRTOS/production/_ext/1664057780/des3.o
 .text.DesSetKey
                0x0000000000000000      0x164 build/FreeRTOS/production/_ext/1664057780/des3.o
 .text.DesProcessBlock
                0x0000000000000000      0x112 build/FreeRTOS/production/_ext/1664057780/des3.o
 .text.wc_Des_CbcEncrypt
                0x0000000000000000       0x7c build/FreeRTOS/production/_ext/1664057780/des3.o
 .text.wc_Des_CbcDecrypt
                0x0000000000000000       0x80 build/FreeRTOS/production/_ext/1664057780/des3.o
 .text.wc_Des3_CbcEncrypt
                0x0000000000000000       0xbc build/FreeRTOS/production/_ext/1664057780/des3.o
 .text.wc_Des3_CbcDecrypt
                0x0000000000000000       0xcc build/FreeRTOS/production/_ext/1664057780/des3.o
 .text.wc_Des_SetIV
                0x0000000000000000       0x18 build/FreeRTOS/production/_ext/1664057780/des3.o
 .text.wc_Des_SetKey
                0x0000000000000000       0x1c build/FreeRTOS/production/_ext/1664057780/des3.o
 .text.wc_Des3_SetIV
                0x0000000000000000       0x28 build/FreeRTOS/production/_ext/1664057780/des3.o
 .text.wc_Des3_SetKey
                0x0000000000000000       0xc4 build/FreeRTOS/production/_ext/1664057780/des3.o
 .text.wc_Des3Init
                0x0000000000000000       0x1a build/FreeRTOS/production/_ext/1664057780/des3.o
 .text.wc_Des3Free
                0x0000000000000000       0x1a build/FreeRTOS/production/_ext/1664057780/des3.o
 .rodata.Spbox  0x0000000000000000      0x800 build/FreeRTOS/production/_ext/1664057780/des3.o
 .rodata.bytebit
                0x0000000000000000       0x20 build/FreeRTOS/production/_ext/1664057780/des3.o
 .rodata.pc1    0x0000000000000000       0x38 build/FreeRTOS/production/_ext/1664057780/des3.o
 .rodata.pc2    0x0000000000000000       0x30 build/FreeRTOS/production/_ext/1664057780/des3.o
 .rodata.totrot
                0x0000000000000000       0x10 build/FreeRTOS/production/_ext/1664057780/des3.o
 .debug_info    0x0000000000000000     0x212b build/FreeRTOS/production/_ext/1664057780/des3.o
 .debug_abbrev  0x0000000000000000      0x3d5 build/FreeRTOS/production/_ext/1664057780/des3.o
 .debug_loc     0x0000000000000000     0x7376 build/FreeRTOS/production/_ext/1664057780/des3.o
 .debug_aranges
                0x0000000000000000       0x88 build/FreeRTOS/production/_ext/1664057780/des3.o
 .debug_ranges  0x0000000000000000      0x450 build/FreeRTOS/production/_ext/1664057780/des3.o
 .debug_line    0x0000000000000000      0xf48 build/FreeRTOS/production/_ext/1664057780/des3.o
 .debug_str     0x0000000000000000     0x1676 build/FreeRTOS/production/_ext/1664057780/des3.o
 .comment       0x0000000000000000       0x2c build/FreeRTOS/production/_ext/1664057780/des3.o
 .debug_frame   0x0000000000000000      0x1d4 build/FreeRTOS/production/_ext/1664057780/des3.o
 .ARM.attributes
                0x0000000000000000       0x34 build/FreeRTOS/production/_ext/1664057780/des3.o
 .text          0x0000000000000000        0x0 build/FreeRTOS/production/_ext/1664057780/sp_arm32.o
 .data          0x0000000000000000        0x0 build/FreeRTOS/production/_ext/1664057780/sp_arm32.o
 .bss           0x0000000000000000        0x0 build/FreeRTOS/production/_ext/1664057780/sp_arm32.o
 .debug_info    0x0000000000000000       0x79 build/FreeRTOS/production/_ext/1664057780/sp_arm32.o
 .debug_abbrev  0x0000000000000000       0x26 build/FreeRTOS/production/_ext/1664057780/sp_arm32.o
 .debug_aranges
                0x0000000000000000       0x18 build/FreeRTOS/production/_ext/1664057780/sp_arm32.o
 .debug_line    0x0000000000000000       0x1d build/FreeRTOS/production/_ext/1664057780/sp_arm32.o
 .debug_str     0x0000000000000000      0x2d7 build/FreeRTOS/production/_ext/1664057780/sp_arm32.o
 .comment       0x0000000000000000       0x2c build/FreeRTOS/production/_ext/1664057780/sp_arm32.o
 .ARM.attributes
                0x0000000000000000       0x39 build/FreeRTOS/production/_ext/1664057780/sp_arm32.o
 .text          0x0000000000000000        0x0 build/FreeRTOS/production/_ext/1664057780/asn.o
 .data          0x0000000000000000        0x0 build/FreeRTOS/production/_ext/1664057780/asn.o
 .bss           0x0000000000000000        0x0 build/FreeRTOS/production/_ext/1664057780/asn.o
 .text.GetASNNull
                0x0000000000000000       0x34 build/FreeRTOS/production/_ext/1664057780/asn.o
 .text.GetBoolean
                0x0000000000000000       0x3a build/FreeRTOS/production/_ext/1664057780/asn.o
 .text.trim_leading_zeros
                0x0000000000000000       0x42 build/FreeRTOS/production/_ext/1664057780/asn.o
 .text.CheckCurve
                0x0000000000000000       0x26 build/FreeRTOS/production/_ext/1664057780/asn.o
 .text.MatchBaseName
                0x0000000000000000       0xf8 build/FreeRTOS/production/_ext/1664057780/asn.o
 .text.IsInExcludedList
                0x0000000000000000       0x3c build/FreeRTOS/production/_ext/1664057780/asn.o
 .text.PermittedListOk
                0x0000000000000000       0x4c build/FreeRTOS/production/_ext/1664057780/asn.o
 .text.KeyPemToDerPassCb
                0x0000000000000000       0x22 build/FreeRTOS/production/_ext/1664057780/asn.o
 .text.SetASNLength
                0x0000000000000000       0x50 build/FreeRTOS/production/_ext/1664057780/asn.o
 .text.GetLength_ex
                0x0000000000000000       0xb8 build/FreeRTOS/production/_ext/1664057780/asn.o
 .text.GetLength
                0x0000000000000000       0x10 build/FreeRTOS/production/_ext/1664057780/asn.o
 .text.GetDateInfo
                0x0000000000000000       0x8e build/FreeRTOS/production/_ext/1664057780/asn.o
 .text.GetASNTag
                0x0000000000000000       0x36 build/FreeRTOS/production/_ext/1664057780/asn.o
 .text.GetASNHeader_ex
                0x0000000000000000       0x5c build/FreeRTOS/production/_ext/1664057780/asn.o
 .text.GetASNInt
                0x0000000000000000       0x6c build/FreeRTOS/production/_ext/1664057780/asn.o
 .text.GetIntPositive
                0x0000000000000000       0x6a build/FreeRTOS/production/_ext/1664057780/asn.o
 .text.GetSequence
                0x0000000000000000       0x18 build/FreeRTOS/production/_ext/1664057780/asn.o
 .text.GetSequence_ex
                0x0000000000000000       0x18 build/FreeRTOS/production/_ext/1664057780/asn.o
 .text.GetSet   0x0000000000000000       0x18 build/FreeRTOS/production/_ext/1664057780/asn.o
 .text.GetSet_ex
                0x0000000000000000       0x18 build/FreeRTOS/production/_ext/1664057780/asn.o
 .text.GetOctetString
                0x0000000000000000       0x18 build/FreeRTOS/production/_ext/1664057780/asn.o
 .text.GetSigName
                0x0000000000000000       0x7c build/FreeRTOS/production/_ext/1664057780/asn.o
 .text.GetMyVersion
                0x0000000000000000       0x58 build/FreeRTOS/production/_ext/1664057780/asn.o
 .text.GetInt   0x0000000000000000       0x56 build/FreeRTOS/production/_ext/1664057780/asn.o
 .text.CheckBitString
                0x0000000000000000       0xbe build/FreeRTOS/production/_ext/1664057780/asn.o
 .text.OidFromId
                0x0000000000000000      0x680 build/FreeRTOS/production/_ext/1664057780/asn.o
 .text.GetASNObjectId
                0x0000000000000000       0x1c build/FreeRTOS/production/_ext/1664057780/asn.o
 .text.SkipObjectId
                0x0000000000000000       0x26 build/FreeRTOS/production/_ext/1664057780/asn.o
 .text.GetObjectId
                0x0000000000000000       0x8c build/FreeRTOS/production/_ext/1664057780/asn.o
 .text.GetAlgoId
                0x0000000000000000       0x86 build/FreeRTOS/production/_ext/1664057780/asn.o
 .text.ToTraditionalInline_ex
                0x0000000000000000       0xc2 build/FreeRTOS/production/_ext/1664057780/asn.o
 .text.wc_RsaPrivateKeyDecode
                0x0000000000000000      0x12c build/FreeRTOS/production/_ext/1664057780/asn.o
 .text.ToTraditionalInline
                0x0000000000000000       0x10 build/FreeRTOS/production/_ext/1664057780/asn.o
 .text.ToTraditional_ex
                0x0000000000000000       0x40 build/FreeRTOS/production/_ext/1664057780/asn.o
 .text.ToTraditional
                0x0000000000000000       0x10 build/FreeRTOS/production/_ext/1664057780/asn.o
 .text.wc_GetPkcs8TraditionalOffset
                0x0000000000000000       0x30 build/FreeRTOS/production/_ext/1664057780/asn.o
 .text.wc_RsaPublicKeyDecode_ex
                0x0000000000000000      0x162 build/FreeRTOS/production/_ext/1664057780/asn.o
 .text.wc_RsaPublicKeyDecodeRaw
                0x0000000000000000       0x92 build/FreeRTOS/production/_ext/1664057780/asn.o
 .text.wc_RsaPublicKeyDecode
                0x0000000000000000       0x48 build/FreeRTOS/production/_ext/1664057780/asn.o
 .text.FreeAltNames
                0x0000000000000000       0x22 build/FreeRTOS/production/_ext/1664057780/asn.o
 .text.AltNameNew
                0x0000000000000000       0x1a build/FreeRTOS/production/_ext/1664057780/asn.o
 .text.FreeNameSubtrees
                0x0000000000000000       0x22 build/FreeRTOS/production/_ext/1664057780/asn.o
 .text.CalcHashId
                0x0000000000000000        0x8 build/FreeRTOS/production/_ext/1664057780/asn.o
 .text.GetName  0x0000000000000000      0x3f4 build/FreeRTOS/production/_ext/1664057780/asn.o
 .text.ExtractDate
                0x0000000000000000      0x200 build/FreeRTOS/production/_ext/1664057780/asn.o
 .text.DateGreaterThan
                0x0000000000000000       0x92 build/FreeRTOS/production/_ext/1664057780/asn.o
 .text.wc_SetTimeCb
                0x0000000000000000        0xc build/FreeRTOS/production/_ext/1664057780/asn.o
 .text.wc_Time  0x0000000000000000       0x18 build/FreeRTOS/production/_ext/1664057780/asn.o
 .text.wc_ValidateDate
                0x0000000000000000       0xfa build/FreeRTOS/production/_ext/1664057780/asn.o
 .text.GetDate  0x0000000000000000       0xaa build/FreeRTOS/production/_ext/1664057780/asn.o
 .text.wc_GetTime
                0x0000000000000000       0x22 build/FreeRTOS/production/_ext/1664057780/asn.o
 .text.wc_GetDateInfo
                0x0000000000000000       0x18 build/FreeRTOS/production/_ext/1664057780/asn.o
 .text.wc_GetDateAsCalendarTime
                0x0000000000000000       0x22 build/FreeRTOS/production/_ext/1664057780/asn.o
 .text.SetLength
                0x0000000000000000       0x66 build/FreeRTOS/production/_ext/1664057780/asn.o
 .text.SetASNInt
                0x0000000000000000       0x44 build/FreeRTOS/production/_ext/1664057780/asn.o
 .text.SetASNIntMP
                0x0000000000000000       0x8a build/FreeRTOS/production/_ext/1664057780/asn.o
 .text.SetBitString
                0x0000000000000000       0x28 build/FreeRTOS/production/_ext/1664057780/asn.o
 .text.SetObjectId
                0x0000000000000000       0x16 build/FreeRTOS/production/_ext/1664057780/asn.o
 .text.SetCurve
                0x0000000000000000       0x48 build/FreeRTOS/production/_ext/1664057780/asn.o
 .text.SetHeader
                0x0000000000000000       0x16 build/FreeRTOS/production/_ext/1664057780/asn.o
 .text.SetSequence
                0x0000000000000000        0xe build/FreeRTOS/production/_ext/1664057780/asn.o
 .text.SetOctetString
                0x0000000000000000        0xe build/FreeRTOS/production/_ext/1664057780/asn.o
 .text.SetSet   0x0000000000000000        0xe build/FreeRTOS/production/_ext/1664057780/asn.o
 .text.SetImplicit
                0x0000000000000000       0x22 build/FreeRTOS/production/_ext/1664057780/asn.o
 .text.SetExplicit
                0x0000000000000000        0xc build/FreeRTOS/production/_ext/1664057780/asn.o
 .text.SetAlgoID
                0x0000000000000000      0x108 build/FreeRTOS/production/_ext/1664057780/asn.o
 .text.SetEccPublicKey
                0x0000000000000000       0xfc build/FreeRTOS/production/_ext/1664057780/asn.o
 .text.wc_EncodeSignature
                0x0000000000000000       0x66 build/FreeRTOS/production/_ext/1664057780/asn.o
 .text.wc_GetCTC_HashOID
                0x0000000000000000       0x10 build/FreeRTOS/production/_ext/1664057780/asn.o
 .text.InitSignatureCtx
                0x0000000000000000       0x1c build/FreeRTOS/production/_ext/1664057780/asn.o
 .text.InitDecodedCert
                0x0000000000000000       0x4a build/FreeRTOS/production/_ext/1664057780/asn.o
 .text.wc_InitDecodedCert
                0x0000000000000000        0x8 build/FreeRTOS/production/_ext/1664057780/asn.o
 .text.FreeSignatureCtx
                0x0000000000000000       0x5c build/FreeRTOS/production/_ext/1664057780/asn.o
 .text.FreeDecodedCert
                0x0000000000000000       0x7e build/FreeRTOS/production/_ext/1664057780/asn.o
 .text.wc_FreeDecodedCert
                0x0000000000000000        0x8 build/FreeRTOS/production/_ext/1664057780/asn.o
 .text.GetCA    0x0000000000000000        0x2 build/FreeRTOS/production/_ext/1664057780/asn.o
 .text.GetCAByName
                0x0000000000000000        0x2 build/FreeRTOS/production/_ext/1664057780/asn.o
 .text.MakeSigner
                0x0000000000000000       0x18 build/FreeRTOS/production/_ext/1664057780/asn.o
 .text.FreeSigner
                0x0000000000000000       0x32 build/FreeRTOS/production/_ext/1664057780/asn.o
 .text.FreeSignerTable
                0x0000000000000000       0x3a build/FreeRTOS/production/_ext/1664057780/asn.o
 .text.SetMyVersion
                0x0000000000000000       0x28 build/FreeRTOS/production/_ext/1664057780/asn.o
 .text.wc_CreatePKCS8Key
                0x0000000000000000      0x1a0 build/FreeRTOS/production/_ext/1664057780/asn.o
 .text.wc_BuildEccKeyDer
                0x0000000000000000      0x212 build/FreeRTOS/production/_ext/1664057780/asn.o
 .text.eccToPKCS8
                0x0000000000000000      0x10c build/FreeRTOS/production/_ext/1664057780/asn.o
 .text.SetSerialNumber
                0x0000000000000000       0x9c build/FreeRTOS/production/_ext/1664057780/asn.o
 .text.wc_GetSerialNumber
                0x0000000000000000       0x66 build/FreeRTOS/production/_ext/1664057780/asn.o
 .text.wc_GetPubX509
                0x0000000000000000      0x16e build/FreeRTOS/production/_ext/1664057780/asn.o
 .text.DecodeToKey
                0x0000000000000000      0x188 build/FreeRTOS/production/_ext/1664057780/asn.o
 .text.AllocDer
                0x0000000000000000       0x88 build/FreeRTOS/production/_ext/1664057780/asn.o
 .text.FreeDer  0x0000000000000000       0x3c build/FreeRTOS/production/_ext/1664057780/asn.o
 .text.wc_AllocDer
                0x0000000000000000        0x8 build/FreeRTOS/production/_ext/1664057780/asn.o
 .text.wc_FreeDer
                0x0000000000000000        0x8 build/FreeRTOS/production/_ext/1664057780/asn.o
 .text.wc_PemGetHeaderFooter
                0x0000000000000000       0xf0 build/FreeRTOS/production/_ext/1664057780/asn.o
 .text.PemToDer
                0x0000000000000000      0x238 build/FreeRTOS/production/_ext/1664057780/asn.o
 .text.wc_PemToDer
                0x0000000000000000       0x38 build/FreeRTOS/production/_ext/1664057780/asn.o
 .text.wc_KeyPemToDer
                0x0000000000000000       0x84 build/FreeRTOS/production/_ext/1664057780/asn.o
 .text.wc_CertPemToDer
                0x0000000000000000       0x76 build/FreeRTOS/production/_ext/1664057780/asn.o
 .text.wc_GetPubKeyDerFromCert
                0x0000000000000000       0x5e build/FreeRTOS/production/_ext/1664057780/asn.o
 .text.wc_EccPublicKeyToDer
                0x0000000000000000       0x16 build/FreeRTOS/production/_ext/1664057780/asn.o
 .text.wc_EccPublicKeyToDer_ex
                0x0000000000000000       0x16 build/FreeRTOS/production/_ext/1664057780/asn.o
 .text.wc_EccPublicKeyDerSize
                0x0000000000000000       0x18 build/FreeRTOS/production/_ext/1664057780/asn.o
 .text.StoreECC_DSA_Sig
                0x0000000000000000       0x7a build/FreeRTOS/production/_ext/1664057780/asn.o
 .text.StoreECC_DSA_Sig_Bin
                0x0000000000000000       0xe8 build/FreeRTOS/production/_ext/1664057780/asn.o
 .text.DecodeECC_DSA_Sig_Bin
                0x0000000000000000       0xa8 build/FreeRTOS/production/_ext/1664057780/asn.o
 .text.DecodeECC_DSA_Sig
                0x0000000000000000       0x88 build/FreeRTOS/production/_ext/1664057780/asn.o
 .text.wc_EccPrivateKeyDecode
                0x0000000000000000      0x1b2 build/FreeRTOS/production/_ext/1664057780/asn.o
 .text.wc_CheckPrivateKey
                0x0000000000000000      0x18c build/FreeRTOS/production/_ext/1664057780/asn.o
 .text.wc_CheckPrivateKeyCert
                0x0000000000000000       0x26 build/FreeRTOS/production/_ext/1664057780/asn.o
 .text.wc_EccPublicKeyDecode
                0x0000000000000000      0x1f4 build/FreeRTOS/production/_ext/1664057780/asn.o
 .text.ConfirmSignature
                0x0000000000000000      0x35c build/FreeRTOS/production/_ext/1664057780/asn.o
 .text.ParseCertRelative
                0x0000000000000000     0x1338 build/FreeRTOS/production/_ext/1664057780/asn.o
 .text.ParseCert
                0x0000000000000000       0x7e build/FreeRTOS/production/_ext/1664057780/asn.o
 .text.wc_ParseCert
                0x0000000000000000        0x8 build/FreeRTOS/production/_ext/1664057780/asn.o
 .text.wc_EccKeyToDer
                0x0000000000000000       0x16 build/FreeRTOS/production/_ext/1664057780/asn.o
 .text.wc_EccKeyDerSize
                0x0000000000000000       0x22 build/FreeRTOS/production/_ext/1664057780/asn.o
 .text.wc_EccPrivateKeyToDer
                0x0000000000000000       0x18 build/FreeRTOS/production/_ext/1664057780/asn.o
 .text.wc_EccPrivateKeyToPKCS8
                0x0000000000000000        0xa build/FreeRTOS/production/_ext/1664057780/asn.o
 .text.wc_EccKeyToPKCS8
                0x0000000000000000        0xa build/FreeRTOS/production/_ext/1664057780/asn.o
 .text.GetNameHash
                0x0000000000000000       0x7c build/FreeRTOS/production/_ext/1664057780/asn.o
 .bss.timeFunc  0x0000000000000000        0x4 build/FreeRTOS/production/_ext/1664057780/asn.o
 .rodata.BEGIN_CERT
                0x0000000000000000        0x4 build/FreeRTOS/production/_ext/1664057780/asn.o
 .rodata.BEGIN_DSA_PRIV
                0x0000000000000000        0x4 build/FreeRTOS/production/_ext/1664057780/asn.o
 .rodata.BEGIN_EC_PRIV
                0x0000000000000000        0x4 build/FreeRTOS/production/_ext/1664057780/asn.o
 .rodata.BEGIN_ENC_PRIV_KEY
                0x0000000000000000        0x4 build/FreeRTOS/production/_ext/1664057780/asn.o
 .rodata.BEGIN_PRIV_KEY
                0x0000000000000000        0x4 build/FreeRTOS/production/_ext/1664057780/asn.o
 .rodata.BEGIN_PUB_KEY
                0x0000000000000000        0x4 build/FreeRTOS/production/_ext/1664057780/asn.o
 .rodata.BEGIN_RSA_PRIV
                0x0000000000000000        0x4 build/FreeRTOS/production/_ext/1664057780/asn.o
 .rodata.BEGIN_RSA_PUB
                0x0000000000000000        0x4 build/FreeRTOS/production/_ext/1664057780/asn.o
 .rodata.BEGIN_X509_CRL
                0x0000000000000000        0x4 build/FreeRTOS/production/_ext/1664057780/asn.o
 .rodata.END_CERT
                0x0000000000000000        0x4 build/FreeRTOS/production/_ext/1664057780/asn.o
 .rodata.END_DSA_PRIV
                0x0000000000000000        0x4 build/FreeRTOS/production/_ext/1664057780/asn.o
 .rodata.END_EC_PRIV
                0x0000000000000000        0x4 build/FreeRTOS/production/_ext/1664057780/asn.o
 .rodata.END_ENC_PRIV_KEY
                0x0000000000000000        0x4 build/FreeRTOS/production/_ext/1664057780/asn.o
 .rodata.END_PRIV_KEY
                0x0000000000000000        0x4 build/FreeRTOS/production/_ext/1664057780/asn.o
 .rodata.END_PUB_KEY
                0x0000000000000000        0x4 build/FreeRTOS/production/_ext/1664057780/asn.o
 .rodata.END_RSA_PRIV
                0x0000000000000000        0x4 build/FreeRTOS/production/_ext/1664057780/asn.o
 .rodata.END_RSA_PUB
                0x0000000000000000        0x4 build/FreeRTOS/production/_ext/1664057780/asn.o
 .rodata.END_X509_CRL
                0x0000000000000000        0x4 build/FreeRTOS/production/_ext/1664057780/asn.o
 .rodata.GetName.str1.4
                0x0000000000000000       0x70 build/FreeRTOS/production/_ext/1664057780/asn.o
 .rodata.PemToDer.str1.4
                0x0000000000000000       0x80 build/FreeRTOS/production/_ext/1664057780/asn.o
 .rodata.blkAes128CbcOid
                0x0000000000000000        0xc build/FreeRTOS/production/_ext/1664057780/asn.o
 .rodata.blkAes128CcmOid
                0x0000000000000000        0xc build/FreeRTOS/production/_ext/1664057780/asn.o
 .rodata.blkAes128GcmOid
                0x0000000000000000        0xc build/FreeRTOS/production/_ext/1664057780/asn.o
 .rodata.blkAes192CbcOid
                0x0000000000000000        0xc build/FreeRTOS/production/_ext/1664057780/asn.o
 .rodata.blkAes192CcmOid
                0x0000000000000000        0xc build/FreeRTOS/production/_ext/1664057780/asn.o
 .rodata.blkAes192GcmOid
                0x0000000000000000        0xc build/FreeRTOS/production/_ext/1664057780/asn.o
 .rodata.blkAes256CbcOid
                0x0000000000000000        0xc build/FreeRTOS/production/_ext/1664057780/asn.o
 .rodata.blkAes256CcmOid
                0x0000000000000000        0xc build/FreeRTOS/production/_ext/1664057780/asn.o
 .rodata.blkAes256GcmOid
                0x0000000000000000        0xc build/FreeRTOS/production/_ext/1664057780/asn.o
 .rodata.blkDes3CbcOid
                0x0000000000000000        0x8 build/FreeRTOS/production/_ext/1664057780/asn.o
 .rodata.blkDesCbcOid
                0x0000000000000000        0x8 build/FreeRTOS/production/_ext/1664057780/asn.o
 .rodata.dhSinglePass_stdDH_sha1kdf_Oid
                0x0000000000000000        0xc build/FreeRTOS/production/_ext/1664057780/asn.o
 .rodata.dhSinglePass_stdDH_sha224kdf_Oid
                0x0000000000000000        0x8 build/FreeRTOS/production/_ext/1664057780/asn.o
 .rodata.dhSinglePass_stdDH_sha256kdf_Oid
                0x0000000000000000        0x8 build/FreeRTOS/production/_ext/1664057780/asn.o
 .rodata.extAltNamesHwNameOid
                0x0000000000000000        0x8 build/FreeRTOS/production/_ext/1664057780/asn.o
 .rodata.extAltNamesOid
                0x0000000000000000        0x4 build/FreeRTOS/production/_ext/1664057780/asn.o
 .rodata.extAuthInfoCaIssuerOid
                0x0000000000000000        0x8 build/FreeRTOS/production/_ext/1664057780/asn.o
 .rodata.extAuthInfoOcspOid
                0x0000000000000000        0x8 build/FreeRTOS/production/_ext/1664057780/asn.o
 .rodata.extAuthInfoOid
                0x0000000000000000        0x8 build/FreeRTOS/production/_ext/1664057780/asn.o
 .rodata.extAuthKeyOid
                0x0000000000000000        0x4 build/FreeRTOS/production/_ext/1664057780/asn.o
 .rodata.extBasicCaOid
                0x0000000000000000        0x4 build/FreeRTOS/production/_ext/1664057780/asn.o
 .rodata.extCertPolicyAnyOid
                0x0000000000000000        0x4 build/FreeRTOS/production/_ext/1664057780/asn.o
 .rodata.extCertPolicyOid
                0x0000000000000000        0x4 build/FreeRTOS/production/_ext/1664057780/asn.o
 .rodata.extCrlDistOid
                0x0000000000000000        0x4 build/FreeRTOS/production/_ext/1664057780/asn.o
 .rodata.extExtKeyUsageAnyOid
                0x0000000000000000        0x4 build/FreeRTOS/production/_ext/1664057780/asn.o
 .rodata.extExtKeyUsageClientAuthOid
                0x0000000000000000        0x8 build/FreeRTOS/production/_ext/1664057780/asn.o
 .rodata.extExtKeyUsageCodeSigningOid
                0x0000000000000000        0x8 build/FreeRTOS/production/_ext/1664057780/asn.o
 .rodata.extExtKeyUsageEmailProtectOid
                0x0000000000000000        0x8 build/FreeRTOS/production/_ext/1664057780/asn.o
 .rodata.extExtKeyUsageOcspSignOid
                0x0000000000000000        0x8 build/FreeRTOS/production/_ext/1664057780/asn.o
 .rodata.extExtKeyUsageOid
                0x0000000000000000        0x4 build/FreeRTOS/production/_ext/1664057780/asn.o
 .rodata.extExtKeyUsageServerAuthOid
                0x0000000000000000        0x8 build/FreeRTOS/production/_ext/1664057780/asn.o
 .rodata.extExtKeyUsageTimestampOid
                0x0000000000000000        0x8 build/FreeRTOS/production/_ext/1664057780/asn.o
 .rodata.extInhibitAnyOid
                0x0000000000000000        0x4 build/FreeRTOS/production/_ext/1664057780/asn.o
 .rodata.extKeyUsageOid
                0x0000000000000000        0x4 build/FreeRTOS/production/_ext/1664057780/asn.o
 .rodata.extNameConsOid
                0x0000000000000000        0x4 build/FreeRTOS/production/_ext/1664057780/asn.o
 .rodata.extSubjKeyOid
                0x0000000000000000        0x4 build/FreeRTOS/production/_ext/1664057780/asn.o
 .rodata.hashMd5hOid
                0x0000000000000000        0x8 build/FreeRTOS/production/_ext/1664057780/asn.o
 .rodata.hashSha1hOid
                0x0000000000000000        0x8 build/FreeRTOS/production/_ext/1664057780/asn.o
 .rodata.hashSha224hOid
                0x0000000000000000        0xc build/FreeRTOS/production/_ext/1664057780/asn.o
 .rodata.hashSha256hOid
                0x0000000000000000        0xc build/FreeRTOS/production/_ext/1664057780/asn.o
 .rodata.hmacSha224Oid
                0x0000000000000000        0x8 build/FreeRTOS/production/_ext/1664057780/asn.o
 .rodata.hmacSha256Oid
                0x0000000000000000        0x8 build/FreeRTOS/production/_ext/1664057780/asn.o
 .rodata.keyEcdsaOid
                0x0000000000000000        0x8 build/FreeRTOS/production/_ext/1664057780/asn.o
 .rodata.keyRsaOid
                0x0000000000000000        0xc build/FreeRTOS/production/_ext/1664057780/asn.o
 .rodata.pbeMd5Des
                0x0000000000000000        0xc build/FreeRTOS/production/_ext/1664057780/asn.o
 .rodata.pbeSha1Des
                0x0000000000000000        0xc build/FreeRTOS/production/_ext/1664057780/asn.o
 .rodata.pbeSha1Des3
                0x0000000000000000        0xc build/FreeRTOS/production/_ext/1664057780/asn.o
 .rodata.pbes2  0x0000000000000000        0xc build/FreeRTOS/production/_ext/1664057780/asn.o
 .rodata.pbkdf2Oid
                0x0000000000000000        0xc build/FreeRTOS/production/_ext/1664057780/asn.o
 .rodata.pem_struct_min_sz
                0x0000000000000000        0x4 build/FreeRTOS/production/_ext/1664057780/asn.o
 .rodata.sigMd5wRsaName
                0x0000000000000000       0x18 build/FreeRTOS/production/_ext/1664057780/asn.o
 .rodata.sigMd5wRsaOid
                0x0000000000000000        0xc build/FreeRTOS/production/_ext/1664057780/asn.o
 .rodata.sigSha1wEcdsaName
                0x0000000000000000        0xc build/FreeRTOS/production/_ext/1664057780/asn.o
 .rodata.sigSha1wEcdsaOid
                0x0000000000000000        0x8 build/FreeRTOS/production/_ext/1664057780/asn.o
 .rodata.sigSha1wRsaName
                0x0000000000000000       0x18 build/FreeRTOS/production/_ext/1664057780/asn.o
 .rodata.sigSha1wRsaOid
                0x0000000000000000        0xc build/FreeRTOS/production/_ext/1664057780/asn.o
 .rodata.sigSha224wEcdsaName
                0x0000000000000000       0x10 build/FreeRTOS/production/_ext/1664057780/asn.o
 .rodata.sigSha224wEcdsaOid
                0x0000000000000000        0x8 build/FreeRTOS/production/_ext/1664057780/asn.o
 .rodata.sigSha224wRsaName
                0x0000000000000000       0x18 build/FreeRTOS/production/_ext/1664057780/asn.o
 .rodata.sigSha224wRsaOid
                0x0000000000000000        0xc build/FreeRTOS/production/_ext/1664057780/asn.o
 .rodata.sigSha256wEcdsaName
                0x0000000000000000       0x10 build/FreeRTOS/production/_ext/1664057780/asn.o
 .rodata.sigSha256wEcdsaOid
                0x0000000000000000        0x8 build/FreeRTOS/production/_ext/1664057780/asn.o
 .rodata.sigSha256wRsaName
                0x0000000000000000       0x18 build/FreeRTOS/production/_ext/1664057780/asn.o
 .rodata.sigSha256wRsaOid
                0x0000000000000000        0xc build/FreeRTOS/production/_ext/1664057780/asn.o
 .rodata.sigUnknownName
                0x0000000000000000        0x8 build/FreeRTOS/production/_ext/1664057780/asn.o
 .rodata.wc_PemGetHeaderFooter.str1.4
                0x0000000000000000      0x1a8 build/FreeRTOS/production/_ext/1664057780/asn.o
 .rodata.wrapAes128Oid
                0x0000000000000000        0xc build/FreeRTOS/production/_ext/1664057780/asn.o
 .rodata.wrapAes192Oid
                0x0000000000000000        0xc build/FreeRTOS/production/_ext/1664057780/asn.o
 .rodata.wrapAes256Oid
                0x0000000000000000        0xc build/FreeRTOS/production/_ext/1664057780/asn.o
 .debug_info    0x0000000000000000     0xe369 build/FreeRTOS/production/_ext/1664057780/asn.o
 .debug_abbrev  0x0000000000000000      0x632 build/FreeRTOS/production/_ext/1664057780/asn.o
 .debug_loc     0x0000000000000000     0xf1b4 build/FreeRTOS/production/_ext/1664057780/asn.o
 .debug_aranges
                0x0000000000000000      0x3d0 build/FreeRTOS/production/_ext/1664057780/asn.o
 .debug_ranges  0x0000000000000000      0xa38 build/FreeRTOS/production/_ext/1664057780/asn.o
 .debug_line    0x0000000000000000     0x63bb build/FreeRTOS/production/_ext/1664057780/asn.o
 .debug_str     0x0000000000000000     0x5201 build/FreeRTOS/production/_ext/1664057780/asn.o
 .comment       0x0000000000000000       0x2c build/FreeRTOS/production/_ext/1664057780/asn.o
 .debug_frame   0x0000000000000000     0x1038 build/FreeRTOS/production/_ext/1664057780/asn.o
 .ARM.attributes
                0x0000000000000000       0x34 build/FreeRTOS/production/_ext/1664057780/asn.o
 .text          0x0000000000000000        0x0 build/FreeRTOS/production/_ext/1664057780/poly1305.o
 .data          0x0000000000000000        0x0 build/FreeRTOS/production/_ext/1664057780/poly1305.o
 .bss           0x0000000000000000        0x0 build/FreeRTOS/production/_ext/1664057780/poly1305.o
 .debug_info    0x0000000000000000       0x79 build/FreeRTOS/production/_ext/1664057780/poly1305.o
 .debug_abbrev  0x0000000000000000       0x26 build/FreeRTOS/production/_ext/1664057780/poly1305.o
 .debug_aranges
                0x0000000000000000       0x18 build/FreeRTOS/production/_ext/1664057780/poly1305.o
 .debug_line    0x0000000000000000       0x1d build/FreeRTOS/production/_ext/1664057780/poly1305.o
 .debug_str     0x0000000000000000      0x2d7 build/FreeRTOS/production/_ext/1664057780/poly1305.o
 .comment       0x0000000000000000       0x2c build/FreeRTOS/production/_ext/1664057780/poly1305.o
 .ARM.attributes
                0x0000000000000000       0x39 build/FreeRTOS/production/_ext/1664057780/poly1305.o
 .text          0x0000000000000000        0x0 build/FreeRTOS/production/_ext/1664057780/sp_cortexm.o
 .data          0x0000000000000000        0x0 build/FreeRTOS/production/_ext/1664057780/sp_cortexm.o
 .bss           0x0000000000000000        0x0 build/FreeRTOS/production/_ext/1664057780/sp_cortexm.o
 .debug_info    0x0000000000000000       0x79 build/FreeRTOS/production/_ext/1664057780/sp_cortexm.o
 .debug_abbrev  0x0000000000000000       0x26 build/FreeRTOS/production/_ext/1664057780/sp_cortexm.o
 .debug_aranges
                0x0000000000000000       0x18 build/FreeRTOS/production/_ext/1664057780/sp_cortexm.o
 .debug_line    0x0000000000000000       0x1d build/FreeRTOS/production/_ext/1664057780/sp_cortexm.o
 .debug_str     0x0000000000000000      0x2d9 build/FreeRTOS/production/_ext/1664057780/sp_cortexm.o
 .comment       0x0000000000000000       0x2c build/FreeRTOS/production/_ext/1664057780/sp_cortexm.o
 .ARM.attributes
                0x0000000000000000       0x39 build/FreeRTOS/production/_ext/1664057780/sp_cortexm.o
 .text          0x0000000000000000        0x0 build/FreeRTOS/production/_ext/1664057780/wc_port.o
 .data          0x0000000000000000        0x0 build/FreeRTOS/production/_ext/1664057780/wc_port.o
 .bss           0x0000000000000000        0x0 build/FreeRTOS/production/_ext/1664057780/wc_port.o
 .text.wolfCrypt_Init
                0x0000000000000000       0x20 build/FreeRTOS/production/_ext/1664057780/wc_port.o
 .text.wolfCrypt_Cleanup
                0x0000000000000000       0x24 build/FreeRTOS/production/_ext/1664057780/wc_port.o
 .text.wc_InitAndAllocMutex
                0x0000000000000000        0xa build/FreeRTOS/production/_ext/1664057780/wc_port.o
 .text.wc_strtok
                0x0000000000000000       0x88 build/FreeRTOS/production/_ext/1664057780/wc_port.o
 .text.wc_strsep
                0x0000000000000000       0x44 build/FreeRTOS/production/_ext/1664057780/wc_port.o
 .text.wc_strlcpy
                0x0000000000000000       0x44 build/FreeRTOS/production/_ext/1664057780/wc_port.o
 .text.wc_strlcat
                0x0000000000000000       0x30 build/FreeRTOS/production/_ext/1664057780/wc_port.o
 .text.wc_InitMutex
                0x0000000000000000        0x4 build/FreeRTOS/production/_ext/1664057780/wc_port.o
 .text.wc_FreeMutex
                0x0000000000000000        0x4 build/FreeRTOS/production/_ext/1664057780/wc_port.o
 .text.wc_LockMutex
                0x0000000000000000        0x4 build/FreeRTOS/production/_ext/1664057780/wc_port.o
 .text.wc_UnLockMutex
                0x0000000000000000        0x4 build/FreeRTOS/production/_ext/1664057780/wc_port.o
 .text.mystrnstr
                0x0000000000000000       0x5c build/FreeRTOS/production/_ext/1664057780/wc_port.o
 .bss.initRefCount
                0x0000000000000000        0x4 build/FreeRTOS/production/_ext/1664057780/wc_port.o
 .debug_info    0x0000000000000000      0x8d8 build/FreeRTOS/production/_ext/1664057780/wc_port.o
 .debug_abbrev  0x0000000000000000      0x24a build/FreeRTOS/production/_ext/1664057780/wc_port.o
 .debug_loc     0x0000000000000000      0x7a0 build/FreeRTOS/production/_ext/1664057780/wc_port.o
 .debug_aranges
                0x0000000000000000       0x78 build/FreeRTOS/production/_ext/1664057780/wc_port.o
 .debug_ranges  0x0000000000000000       0x68 build/FreeRTOS/production/_ext/1664057780/wc_port.o
 .debug_line    0x0000000000000000      0x524 build/FreeRTOS/production/_ext/1664057780/wc_port.o
 .debug_str     0x0000000000000000      0xb67 build/FreeRTOS/production/_ext/1664057780/wc_port.o
 .comment       0x0000000000000000       0x2c build/FreeRTOS/production/_ext/1664057780/wc_port.o
 .debug_frame   0x0000000000000000      0x170 build/FreeRTOS/production/_ext/1664057780/wc_port.o
 .ARM.attributes
                0x0000000000000000       0x34 build/FreeRTOS/production/_ext/1664057780/wc_port.o
 .text          0x0000000000000000        0x0 build/FreeRTOS/production/_ext/1664057780/sp_arm64.o
 .data          0x0000000000000000        0x0 build/FreeRTOS/production/_ext/1664057780/sp_arm64.o
 .bss           0x0000000000000000        0x0 build/FreeRTOS/production/_ext/1664057780/sp_arm64.o
 .debug_info    0x0000000000000000       0x79 build/FreeRTOS/production/_ext/1664057780/sp_arm64.o
 .debug_abbrev  0x0000000000000000       0x26 build/FreeRTOS/production/_ext/1664057780/sp_arm64.o
 .debug_aranges
                0x0000000000000000       0x18 build/FreeRTOS/production/_ext/1664057780/sp_arm64.o
 .debug_line    0x0000000000000000       0x1d build/FreeRTOS/production/_ext/1664057780/sp_arm64.o
 .debug_str     0x0000000000000000      0x2d7 build/FreeRTOS/production/_ext/1664057780/sp_arm64.o
 .comment       0x0000000000000000       0x2c build/FreeRTOS/production/_ext/1664057780/sp_arm64.o
 .ARM.attributes
                0x0000000000000000       0x39 build/FreeRTOS/production/_ext/1664057780/sp_arm64.o
 .text          0x0000000000000000        0x0 build/FreeRTOS/production/_ext/1664057780/ge_operations.o
 .data          0x0000000000000000        0x0 build/FreeRTOS/production/_ext/1664057780/ge_operations.o
 .bss           0x0000000000000000        0x0 build/FreeRTOS/production/_ext/1664057780/ge_operations.o
 .debug_info    0x0000000000000000       0x79 build/FreeRTOS/production/_ext/1664057780/ge_operations.o
 .debug_abbrev  0x0000000000000000       0x26 build/FreeRTOS/production/_ext/1664057780/ge_operations.o
 .debug_aranges
                0x0000000000000000       0x18 build/FreeRTOS/production/_ext/1664057780/ge_operations.o
 .debug_line    0x0000000000000000       0x1d build/FreeRTOS/production/_ext/1664057780/ge_operations.o
 .debug_str     0x0000000000000000      0x2dc build/FreeRTOS/production/_ext/1664057780/ge_operations.o
 .comment       0x0000000000000000       0x2c build/FreeRTOS/production/_ext/1664057780/ge_operations.o
 .ARM.attributes
                0x0000000000000000       0x39 build/FreeRTOS/production/_ext/1664057780/ge_operations.o
 .text          0x0000000000000000        0x0 build/FreeRTOS/production/_ext/1664057780/ed448.o
 .data          0x0000000000000000        0x0 build/FreeRTOS/production/_ext/1664057780/ed448.o
 .bss           0x0000000000000000        0x0 build/FreeRTOS/production/_ext/1664057780/ed448.o
 .debug_info    0x0000000000000000       0x79 build/FreeRTOS/production/_ext/1664057780/ed448.o
 .debug_abbrev  0x0000000000000000       0x26 build/FreeRTOS/production/_ext/1664057780/ed448.o
 .debug_aranges
                0x0000000000000000       0x18 build/FreeRTOS/production/_ext/1664057780/ed448.o
 .debug_line    0x0000000000000000       0x1d build/FreeRTOS/production/_ext/1664057780/ed448.o
 .debug_str     0x0000000000000000      0x2d4 build/FreeRTOS/production/_ext/1664057780/ed448.o
 .comment       0x0000000000000000       0x2c build/FreeRTOS/production/_ext/1664057780/ed448.o
 .ARM.attributes
                0x0000000000000000       0x39 build/FreeRTOS/production/_ext/1664057780/ed448.o
 .text          0x0000000000000000        0x0 build/FreeRTOS/production/_ext/1664057780/ecc.o
 .data          0x0000000000000000        0x0 build/FreeRTOS/production/_ext/1664057780/ecc.o
 .bss           0x0000000000000000        0x0 build/FreeRTOS/production/_ext/1664057780/ecc.o
 .text._ecc_projective_dbl_point
                0x0000000000000000      0x256 build/FreeRTOS/production/_ext/1664057780/ecc.o
 .text._ecc_projective_add_point
                0x0000000000000000      0x474 build/FreeRTOS/production/_ext/1664057780/ecc.o
 .text.wc_ecc_new_point_ex
                0x0000000000000000       0x5a build/FreeRTOS/production/_ext/1664057780/ecc.o
 .text.wc_ecc_del_point_ex
                0x0000000000000000       0x24 build/FreeRTOS/production/_ext/1664057780/ecc.o
 .text.ecc_point_to_mont
                0x0000000000000000       0xa8 build/FreeRTOS/production/_ext/1664057780/ecc.o
 .text.wc_ecc_cmp_param
                0x0000000000000000       0x84 build/FreeRTOS/production/_ext/1664057780/ecc.o
 .text.wc_ecc_curve_cache_load_item
                0x0000000000000000       0x50 build/FreeRTOS/production/_ext/1664057780/ecc.o
 .text.wc_ecc_curve_free
                0x0000000000000000       0xa8 build/FreeRTOS/production/_ext/1664057780/ecc.o
 .text.wc_ecc_curve_load
                0x0000000000000000       0xbe build/FreeRTOS/production/_ext/1664057780/ecc.o
 .text.wc_ecc_get_curve_order_bit_count
                0x0000000000000000       0x46 build/FreeRTOS/production/_ext/1664057780/ecc.o
 .text.wc_ecc_set_curve
                0x0000000000000000       0x78 build/FreeRTOS/production/_ext/1664057780/ecc.o
 .text.wc_ecc_import_raw_private
                0x0000000000000000      0x186 build/FreeRTOS/production/_ext/1664057780/ecc.o
 .text.ecc_projective_add_point
                0x0000000000000000       0xce build/FreeRTOS/production/_ext/1664057780/ecc.o
 .text.ecc_projective_dbl_point
                0x0000000000000000       0x76 build/FreeRTOS/production/_ext/1664057780/ecc.o
 .text.ecc_map_ex
                0x0000000000000000      0x13a build/FreeRTOS/production/_ext/1664057780/ecc.o
 .text.ecc_map  0x0000000000000000        0xa build/FreeRTOS/production/_ext/1664057780/ecc.o
 .text.wc_ecc_new_point_h
                0x0000000000000000       0x18 build/FreeRTOS/production/_ext/1664057780/ecc.o
 .text.wc_ecc_new_point
                0x0000000000000000       0x16 build/FreeRTOS/production/_ext/1664057780/ecc.o
 .text.wc_ecc_del_point_h
                0x0000000000000000        0x8 build/FreeRTOS/production/_ext/1664057780/ecc.o
 .text.wc_ecc_del_point
                0x0000000000000000        0xa build/FreeRTOS/production/_ext/1664057780/ecc.o
 .text.wc_ecc_forcezero_point
                0x0000000000000000       0x1e build/FreeRTOS/production/_ext/1664057780/ecc.o
 .text.wc_ecc_copy_point
                0x0000000000000000       0x44 build/FreeRTOS/production/_ext/1664057780/ecc.o
 .text.wc_ecc_cmp_point
                0x0000000000000000       0x44 build/FreeRTOS/production/_ext/1664057780/ecc.o
 .text.wc_ecc_is_valid_idx
                0x0000000000000000       0x1c build/FreeRTOS/production/_ext/1664057780/ecc.o
 .text.wc_ecc_get_curve_idx
                0x0000000000000000       0x28 build/FreeRTOS/production/_ext/1664057780/ecc.o
 .text.wc_ecc_get_name
                0x0000000000000000       0x20 build/FreeRTOS/production/_ext/1664057780/ecc.o
 .text.wc_ecc_get_curve_id
                0x0000000000000000       0x20 build/FreeRTOS/production/_ext/1664057780/ecc.o
 .text.wc_ecc_get_curve_size_from_id
                0x0000000000000000       0x24 build/FreeRTOS/production/_ext/1664057780/ecc.o
 .text.wc_ecc_get_curve_idx_from_name
                0x0000000000000000       0x44 build/FreeRTOS/production/_ext/1664057780/ecc.o
 .text.wc_ecc_get_curve_size_from_name
                0x0000000000000000       0x24 build/FreeRTOS/production/_ext/1664057780/ecc.o
 .text.wc_ecc_get_curve_id_from_name
                0x0000000000000000       0x24 build/FreeRTOS/production/_ext/1664057780/ecc.o
 .text.wc_ecc_get_curve_id_from_params
                0x0000000000000000       0xf4 build/FreeRTOS/production/_ext/1664057780/ecc.o
 .text.wc_ecc_get_curve_id_from_dp_params
                0x0000000000000000      0x138 build/FreeRTOS/production/_ext/1664057780/ecc.o
 .text.wc_ecc_get_curve_id_from_oid
                0x0000000000000000       0x58 build/FreeRTOS/production/_ext/1664057780/ecc.o
 .text.wc_ecc_get_curve_params
                0x0000000000000000       0x14 build/FreeRTOS/production/_ext/1664057780/ecc.o
 .text.wc_ecc_point_is_at_infinity
                0x0000000000000000       0x2a build/FreeRTOS/production/_ext/1664057780/ecc.o
 .text.wc_ecc_gen_k
                0x0000000000000000       0x9a build/FreeRTOS/production/_ext/1664057780/ecc.o
 .text.wc_ecc_init_ex
                0x0000000000000000       0x4e build/FreeRTOS/production/_ext/1664057780/ecc.o
 .text.wc_ecc_key_new
                0x0000000000000000       0x2a build/FreeRTOS/production/_ext/1664057780/ecc.o
 .text.wc_ecc_init
                0x0000000000000000        0xe build/FreeRTOS/production/_ext/1664057780/ecc.o
 .text.wc_ecc_init_id
                0x0000000000000000       0x42 build/FreeRTOS/production/_ext/1664057780/ecc.o
 .text.wc_ecc_init_label
                0x0000000000000000       0x5a build/FreeRTOS/production/_ext/1664057780/ecc.o
 .text.wc_ecc_set_flags
                0x0000000000000000       0x12 build/FreeRTOS/production/_ext/1664057780/ecc.o
 .text.wc_ecc_free
                0x0000000000000000       0x2c build/FreeRTOS/production/_ext/1664057780/ecc.o
 .text.wc_ecc_key_free
                0x0000000000000000       0x28 build/FreeRTOS/production/_ext/1664057780/ecc.o
 .text.ecc_projective_add_point_safe
                0x0000000000000000      0x186 build/FreeRTOS/production/_ext/1664057780/ecc.o
 .text.ecc_projective_dbl_point_safe
                0x0000000000000000       0x3a build/FreeRTOS/production/_ext/1664057780/ecc.o
 .text.ecc_mulmod
                0x0000000000000000      0x256 build/FreeRTOS/production/_ext/1664057780/ecc.o
 .text.wc_ecc_mulmod_ex
                0x0000000000000000      0x102 build/FreeRTOS/production/_ext/1664057780/ecc.o
 .text.wc_ecc_mulmod
                0x0000000000000000       0x18 build/FreeRTOS/production/_ext/1664057780/ecc.o
 .text.wc_ecc_mulmod_ex2
                0x0000000000000000      0x116 build/FreeRTOS/production/_ext/1664057780/ecc.o
 .text.wc_ecc_shared_secret_gen_sync
                0x0000000000000000      0x10e build/FreeRTOS/production/_ext/1664057780/ecc.o
 .text.wc_ecc_shared_secret_gen
                0x0000000000000000       0x28 build/FreeRTOS/production/_ext/1664057780/ecc.o
 .text.wc_ecc_shared_secret_ex
                0x0000000000000000       0x9e build/FreeRTOS/production/_ext/1664057780/ecc.o
 .text.wc_ecc_shared_secret
                0x0000000000000000       0xa4 build/FreeRTOS/production/_ext/1664057780/ecc.o
 .text.ecc_make_pub_ex
                0x0000000000000000      0x1a4 build/FreeRTOS/production/_ext/1664057780/ecc.o
 .text.wc_ecc_make_pub
                0x0000000000000000        0xe build/FreeRTOS/production/_ext/1664057780/ecc.o
 .text.wc_ecc_make_pub_ex
                0x0000000000000000        0xe build/FreeRTOS/production/_ext/1664057780/ecc.o
 .text._ecc_make_key_ex
                0x0000000000000000       0xd6 build/FreeRTOS/production/_ext/1664057780/ecc.o
 .text.wc_ecc_make_key_ex2
                0x0000000000000000       0x10 build/FreeRTOS/production/_ext/1664057780/ecc.o
 .text.wc_ecc_sign_hash_ex
                0x0000000000000000      0x2a6 build/FreeRTOS/production/_ext/1664057780/ecc.o
 .text.wc_ecc_sign_hash
                0x0000000000000000       0xe2 build/FreeRTOS/production/_ext/1664057780/ecc.o
 .text.wc_ecc_make_key_ex
                0x0000000000000000       0x10 build/FreeRTOS/production/_ext/1664057780/ecc.o
 .text.wc_ecc_make_key
                0x0000000000000000        0xa build/FreeRTOS/production/_ext/1664057780/ecc.o
 .text.wc_ecc_verify_hash_ex
                0x0000000000000000      0x52c build/FreeRTOS/production/_ext/1664057780/ecc.o
 .text.wc_ecc_verify_hash
                0x0000000000000000       0xda build/FreeRTOS/production/_ext/1664057780/ecc.o
 .text.wc_ecc_import_point_der_ex
                0x0000000000000000       0xde build/FreeRTOS/production/_ext/1664057780/ecc.o
 .text.wc_ecc_import_point_der
                0x0000000000000000       0x10 build/FreeRTOS/production/_ext/1664057780/ecc.o
 .text.wc_ecc_export_point_der
                0x0000000000000000      0x10c build/FreeRTOS/production/_ext/1664057780/ecc.o
 .text.wc_ecc_export_point_der_ex
                0x0000000000000000       0x12 build/FreeRTOS/production/_ext/1664057780/ecc.o
 .text.wc_ecc_export_x963
                0x0000000000000000      0x122 build/FreeRTOS/production/_ext/1664057780/ecc.o
 .text.wc_ecc_export_x963_ex
                0x0000000000000000       0x10 build/FreeRTOS/production/_ext/1664057780/ecc.o
 .text.wc_ecc_is_point
                0x0000000000000000      0x110 build/FreeRTOS/production/_ext/1664057780/ecc.o
 .text._ecc_validate_public_key
                0x0000000000000000      0x1d0 build/FreeRTOS/production/_ext/1664057780/ecc.o
 .text.wc_ecc_check_key
                0x0000000000000000        0xc build/FreeRTOS/production/_ext/1664057780/ecc.o
 .text.wc_ecc_import_x963_ex
                0x0000000000000000       0xd6 build/FreeRTOS/production/_ext/1664057780/ecc.o
 .text.wc_ecc_import_x963
                0x0000000000000000        0xa build/FreeRTOS/production/_ext/1664057780/ecc.o
 .text.wc_ecc_export_ex
                0x0000000000000000       0xd4 build/FreeRTOS/production/_ext/1664057780/ecc.o
 .text.wc_ecc_export_private_only
                0x0000000000000000       0x30 build/FreeRTOS/production/_ext/1664057780/ecc.o
 .text.wc_ecc_export_public_raw
                0x0000000000000000       0x3a build/FreeRTOS/production/_ext/1664057780/ecc.o
 .text.wc_ecc_export_private_raw
                0x0000000000000000       0x1c build/FreeRTOS/production/_ext/1664057780/ecc.o
 .text.wc_ecc_import_private_key_ex
                0x0000000000000000       0x70 build/FreeRTOS/production/_ext/1664057780/ecc.o
 .text.wc_ecc_import_private_key
                0x0000000000000000       0x14 build/FreeRTOS/production/_ext/1664057780/ecc.o
 .text.wc_ecc_rs_to_sig
                0x0000000000000000       0xc0 build/FreeRTOS/production/_ext/1664057780/ecc.o
 .text.wc_ecc_rs_raw_to_sig
                0x0000000000000000       0x40 build/FreeRTOS/production/_ext/1664057780/ecc.o
 .text.wc_ecc_sig_to_rs
                0x0000000000000000       0x3c build/FreeRTOS/production/_ext/1664057780/ecc.o
 .text.wc_ecc_import_raw_ex
                0x0000000000000000       0x14 build/FreeRTOS/production/_ext/1664057780/ecc.o
 .text.wc_ecc_import_unsigned
                0x0000000000000000       0x14 build/FreeRTOS/production/_ext/1664057780/ecc.o
 .text.wc_ecc_import_raw
                0x0000000000000000       0x88 build/FreeRTOS/production/_ext/1664057780/ecc.o
 .text.wc_ecc_size
                0x0000000000000000       0x12 build/FreeRTOS/production/_ext/1664057780/ecc.o
 .text.wc_ecc_sig_size_calc
                0x0000000000000000       0x10 build/FreeRTOS/production/_ext/1664057780/ecc.o
 .text.wc_ecc_sig_size
                0x0000000000000000       0x3a build/FreeRTOS/production/_ext/1664057780/ecc.o
 .text.wc_ecc_get_oid
                0x0000000000000000       0x5c build/FreeRTOS/production/_ext/1664057780/ecc.o
 .rodata.ecc_oid_prime239v1
                0x0000000000000000        0x8 build/FreeRTOS/production/_ext/1664057780/ecc.o
 .rodata.ecc_oid_secp224r1
                0x0000000000000000        0x8 build/FreeRTOS/production/_ext/1664057780/ecc.o
 .rodata.ecc_oid_secp256r1
                0x0000000000000000        0x8 build/FreeRTOS/production/_ext/1664057780/ecc.o
 .rodata.ecc_oid_secp384r1
                0x0000000000000000        0x8 build/FreeRTOS/production/_ext/1664057780/ecc.o
 .rodata.ecc_oid_secp521r1
                0x0000000000000000        0x8 build/FreeRTOS/production/_ext/1664057780/ecc.o
 .rodata.ecc_sets
                0x0000000000000000      0x138 build/FreeRTOS/production/_ext/1664057780/ecc.o
 .rodata.ecc_sets_count
                0x0000000000000000        0x4 build/FreeRTOS/production/_ext/1664057780/ecc.o
 .rodata.str1.4
                0x0000000000000000      0xa2c build/FreeRTOS/production/_ext/1664057780/ecc.o
 .debug_info    0x0000000000000000     0x90be build/FreeRTOS/production/_ext/1664057780/ecc.o
 .debug_abbrev  0x0000000000000000      0x4a1 build/FreeRTOS/production/_ext/1664057780/ecc.o
 .debug_loc     0x0000000000000000     0xa48c build/FreeRTOS/production/_ext/1664057780/ecc.o
 .debug_aranges
                0x0000000000000000      0x300 build/FreeRTOS/production/_ext/1664057780/ecc.o
 .debug_ranges  0x0000000000000000      0x448 build/FreeRTOS/production/_ext/1664057780/ecc.o
 .debug_line    0x0000000000000000     0x3b1c build/FreeRTOS/production/_ext/1664057780/ecc.o
 .debug_str     0x0000000000000000     0x2ced build/FreeRTOS/production/_ext/1664057780/ecc.o
 .comment       0x0000000000000000       0x2c build/FreeRTOS/production/_ext/1664057780/ecc.o
 .debug_frame   0x0000000000000000      0xd14 build/FreeRTOS/production/_ext/1664057780/ecc.o
 .ARM.attributes
                0x0000000000000000       0x34 build/FreeRTOS/production/_ext/1664057780/ecc.o
 .text          0x0000000000000000        0x0 build/FreeRTOS/production/_ext/1664057780/fe_low_mem.o
 .data          0x0000000000000000        0x0 build/FreeRTOS/production/_ext/1664057780/fe_low_mem.o
 .bss           0x0000000000000000        0x0 build/FreeRTOS/production/_ext/1664057780/fe_low_mem.o
 .debug_info    0x0000000000000000       0x79 build/FreeRTOS/production/_ext/1664057780/fe_low_mem.o
 .debug_abbrev  0x0000000000000000       0x26 build/FreeRTOS/production/_ext/1664057780/fe_low_mem.o
 .debug_aranges
                0x0000000000000000       0x18 build/FreeRTOS/production/_ext/1664057780/fe_low_mem.o
 .debug_line    0x0000000000000000       0x1d build/FreeRTOS/production/_ext/1664057780/fe_low_mem.o
 .debug_str     0x0000000000000000      0x2d9 build/FreeRTOS/production/_ext/1664057780/fe_low_mem.o
 .comment       0x0000000000000000       0x2c build/FreeRTOS/production/_ext/1664057780/fe_low_mem.o
 .ARM.attributes
                0x0000000000000000       0x39 build/FreeRTOS/production/_ext/1664057780/fe_low_mem.o
 .text          0x0000000000000000        0x0 build/FreeRTOS/production/_ext/1664057780/chacha20_poly1305.o
 .data          0x0000000000000000        0x0 build/FreeRTOS/production/_ext/1664057780/chacha20_poly1305.o
 .bss           0x0000000000000000        0x0 build/FreeRTOS/production/_ext/1664057780/chacha20_poly1305.o
 .debug_info    0x0000000000000000       0x79 build/FreeRTOS/production/_ext/1664057780/chacha20_poly1305.o
 .debug_abbrev  0x0000000000000000       0x26 build/FreeRTOS/production/_ext/1664057780/chacha20_poly1305.o
 .debug_aranges
                0x0000000000000000       0x18 build/FreeRTOS/production/_ext/1664057780/chacha20_poly1305.o
 .debug_line    0x0000000000000000       0x1d build/FreeRTOS/production/_ext/1664057780/chacha20_poly1305.o
 .debug_str     0x0000000000000000      0x2e0 build/FreeRTOS/production/_ext/1664057780/chacha20_poly1305.o
 .comment       0x0000000000000000       0x2c build/FreeRTOS/production/_ext/1664057780/chacha20_poly1305.o
 .ARM.attributes
                0x0000000000000000       0x39 build/FreeRTOS/production/_ext/1664057780/chacha20_poly1305.o
 .text          0x0000000000000000        0x0 build/FreeRTOS/production/_ext/1664057780/pwdbased.o
 .data          0x0000000000000000        0x0 build/FreeRTOS/production/_ext/1664057780/pwdbased.o
 .bss           0x0000000000000000        0x0 build/FreeRTOS/production/_ext/1664057780/pwdbased.o
 .debug_info    0x0000000000000000       0x79 build/FreeRTOS/production/_ext/1664057780/pwdbased.o
 .debug_abbrev  0x0000000000000000       0x26 build/FreeRTOS/production/_ext/1664057780/pwdbased.o
 .debug_aranges
                0x0000000000000000       0x18 build/FreeRTOS/production/_ext/1664057780/pwdbased.o
 .debug_line    0x0000000000000000       0x1d build/FreeRTOS/production/_ext/1664057780/pwdbased.o
 .debug_str     0x0000000000000000      0x2d7 build/FreeRTOS/production/_ext/1664057780/pwdbased.o
 .comment       0x0000000000000000       0x2c build/FreeRTOS/production/_ext/1664057780/pwdbased.o
 .ARM.attributes
                0x0000000000000000       0x39 build/FreeRTOS/production/_ext/1664057780/pwdbased.o
 .text          0x0000000000000000        0x0 build/FreeRTOS/production/_ext/1664057780/ripemd.o
 .data          0x0000000000000000        0x0 build/FreeRTOS/production/_ext/1664057780/ripemd.o
 .bss           0x0000000000000000        0x0 build/FreeRTOS/production/_ext/1664057780/ripemd.o
 .debug_info    0x0000000000000000       0x79 build/FreeRTOS/production/_ext/1664057780/ripemd.o
 .debug_abbrev  0x0000000000000000       0x26 build/FreeRTOS/production/_ext/1664057780/ripemd.o
 .debug_aranges
                0x0000000000000000       0x18 build/FreeRTOS/production/_ext/1664057780/ripemd.o
 .debug_line    0x0000000000000000       0x1d build/FreeRTOS/production/_ext/1664057780/ripemd.o
 .debug_str     0x0000000000000000      0x2d5 build/FreeRTOS/production/_ext/1664057780/ripemd.o
 .comment       0x0000000000000000       0x2c build/FreeRTOS/production/_ext/1664057780/ripemd.o
 .ARM.attributes
                0x0000000000000000       0x39 build/FreeRTOS/production/_ext/1664057780/ripemd.o
 .text          0x0000000000000000        0x0 build/FreeRTOS/production/_ext/1664057780/memory.o
 .data          0x0000000000000000        0x0 build/FreeRTOS/production/_ext/1664057780/memory.o
 .bss           0x0000000000000000        0x0 build/FreeRTOS/production/_ext/1664057780/memory.o
 .debug_info    0x0000000000000000       0x79 build/FreeRTOS/production/_ext/1664057780/memory.o
 .debug_abbrev  0x0000000000000000       0x26 build/FreeRTOS/production/_ext/1664057780/memory.o
 .debug_aranges
                0x0000000000000000       0x18 build/FreeRTOS/production/_ext/1664057780/memory.o
 .debug_line    0x0000000000000000       0x1d build/FreeRTOS/production/_ext/1664057780/memory.o
 .debug_str     0x0000000000000000      0x2d5 build/FreeRTOS/production/_ext/1664057780/memory.o
 .comment       0x0000000000000000       0x2c build/FreeRTOS/production/_ext/1664057780/memory.o
 .ARM.attributes
                0x0000000000000000       0x39 build/FreeRTOS/production/_ext/1664057780/memory.o
 .text          0x0000000000000000        0x0 build/FreeRTOS/production/_ext/1664057780/sp_int.o
 .data          0x0000000000000000        0x0 build/FreeRTOS/production/_ext/1664057780/sp_int.o
 .bss           0x0000000000000000        0x0 build/FreeRTOS/production/_ext/1664057780/sp_int.o
 .debug_info    0x0000000000000000       0x79 build/FreeRTOS/production/_ext/1664057780/sp_int.o
 .debug_abbrev  0x0000000000000000       0x26 build/FreeRTOS/production/_ext/1664057780/sp_int.o
 .debug_aranges
                0x0000000000000000       0x18 build/FreeRTOS/production/_ext/1664057780/sp_int.o
 .debug_line    0x0000000000000000       0x1d build/FreeRTOS/production/_ext/1664057780/sp_int.o
 .debug_str     0x0000000000000000      0x2d5 build/FreeRTOS/production/_ext/1664057780/sp_int.o
 .comment       0x0000000000000000       0x2c build/FreeRTOS/production/_ext/1664057780/sp_int.o
 .ARM.attributes
                0x0000000000000000       0x39 build/FreeRTOS/production/_ext/1664057780/sp_int.o
 .text          0x0000000000000000        0x0 build/FreeRTOS/production/_ext/1664057780/dh.o
 .data          0x0000000000000000        0x0 build/FreeRTOS/production/_ext/1664057780/dh.o
 .bss           0x0000000000000000        0x0 build/FreeRTOS/production/_ext/1664057780/dh.o
 .debug_info    0x0000000000000000       0x79 build/FreeRTOS/production/_ext/1664057780/dh.o
 .debug_abbrev  0x0000000000000000       0x26 build/FreeRTOS/production/_ext/1664057780/dh.o
 .debug_aranges
                0x0000000000000000       0x18 build/FreeRTOS/production/_ext/1664057780/dh.o
 .debug_line    0x0000000000000000       0x1d build/FreeRTOS/production/_ext/1664057780/dh.o
 .debug_str     0x0000000000000000      0x2d1 build/FreeRTOS/production/_ext/1664057780/dh.o
 .comment       0x0000000000000000       0x2c build/FreeRTOS/production/_ext/1664057780/dh.o
 .ARM.attributes
                0x0000000000000000       0x39 build/FreeRTOS/production/_ext/1664057780/dh.o
 .text          0x0000000000000000        0x0 build/FreeRTOS/production/_ext/1664057780/signature.o
 .data          0x0000000000000000        0x0 build/FreeRTOS/production/_ext/1664057780/signature.o
 .bss           0x0000000000000000        0x0 build/FreeRTOS/production/_ext/1664057780/signature.o
 .debug_info    0x0000000000000000       0x79 build/FreeRTOS/production/_ext/1664057780/signature.o
 .debug_abbrev  0x0000000000000000       0x26 build/FreeRTOS/production/_ext/1664057780/signature.o
 .debug_aranges
                0x0000000000000000       0x18 build/FreeRTOS/production/_ext/1664057780/signature.o
 .debug_line    0x0000000000000000       0x1d build/FreeRTOS/production/_ext/1664057780/signature.o
 .debug_str     0x0000000000000000      0x2d8 build/FreeRTOS/production/_ext/1664057780/signature.o
 .comment       0x0000000000000000       0x2c build/FreeRTOS/production/_ext/1664057780/signature.o
 .ARM.attributes
                0x0000000000000000       0x39 build/FreeRTOS/production/_ext/1664057780/signature.o
 .text          0x0000000000000000        0x0 build/FreeRTOS/production/_ext/1664057780/evp.o
 .data          0x0000000000000000        0x0 build/FreeRTOS/production/_ext/1664057780/evp.o
 .bss           0x0000000000000000        0x0 build/FreeRTOS/production/_ext/1664057780/evp.o
 .debug_info    0x0000000000000000       0x79 build/FreeRTOS/production/_ext/1664057780/evp.o
 .debug_abbrev  0x0000000000000000       0x26 build/FreeRTOS/production/_ext/1664057780/evp.o
 .debug_aranges
                0x0000000000000000       0x18 build/FreeRTOS/production/_ext/1664057780/evp.o
 .debug_line    0x0000000000000000       0x1d build/FreeRTOS/production/_ext/1664057780/evp.o
 .debug_str     0x0000000000000000      0x2d2 build/FreeRTOS/production/_ext/1664057780/evp.o
 .comment       0x0000000000000000       0x2c build/FreeRTOS/production/_ext/1664057780/evp.o
 .ARM.attributes
                0x0000000000000000       0x39 build/FreeRTOS/production/_ext/1664057780/evp.o
 .text          0x0000000000000000        0x0 build/FreeRTOS/production/_ext/1664057780/wc_pkcs11.o
 .data          0x0000000000000000        0x0 build/FreeRTOS/production/_ext/1664057780/wc_pkcs11.o
 .bss           0x0000000000000000        0x0 build/FreeRTOS/production/_ext/1664057780/wc_pkcs11.o
 .debug_info    0x0000000000000000       0x79 build/FreeRTOS/production/_ext/1664057780/wc_pkcs11.o
 .debug_abbrev  0x0000000000000000       0x26 build/FreeRTOS/production/_ext/1664057780/wc_pkcs11.o
 .debug_aranges
                0x0000000000000000       0x18 build/FreeRTOS/production/_ext/1664057780/wc_pkcs11.o
 .debug_line    0x0000000000000000       0x1d build/FreeRTOS/production/_ext/1664057780/wc_pkcs11.o
 .debug_str     0x0000000000000000      0x2d8 build/FreeRTOS/production/_ext/1664057780/wc_pkcs11.o
 .comment       0x0000000000000000       0x2c build/FreeRTOS/production/_ext/1664057780/wc_pkcs11.o
 .ARM.attributes
                0x0000000000000000       0x39 build/FreeRTOS/production/_ext/1664057780/wc_pkcs11.o
 .text          0x0000000000000000        0x0 build/FreeRTOS/production/_ext/1664057780/tfm.o
 .data          0x0000000000000000        0x0 build/FreeRTOS/production/_ext/1664057780/tfm.o
 .bss           0x0000000000000000        0x0 build/FreeRTOS/production/_ext/1664057780/tfm.o
 .text.fp_cond_swap_ct
                0x0000000000000000       0xa8 build/FreeRTOS/production/_ext/1664057780/tfm.o
 .text.CheckRunTimeSettings
                0x0000000000000000        0x4 build/FreeRTOS/production/_ext/1664057780/tfm.o
 .text.CheckRunTimeFastMath
                0x0000000000000000        0x4 build/FreeRTOS/production/_ext/1664057780/tfm.o
 .text.s_fp_add
                0x0000000000000000       0xe8 build/FreeRTOS/production/_ext/1664057780/tfm.o
 .text.s_fp_sub
                0x0000000000000000       0xe0 build/FreeRTOS/production/_ext/1664057780/tfm.o
 .text.fp_mul_2
                0x0000000000000000       0x84 build/FreeRTOS/production/_ext/1664057780/tfm.o
 .text.fp_mul_d
                0x0000000000000000       0xd4 build/FreeRTOS/production/_ext/1664057780/tfm.o
 .text.fp_div_2
                0x0000000000000000       0x90 build/FreeRTOS/production/_ext/1664057780/tfm.o
 .text.fp_div_2_mod_ct
                0x0000000000000000       0xfc build/FreeRTOS/production/_ext/1664057780/tfm.o
 .text.fp_submod_ct
                0x0000000000000000      0x118 build/FreeRTOS/production/_ext/1664057780/tfm.o
 .text.fp_addmod_ct
                0x0000000000000000      0x13c build/FreeRTOS/production/_ext/1664057780/tfm.o
 .text.fp_cmp_d
                0x0000000000000000       0x38 build/FreeRTOS/production/_ext/1664057780/tfm.o
 .text.fp_cmp_mag
                0x0000000000000000       0x66 build/FreeRTOS/production/_ext/1664057780/tfm.o
 .text.fp_add   0x0000000000000000       0x4a build/FreeRTOS/production/_ext/1664057780/tfm.o
 .text.fp_sub   0x0000000000000000       0x48 build/FreeRTOS/production/_ext/1664057780/tfm.o
 .text.fp_cmp   0x0000000000000000       0x32 build/FreeRTOS/production/_ext/1664057780/tfm.o
 .text.fp_montgomery_setup
                0x0000000000000000       0x40 build/FreeRTOS/production/_ext/1664057780/tfm.o
 .text.fp_montgomery_reduce_ex
                0x0000000000000000      0x178 build/FreeRTOS/production/_ext/1664057780/tfm.o
 .text.fp_montgomery_reduce
                0x0000000000000000        0xa build/FreeRTOS/production/_ext/1664057780/tfm.o
 .text.fp_to_unsigned_bin_at_pos
                0x0000000000000000       0x58 build/FreeRTOS/production/_ext/1664057780/tfm.o
 .text.fp_to_unsigned_bin_len
                0x0000000000000000       0x58 build/FreeRTOS/production/_ext/1664057780/tfm.o
 .text.fp_is_bit_set
                0x0000000000000000       0x2c build/FreeRTOS/production/_ext/1664057780/tfm.o
 .text.fp_set_bit
                0x0000000000000000       0x36 build/FreeRTOS/production/_ext/1664057780/tfm.o
 .text.fp_count_bits
                0x0000000000000000       0x1a build/FreeRTOS/production/_ext/1664057780/tfm.o
 .text.fp_unsigned_bin_size
                0x0000000000000000       0x1c build/FreeRTOS/production/_ext/1664057780/tfm.o
 .text.fp_leading_bit
                0x0000000000000000       0x22 build/FreeRTOS/production/_ext/1664057780/tfm.o
 .text.fp_lshd  0x0000000000000000       0x90 build/FreeRTOS/production/_ext/1664057780/tfm.o
 .text.fp_reverse
                0x0000000000000000       0x32 build/FreeRTOS/production/_ext/1664057780/tfm.o
 .text.fp_zero  0x0000000000000000       0x14 build/FreeRTOS/production/_ext/1664057780/tfm.o
 .text.fp_2expt
                0x0000000000000000       0x3c build/FreeRTOS/production/_ext/1664057780/tfm.o
 .text.fp_read_unsigned_bin
                0x0000000000000000       0x74 build/FreeRTOS/production/_ext/1664057780/tfm.o
 .text.fp_set   0x0000000000000000       0x16 build/FreeRTOS/production/_ext/1664057780/tfm.o
 .text.fp_montgomery_calc_normalization
                0x0000000000000000       0x72 build/FreeRTOS/production/_ext/1664057780/tfm.o
 .text.fp_rshd  0x0000000000000000       0x70 build/FreeRTOS/production/_ext/1664057780/tfm.o
 .text.fp_rshb  0x0000000000000000       0xa0 build/FreeRTOS/production/_ext/1664057780/tfm.o
 .text.fp_init  0x0000000000000000        0x8 build/FreeRTOS/production/_ext/1664057780/tfm.o
 .text.mp_init  0x0000000000000000        0xc build/FreeRTOS/production/_ext/1664057780/tfm.o
 .text.fp_sub_d
                0x0000000000000000       0x2a build/FreeRTOS/production/_ext/1664057780/tfm.o
 .text.fp_clear
                0x0000000000000000       0x14 build/FreeRTOS/production/_ext/1664057780/tfm.o
 .text.fp_forcezero
                0x0000000000000000       0x1e build/FreeRTOS/production/_ext/1664057780/tfm.o
 .text.mp_forcezero
                0x0000000000000000        0x8 build/FreeRTOS/production/_ext/1664057780/tfm.o
 .text.fp_free  0x0000000000000000        0x2 build/FreeRTOS/production/_ext/1664057780/tfm.o
 .text.mp_clear
                0x0000000000000000        0xa build/FreeRTOS/production/_ext/1664057780/tfm.o
 .text.mp_free  0x0000000000000000        0x2 build/FreeRTOS/production/_ext/1664057780/tfm.o
 .text.mp_init_multi
                0x0000000000000000       0x3e build/FreeRTOS/production/_ext/1664057780/tfm.o
 .text.mp_add   0x0000000000000000        0x8 build/FreeRTOS/production/_ext/1664057780/tfm.o
 .text.mp_sub   0x0000000000000000        0x8 build/FreeRTOS/production/_ext/1664057780/tfm.o
 .text.mp_mul_d
                0x0000000000000000        0x8 build/FreeRTOS/production/_ext/1664057780/tfm.o
 .text.mp_submod_ct
                0x0000000000000000        0x8 build/FreeRTOS/production/_ext/1664057780/tfm.o
 .text.mp_addmod_ct
                0x0000000000000000        0x8 build/FreeRTOS/production/_ext/1664057780/tfm.o
 .text.mp_cmp   0x0000000000000000        0x8 build/FreeRTOS/production/_ext/1664057780/tfm.o
 .text.mp_cmp_d
                0x0000000000000000        0x8 build/FreeRTOS/production/_ext/1664057780/tfm.o
 .text.mp_unsigned_bin_size
                0x0000000000000000        0x8 build/FreeRTOS/production/_ext/1664057780/tfm.o
 .text.mp_to_unsigned_bin_at_pos
                0x0000000000000000        0x8 build/FreeRTOS/production/_ext/1664057780/tfm.o
 .text.mp_to_unsigned_bin_len
                0x0000000000000000        0x8 build/FreeRTOS/production/_ext/1664057780/tfm.o
 .text.mp_read_unsigned_bin
                0x0000000000000000        0x8 build/FreeRTOS/production/_ext/1664057780/tfm.o
 .text.mp_sub_d
                0x0000000000000000        0x8 build/FreeRTOS/production/_ext/1664057780/tfm.o
 .text.mp_2expt
                0x0000000000000000        0xa build/FreeRTOS/production/_ext/1664057780/tfm.o
 .text.fp_copy  0x0000000000000000       0x24 build/FreeRTOS/production/_ext/1664057780/tfm.o
 .text.fp_mul_2d
                0x0000000000000000       0xbc build/FreeRTOS/production/_ext/1664057780/tfm.o
 .text.fp_set_int
                0x0000000000000000       0x74 build/FreeRTOS/production/_ext/1664057780/tfm.o
 .text.mp_mul_2d
                0x0000000000000000        0x8 build/FreeRTOS/production/_ext/1664057780/tfm.o
 .text.fp_mul_comba
                0x0000000000000000      0x14c build/FreeRTOS/production/_ext/1664057780/tfm.o
 .text.fp_mul   0x0000000000000000       0x48 build/FreeRTOS/production/_ext/1664057780/tfm.o
 .text.mp_mul   0x0000000000000000        0x8 build/FreeRTOS/production/_ext/1664057780/tfm.o
 .text.fp_mod_2d
                0x0000000000000000      0x118 build/FreeRTOS/production/_ext/1664057780/tfm.o
 .text.fp_div_2d
                0x0000000000000000       0xaa build/FreeRTOS/production/_ext/1664057780/tfm.o
 .text.mp_div_2d
                0x0000000000000000        0xa build/FreeRTOS/production/_ext/1664057780/tfm.o
 .text.fp_sqr_comba
                0x0000000000000000      0x194 build/FreeRTOS/production/_ext/1664057780/tfm.o
 .text.fp_sqr   0x0000000000000000       0x38 build/FreeRTOS/production/_ext/1664057780/tfm.o
 .text.fp_invmod_mont_ct
                0x0000000000000000      0x1c4 build/FreeRTOS/production/_ext/1664057780/tfm.o
 .text.mp_invmod_mont_ct
                0x0000000000000000        0x8 build/FreeRTOS/production/_ext/1664057780/tfm.o
 .text.fp_div_d
                0x0000000000000000      0x14c build/FreeRTOS/production/_ext/1664057780/tfm.o
 .text.fp_init_copy
                0x0000000000000000       0x1a build/FreeRTOS/production/_ext/1664057780/tfm.o
 .text.fp_div   0x0000000000000000      0x3bc build/FreeRTOS/production/_ext/1664057780/tfm.o
 .text.fp_mod   0x0000000000000000       0x4c build/FreeRTOS/production/_ext/1664057780/tfm.o
 .text.fp_mulmod
                0x0000000000000000       0x38 build/FreeRTOS/production/_ext/1664057780/tfm.o
 .text.mp_mulmod
                0x0000000000000000        0x8 build/FreeRTOS/production/_ext/1664057780/tfm.o
 .text.fp_submod
                0x0000000000000000       0x38 build/FreeRTOS/production/_ext/1664057780/tfm.o
 .text.mp_submod
                0x0000000000000000        0x8 build/FreeRTOS/production/_ext/1664057780/tfm.o
 .text.fp_addmod
                0x0000000000000000       0x38 build/FreeRTOS/production/_ext/1664057780/tfm.o
 .text.mp_addmod
                0x0000000000000000        0x8 build/FreeRTOS/production/_ext/1664057780/tfm.o
 .text._fp_exptmod_ct
                0x0000000000000000      0x154 build/FreeRTOS/production/_ext/1664057780/tfm.o
 .text._fp_exptmod_nct
                0x0000000000000000      0x384 build/FreeRTOS/production/_ext/1664057780/tfm.o
 .text.mp_mod   0x0000000000000000        0x8 build/FreeRTOS/production/_ext/1664057780/tfm.o
 .text.fp_invmod
                0x0000000000000000      0x560 build/FreeRTOS/production/_ext/1664057780/tfm.o
 .text.mp_invmod
                0x0000000000000000        0x8 build/FreeRTOS/production/_ext/1664057780/tfm.o
 .text.mp_div   0x0000000000000000        0x8 build/FreeRTOS/production/_ext/1664057780/tfm.o
 .text.fp_exptmod
                0x0000000000000000      0x250 build/FreeRTOS/production/_ext/1664057780/tfm.o
 .text.mp_exptmod
                0x0000000000000000        0x8 build/FreeRTOS/production/_ext/1664057780/tfm.o
 .text.fp_exptmod_ex
                0x0000000000000000       0xe0 build/FreeRTOS/production/_ext/1664057780/tfm.o
 .text.mp_exptmod_ex
                0x0000000000000000       0x10 build/FreeRTOS/production/_ext/1664057780/tfm.o
 .text.fp_exptmod_nct
                0x0000000000000000       0x90 build/FreeRTOS/production/_ext/1664057780/tfm.o
 .text.mp_exptmod_nct
                0x0000000000000000        0x8 build/FreeRTOS/production/_ext/1664057780/tfm.o
 .text.fp_to_unsigned_bin
                0x0000000000000000       0x2a build/FreeRTOS/production/_ext/1664057780/tfm.o
 .text.mp_to_unsigned_bin
                0x0000000000000000        0x8 build/FreeRTOS/production/_ext/1664057780/tfm.o
 .text.mp_init_copy
                0x0000000000000000        0xa build/FreeRTOS/production/_ext/1664057780/tfm.o
 .text.mp_copy  0x0000000000000000        0xa build/FreeRTOS/production/_ext/1664057780/tfm.o
 .text.mp_isodd
                0x0000000000000000       0x10 build/FreeRTOS/production/_ext/1664057780/tfm.o
 .text.mp_iszero
                0x0000000000000000        0xa build/FreeRTOS/production/_ext/1664057780/tfm.o
 .text.mp_count_bits
                0x0000000000000000        0x8 build/FreeRTOS/production/_ext/1664057780/tfm.o
 .text.mp_leading_bit
                0x0000000000000000        0x8 build/FreeRTOS/production/_ext/1664057780/tfm.o
 .text.mp_rshb  0x0000000000000000        0x8 build/FreeRTOS/production/_ext/1664057780/tfm.o
 .text.mp_rshd  0x0000000000000000        0x8 build/FreeRTOS/production/_ext/1664057780/tfm.o
 .text.mp_set_int
                0x0000000000000000        0x8 build/FreeRTOS/production/_ext/1664057780/tfm.o
 .text.mp_is_bit_set
                0x0000000000000000        0x8 build/FreeRTOS/production/_ext/1664057780/tfm.o
 .text.mp_set_bit
                0x0000000000000000        0x8 build/FreeRTOS/production/_ext/1664057780/tfm.o
 .text.fp_sqrmod
                0x0000000000000000       0x34 build/FreeRTOS/production/_ext/1664057780/tfm.o
 .text.mp_sqrmod
                0x0000000000000000        0x8 build/FreeRTOS/production/_ext/1664057780/tfm.o
 .text.mp_montgomery_calc_normalization
                0x0000000000000000        0x8 build/FreeRTOS/production/_ext/1664057780/tfm.o
 .text.fp_cnt_lsb
                0x0000000000000000       0x5c build/FreeRTOS/production/_ext/1664057780/tfm.o
 .text.fp_prime_miller_rabin_ex
                0x0000000000000000       0xd2 build/FreeRTOS/production/_ext/1664057780/tfm.o
 .text.fp_isprime_ex
                0x0000000000000000      0x124 build/FreeRTOS/production/_ext/1664057780/tfm.o
 .text.mp_mod_d
                0x0000000000000000        0xc build/FreeRTOS/production/_ext/1664057780/tfm.o
 .text.mp_prime_is_prime
                0x0000000000000000        0x8 build/FreeRTOS/production/_ext/1664057780/tfm.o
 .text.mp_prime_is_prime_ex
                0x0000000000000000      0x1e0 build/FreeRTOS/production/_ext/1664057780/tfm.o
 .text.mp_cond_swap_ct
                0x0000000000000000        0x8 build/FreeRTOS/production/_ext/1664057780/tfm.o
 .text.fp_add_d
                0x0000000000000000       0x2a build/FreeRTOS/production/_ext/1664057780/tfm.o
 .text.mp_add_d
                0x0000000000000000        0x8 build/FreeRTOS/production/_ext/1664057780/tfm.o
 .text.mp_read_radix
                0x0000000000000000      0x17c build/FreeRTOS/production/_ext/1664057780/tfm.o
 .text.mp_sqr   0x0000000000000000        0x8 build/FreeRTOS/production/_ext/1664057780/tfm.o
 .text.mp_montgomery_reduce
                0x0000000000000000        0x8 build/FreeRTOS/production/_ext/1664057780/tfm.o
 .text.mp_montgomery_reduce_ex
                0x0000000000000000        0x8 build/FreeRTOS/production/_ext/1664057780/tfm.o
 .text.mp_montgomery_setup
                0x0000000000000000        0x8 build/FreeRTOS/production/_ext/1664057780/tfm.o
 .text.mp_div_2
                0x0000000000000000        0xa build/FreeRTOS/production/_ext/1664057780/tfm.o
 .text.mp_div_2_mod_ct
                0x0000000000000000        0x8 build/FreeRTOS/production/_ext/1664057780/tfm.o
 .text.mp_set   0x0000000000000000        0xa build/FreeRTOS/production/_ext/1664057780/tfm.o
 .text.mp_radix_size
                0x0000000000000000       0xc8 build/FreeRTOS/production/_ext/1664057780/tfm.o
 .text.mp_toradix
                0x0000000000000000       0xcc build/FreeRTOS/production/_ext/1664057780/tfm.o
 .text.mp_abs   0x0000000000000000        0xe build/FreeRTOS/production/_ext/1664057780/tfm.o
 .text.mp_lshd  0x0000000000000000        0x8 build/FreeRTOS/production/_ext/1664057780/tfm.o
 .rodata.lnz    0x0000000000000000       0x40 build/FreeRTOS/production/_ext/1664057780/tfm.o
 .rodata.mp_read_radix.str1.4
                0x0000000000000000       0x44 build/FreeRTOS/production/_ext/1664057780/tfm.o
 .rodata.primes
                0x0000000000000000      0x400 build/FreeRTOS/production/_ext/1664057780/tfm.o
 .debug_info    0x0000000000000000     0x817c build/FreeRTOS/production/_ext/1664057780/tfm.o
 .debug_abbrev  0x0000000000000000      0x533 build/FreeRTOS/production/_ext/1664057780/tfm.o
 .debug_loc     0x0000000000000000     0xb28b build/FreeRTOS/production/_ext/1664057780/tfm.o
 .debug_aranges
                0x0000000000000000      0x430 build/FreeRTOS/production/_ext/1664057780/tfm.o
 .debug_ranges  0x0000000000000000      0x5c8 build/FreeRTOS/production/_ext/1664057780/tfm.o
 .debug_line    0x0000000000000000     0x424c build/FreeRTOS/production/_ext/1664057780/tfm.o
 .debug_str     0x0000000000000000      0xdd7 build/FreeRTOS/production/_ext/1664057780/tfm.o
 .comment       0x0000000000000000       0x2c build/FreeRTOS/production/_ext/1664057780/tfm.o
 .debug_frame   0x0000000000000000      0xf94 build/FreeRTOS/production/_ext/1664057780/tfm.o
 .ARM.attributes
                0x0000000000000000       0x34 build/FreeRTOS/production/_ext/1664057780/tfm.o
 .text          0x0000000000000000        0x0 build/FreeRTOS/production/_ext/1664057780/random.o
 .data          0x0000000000000000        0x0 build/FreeRTOS/production/_ext/1664057780/random.o
 .bss           0x0000000000000000        0x0 build/FreeRTOS/production/_ext/1664057780/random.o
 .text.wc_RNG_DRBG_Reseed
                0x0000000000000000       0x1a build/FreeRTOS/production/_ext/1664057780/random.o
 .text.wc_FreeRng
                0x0000000000000000       0x34 build/FreeRTOS/production/_ext/1664057780/random.o
 .text.wc_rng_free
                0x0000000000000000       0x28 build/FreeRTOS/production/_ext/1664057780/random.o
 .text.wc_rng_new
                0x0000000000000000       0x36 build/FreeRTOS/production/_ext/1664057780/random.o
 .text.wc_InitRng_ex
                0x0000000000000000       0x16 build/FreeRTOS/production/_ext/1664057780/random.o
 .text.wc_InitRngNonce
                0x0000000000000000       0x16 build/FreeRTOS/production/_ext/1664057780/random.o
 .text.wc_InitRngNonce_ex
                0x0000000000000000       0x10 build/FreeRTOS/production/_ext/1664057780/random.o
 .text.wc_RNG_GenerateByte
                0x0000000000000000        0xa build/FreeRTOS/production/_ext/1664057780/random.o
 .text          0x0000000000000000        0x0 build/FreeRTOS/production/_ext/1664057780/hash.o
 .data          0x0000000000000000        0x0 build/FreeRTOS/production/_ext/1664057780/hash.o
 .bss           0x0000000000000000        0x0 build/FreeRTOS/production/_ext/1664057780/hash.o
 .text.wc_HashTypeConvert
                0x0000000000000000        0xc build/FreeRTOS/production/_ext/1664057780/hash.o
 .text.wc_HashGetOID
                0x0000000000000000       0x40 build/FreeRTOS/production/_ext/1664057780/hash.o
 .text.wc_OidGetHash
                0x0000000000000000       0x30 build/FreeRTOS/production/_ext/1664057780/hash.o
 .text.wc_HashGetDigestSize
                0x0000000000000000       0x3c build/FreeRTOS/production/_ext/1664057780/hash.o
 .text.wc_HashGetBlockSize
                0x0000000000000000       0x30 build/FreeRTOS/production/_ext/1664057780/hash.o
 .text.wc_HashInit_ex
                0x0000000000000000       0x5a build/FreeRTOS/production/_ext/1664057780/hash.o
 .text.wc_HashInit
                0x0000000000000000        0xe build/FreeRTOS/production/_ext/1664057780/hash.o
 .text.wc_HashUpdate
                0x0000000000000000       0x6a build/FreeRTOS/production/_ext/1664057780/hash.o
 .text.wc_HashFinal
                0x0000000000000000       0x58 build/FreeRTOS/production/_ext/1664057780/hash.o
 .text.wc_HashFree
                0x0000000000000000       0x50 build/FreeRTOS/production/_ext/1664057780/hash.o
 .text.wc_HashSetFlags
                0x0000000000000000       0x50 build/FreeRTOS/production/_ext/1664057780/hash.o
 .text.wc_HashGetFlags
                0x0000000000000000       0x50 build/FreeRTOS/production/_ext/1664057780/hash.o
 .text.wc_Md5Hash
                0x0000000000000000       0x3c build/FreeRTOS/production/_ext/1664057780/hash.o
 .text.wc_ShaHash
                0x0000000000000000       0x56 build/FreeRTOS/production/_ext/1664057780/hash.o
 .text.wc_Sha224Hash
                0x0000000000000000       0x3c build/FreeRTOS/production/_ext/1664057780/hash.o
 .text.wc_Sha256Hash
                0x0000000000000000       0x56 build/FreeRTOS/production/_ext/1664057780/hash.o
 .text.wc_Hash  0x0000000000000000       0x98 build/FreeRTOS/production/_ext/1664057780/hash.o
 .debug_info    0x0000000000000000     0x176b build/FreeRTOS/production/_ext/1664057780/hash.o
 .debug_abbrev  0x0000000000000000      0x29c build/FreeRTOS/production/_ext/1664057780/hash.o
 .debug_loc     0x0000000000000000     0x1af2 build/FreeRTOS/production/_ext/1664057780/hash.o
 .debug_aranges
                0x0000000000000000       0xa0 build/FreeRTOS/production/_ext/1664057780/hash.o
 .debug_ranges  0x0000000000000000       0x90 build/FreeRTOS/production/_ext/1664057780/hash.o
 .debug_line    0x0000000000000000      0x6f6 build/FreeRTOS/production/_ext/1664057780/hash.o
 .debug_str     0x0000000000000000     0x13a3 build/FreeRTOS/production/_ext/1664057780/hash.o
 .comment       0x0000000000000000       0x2c build/FreeRTOS/production/_ext/1664057780/hash.o
 .debug_frame   0x0000000000000000      0x1e4 build/FreeRTOS/production/_ext/1664057780/hash.o
 .ARM.attributes
                0x0000000000000000       0x34 build/FreeRTOS/production/_ext/1664057780/hash.o
 .text          0x0000000000000000        0x0 build/FreeRTOS/production/_ext/1664057780/sha512.o
 .data          0x0000000000000000        0x0 build/FreeRTOS/production/_ext/1664057780/sha512.o
 .bss           0x0000000000000000        0x0 build/FreeRTOS/production/_ext/1664057780/sha512.o
 .debug_info    0x0000000000000000       0x79 build/FreeRTOS/production/_ext/1664057780/sha512.o
 .debug_abbrev  0x0000000000000000       0x26 build/FreeRTOS/production/_ext/1664057780/sha512.o
 .debug_aranges
                0x0000000000000000       0x18 build/FreeRTOS/production/_ext/1664057780/sha512.o
 .debug_line    0x0000000000000000       0x1d build/FreeRTOS/production/_ext/1664057780/sha512.o
 .debug_str     0x0000000000000000      0x2d5 build/FreeRTOS/production/_ext/1664057780/sha512.o
 .comment       0x0000000000000000       0x2c build/FreeRTOS/production/_ext/1664057780/sha512.o
 .ARM.attributes
                0x0000000000000000       0x39 build/FreeRTOS/production/_ext/1664057780/sha512.o
 .text          0x0000000000000000        0x0 build/FreeRTOS/production/_ext/1664057780/cryptocb.o
 .data          0x0000000000000000        0x0 build/FreeRTOS/production/_ext/1664057780/cryptocb.o
 .bss           0x0000000000000000        0x0 build/FreeRTOS/production/_ext/1664057780/cryptocb.o
 .text.wc_CryptoCb_Init
                0x0000000000000000       0x1c build/FreeRTOS/production/_ext/1664057780/cryptocb.o
 .text.wc_CryptoCb_GetDevIdAtIndex
                0x0000000000000000       0x12 build/FreeRTOS/production/_ext/1664057780/cryptocb.o
 .text.wc_CryptoCb_UnRegisterDevice
                0x0000000000000000       0x16 build/FreeRTOS/production/_ext/1664057780/cryptocb.o
 .text.wc_CryptoCb_Rsa
                0x0000000000000000       0x7a build/FreeRTOS/production/_ext/1664057780/cryptocb.o
 .text.wc_CryptoCb_RsaCheckPrivKey
                0x0000000000000000       0x60 build/FreeRTOS/production/_ext/1664057780/cryptocb.o
 .text.wc_CryptoCb_MakeEccKey
                0x0000000000000000       0x6e build/FreeRTOS/production/_ext/1664057780/cryptocb.o
 .text.wc_CryptoCb_Ecdh
                0x0000000000000000       0x6c build/FreeRTOS/production/_ext/1664057780/cryptocb.o
 .text.wc_CryptoCb_EccSign
                0x0000000000000000       0x74 build/FreeRTOS/production/_ext/1664057780/cryptocb.o
 .text.wc_CryptoCb_EccVerify
                0x0000000000000000       0x74 build/FreeRTOS/production/_ext/1664057780/cryptocb.o
 .text.wc_CryptoCb_EccCheckPrivKey
                0x0000000000000000       0x5e build/FreeRTOS/production/_ext/1664057780/cryptocb.o
 .text.wc_CryptoCb_AesGcmEncrypt
                0x0000000000000000       0x7a build/FreeRTOS/production/_ext/1664057780/cryptocb.o
 .text.wc_CryptoCb_AesGcmDecrypt
                0x0000000000000000       0x7a build/FreeRTOS/production/_ext/1664057780/cryptocb.o
 .text.wc_CryptoCb_AesCcmEncrypt
                0x0000000000000000       0x7a build/FreeRTOS/production/_ext/1664057780/cryptocb.o
 .text.wc_CryptoCb_AesCcmDecrypt
                0x0000000000000000       0x7a build/FreeRTOS/production/_ext/1664057780/cryptocb.o
 .text.wc_CryptoCb_AesCbcEncrypt
                0x0000000000000000       0x68 build/FreeRTOS/production/_ext/1664057780/cryptocb.o
 .text.wc_CryptoCb_AesCbcDecrypt
                0x0000000000000000       0x6a build/FreeRTOS/production/_ext/1664057780/cryptocb.o
 .text.wc_CryptoCb_AesCtrEncrypt
                0x0000000000000000       0x6a build/FreeRTOS/production/_ext/1664057780/cryptocb.o
 .text.wc_CryptoCb_AesEcbEncrypt
                0x0000000000000000       0x6a build/FreeRTOS/production/_ext/1664057780/cryptocb.o
 .text.wc_CryptoCb_AesEcbDecrypt
                0x0000000000000000       0x6c build/FreeRTOS/production/_ext/1664057780/cryptocb.o
 .text.wc_CryptoCb_Des3Encrypt
                0x0000000000000000       0x6a build/FreeRTOS/production/_ext/1664057780/cryptocb.o
 .text.wc_CryptoCb_Des3Decrypt
                0x0000000000000000       0x6c build/FreeRTOS/production/_ext/1664057780/cryptocb.o
 .text.wc_CryptoCb_ShaHash
                0x0000000000000000       0x66 build/FreeRTOS/production/_ext/1664057780/cryptocb.o
 .text.wc_CryptoCb_Hmac
                0x0000000000000000       0x70 build/FreeRTOS/production/_ext/1664057780/cryptocb.o
 .text.wc_CryptoCb_RandomSeed
                0x0000000000000000       0x50 build/FreeRTOS/production/_ext/1664057780/cryptocb.o
 .text          0x0000000000000000        0x0 build/FreeRTOS/production/_ext/1664057780/sp_x86_64.o
 .data          0x0000000000000000        0x0 build/FreeRTOS/production/_ext/1664057780/sp_x86_64.o
 .bss           0x0000000000000000        0x0 build/FreeRTOS/production/_ext/1664057780/sp_x86_64.o
 .debug_info    0x0000000000000000       0x79 build/FreeRTOS/production/_ext/1664057780/sp_x86_64.o
 .debug_abbrev  0x0000000000000000       0x26 build/FreeRTOS/production/_ext/1664057780/sp_x86_64.o
 .debug_aranges
                0x0000000000000000       0x18 build/FreeRTOS/production/_ext/1664057780/sp_x86_64.o
 .debug_line    0x0000000000000000       0x1d build/FreeRTOS/production/_ext/1664057780/sp_x86_64.o
 .debug_str     0x0000000000000000      0x2d8 build/FreeRTOS/production/_ext/1664057780/sp_x86_64.o
 .comment       0x0000000000000000       0x2c build/FreeRTOS/production/_ext/1664057780/sp_x86_64.o
 .ARM.attributes
                0x0000000000000000       0x39 build/FreeRTOS/production/_ext/1664057780/sp_x86_64.o
 .text          0x0000000000000000        0x0 build/FreeRTOS/production/_ext/1664057780/integer.o
 .data          0x0000000000000000        0x0 build/FreeRTOS/production/_ext/1664057780/integer.o
 .bss           0x0000000000000000        0x0 build/FreeRTOS/production/_ext/1664057780/integer.o
 .debug_info    0x0000000000000000       0x79 build/FreeRTOS/production/_ext/1664057780/integer.o
 .debug_abbrev  0x0000000000000000       0x26 build/FreeRTOS/production/_ext/1664057780/integer.o
 .debug_aranges
                0x0000000000000000       0x18 build/FreeRTOS/production/_ext/1664057780/integer.o
 .debug_line    0x0000000000000000       0x1d build/FreeRTOS/production/_ext/1664057780/integer.o
 .debug_str     0x0000000000000000      0x2d6 build/FreeRTOS/production/_ext/1664057780/integer.o
 .comment       0x0000000000000000       0x2c build/FreeRTOS/production/_ext/1664057780/integer.o
 .ARM.attributes
                0x0000000000000000       0x39 build/FreeRTOS/production/_ext/1664057780/integer.o
 .text          0x0000000000000000        0x0 build/FreeRTOS/production/_ext/1664057780/eccsi.o
 .data          0x0000000000000000        0x0 build/FreeRTOS/production/_ext/1664057780/eccsi.o
 .bss           0x0000000000000000        0x0 build/FreeRTOS/production/_ext/1664057780/eccsi.o
 .debug_info    0x0000000000000000       0x79 build/FreeRTOS/production/_ext/1664057780/eccsi.o
 .debug_abbrev  0x0000000000000000       0x26 build/FreeRTOS/production/_ext/1664057780/eccsi.o
 .debug_aranges
                0x0000000000000000       0x18 build/FreeRTOS/production/_ext/1664057780/eccsi.o
 .debug_line    0x0000000000000000       0x1d build/FreeRTOS/production/_ext/1664057780/eccsi.o
 .debug_str     0x0000000000000000      0x2d4 build/FreeRTOS/production/_ext/1664057780/eccsi.o
 .comment       0x0000000000000000       0x2c build/FreeRTOS/production/_ext/1664057780/eccsi.o
 .ARM.attributes
                0x0000000000000000       0x39 build/FreeRTOS/production/_ext/1664057780/eccsi.o
 .text          0x0000000000000000        0x0 build/FreeRTOS/production/_ext/1664057780/sakke.o
 .data          0x0000000000000000        0x0 build/FreeRTOS/production/_ext/1664057780/sakke.o
 .bss           0x0000000000000000        0x0 build/FreeRTOS/production/_ext/1664057780/sakke.o
 .debug_info    0x0000000000000000       0x79 build/FreeRTOS/production/_ext/1664057780/sakke.o
 .debug_abbrev  0x0000000000000000       0x26 build/FreeRTOS/production/_ext/1664057780/sakke.o
 .debug_aranges
                0x0000000000000000       0x18 build/FreeRTOS/production/_ext/1664057780/sakke.o
 .debug_line    0x0000000000000000       0x1d build/FreeRTOS/production/_ext/1664057780/sakke.o
 .debug_str     0x0000000000000000      0x2d4 build/FreeRTOS/production/_ext/1664057780/sakke.o
 .comment       0x0000000000000000       0x2c build/FreeRTOS/production/_ext/1664057780/sakke.o
 .ARM.attributes
                0x0000000000000000       0x39 build/FreeRTOS/production/_ext/1664057780/sakke.o
 .text          0x0000000000000000        0x0 build/FreeRTOS/production/_ext/1664057780/falcon.o
 .data          0x0000000000000000        0x0 build/FreeRTOS/production/_ext/1664057780/falcon.o
 .bss           0x0000000000000000        0x0 build/FreeRTOS/production/_ext/1664057780/falcon.o
 .debug_info    0x0000000000000000       0x79 build/FreeRTOS/production/_ext/1664057780/falcon.o
 .debug_abbrev  0x0000000000000000       0x26 build/FreeRTOS/production/_ext/1664057780/falcon.o
 .debug_aranges
                0x0000000000000000       0x18 build/FreeRTOS/production/_ext/1664057780/falcon.o
 .debug_line    0x0000000000000000       0x1d build/FreeRTOS/production/_ext/1664057780/falcon.o
 .debug_str     0x0000000000000000      0x2d5 build/FreeRTOS/production/_ext/1664057780/falcon.o
 .comment       0x0000000000000000       0x2c build/FreeRTOS/production/_ext/1664057780/falcon.o
 .ARM.attributes
                0x0000000000000000       0x39 build/FreeRTOS/production/_ext/1664057780/falcon.o
 .text          0x0000000000000000        0x0 build/FreeRTOS/production/_ext/1664057780/kdf.o
 .data          0x0000000000000000        0x0 build/FreeRTOS/production/_ext/1664057780/kdf.o
 .bss           0x0000000000000000        0x0 build/FreeRTOS/production/_ext/1664057780/kdf.o
 .debug_info    0x0000000000000000       0x79 build/FreeRTOS/production/_ext/1664057780/kdf.o
 .debug_abbrev  0x0000000000000000       0x26 build/FreeRTOS/production/_ext/1664057780/kdf.o
 .debug_aranges
                0x0000000000000000       0x18 build/FreeRTOS/production/_ext/1664057780/kdf.o
 .debug_line    0x0000000000000000       0x1d build/FreeRTOS/production/_ext/1664057780/kdf.o
 .debug_str     0x0000000000000000      0x2d2 build/FreeRTOS/production/_ext/1664057780/kdf.o
 .comment       0x0000000000000000       0x2c build/FreeRTOS/production/_ext/1664057780/kdf.o
 .ARM.attributes
                0x0000000000000000       0x39 build/FreeRTOS/production/_ext/1664057780/kdf.o
 .text          0x0000000000000000        0x0 build/FreeRTOS/production/_ext/1664057780/siphash.o
 .data          0x0000000000000000        0x0 build/FreeRTOS/production/_ext/1664057780/siphash.o
 .bss           0x0000000000000000        0x0 build/FreeRTOS/production/_ext/1664057780/siphash.o
 .debug_info    0x0000000000000000       0x79 build/FreeRTOS/production/_ext/1664057780/siphash.o
 .debug_abbrev  0x0000000000000000       0x26 build/FreeRTOS/production/_ext/1664057780/siphash.o
 .debug_aranges
                0x0000000000000000       0x18 build/FreeRTOS/production/_ext/1664057780/siphash.o
 .debug_line    0x0000000000000000       0x1d build/FreeRTOS/production/_ext/1664057780/siphash.o
 .debug_str     0x0000000000000000      0x2d6 build/FreeRTOS/production/_ext/1664057780/siphash.o
 .comment       0x0000000000000000       0x2c build/FreeRTOS/production/_ext/1664057780/siphash.o
 .ARM.attributes
                0x0000000000000000       0x39 build/FreeRTOS/production/_ext/1664057780/siphash.o
 .text          0x0000000000000000        0x0 build/FreeRTOS/production/_ext/1360937237/app.o
 .data          0x0000000000000000        0x0 build/FreeRTOS/production/_ext/1360937237/app.o
 .bss           0x0000000000000000        0x0 build/FreeRTOS/production/_ext/1360937237/app.o
 .text          0x0000000000000000        0x0 build/FreeRTOS/production/_ext/1360937237/main.o
 .data          0x0000000000000000        0x0 build/FreeRTOS/production/_ext/1360937237/main.o
 .bss           0x0000000000000000        0x0 build/FreeRTOS/production/_ext/1360937237/main.o
 .text          0x0000000000000000        0x0 c:/program files/microchip/xc32/v4.45/bin/bin/../../lib/gcc/pic32c/8.3.1/../../../../pic32c/lib/thumb/v7e-m+fp/hard\libpic32c.a(data_init.o)
 .data          0x0000000000000000        0x0 c:/program files/microchip/xc32/v4.45/bin/bin/../../lib/gcc/pic32c/8.3.1/../../../../pic32c/lib/thumb/v7e-m+fp/hard\libpic32c.a(data_init.o)
 .xc_stack_usage
                0x0000000000000000       0x4a c:/program files/microchip/xc32/v4.45/bin/bin/../../lib/gcc/pic32c/8.3.1/../../../../pic32c/lib/thumb/v7e-m+fp/hard\libpic32c.a(data_init.o)
 .xc_stack_usage.hdr
                0x0000000000000000        0xe c:/program files/microchip/xc32/v4.45/bin/bin/../../lib/gcc/pic32c/8.3.1/../../../../pic32c/lib/thumb/v7e-m+fp/hard\libpic32c.a(data_init.o)
 .text          0x0000000000000000        0x0 c:/program files/microchip/xc32/v4.45/bin/bin/../../lib/gcc/pic32c/8.3.1/../../../../pic32c/lib/thumb/v7e-m+fp/hard\libc-size-musl.a(memcmp.o)
 .data          0x0000000000000000        0x0 c:/program files/microchip/xc32/v4.45/bin/bin/../../lib/gcc/pic32c/8.3.1/../../../../pic32c/lib/thumb/v7e-m+fp/hard\libc-size-musl.a(memcmp.o)
 .bss           0x0000000000000000        0x0 c:/program files/microchip/xc32/v4.45/bin/bin/../../lib/gcc/pic32c/8.3.1/../../../../pic32c/lib/thumb/v7e-m+fp/hard\libc-size-musl.a(memcmp.o)
 .xc_stack_usage
                0x0000000000000000       0x14 c:/program files/microchip/xc32/v4.45/bin/bin/../../lib/gcc/pic32c/8.3.1/../../../../pic32c/lib/thumb/v7e-m+fp/hard\libc-size-musl.a(memcmp.o)
 .xc_stack_usage.hdr
                0x0000000000000000        0xe c:/program files/microchip/xc32/v4.45/bin/bin/../../lib/gcc/pic32c/8.3.1/../../../../pic32c/lib/thumb/v7e-m+fp/hard\libc-size-musl.a(memcmp.o)
 .text          0x0000000000000000        0x0 c:/program files/microchip/xc32/v4.45/bin/bin/../../lib/gcc/pic32c/8.3.1/../../../../pic32c/lib/thumb/v7e-m+fp/hard\libc-size-musl.a(memcpy.o)
 .data          0x0000000000000000        0x0 c:/program files/microchip/xc32/v4.45/bin/bin/../../lib/gcc/pic32c/8.3.1/../../../../pic32c/lib/thumb/v7e-m+fp/hard\libc-size-musl.a(memcpy.o)
 .bss           0x0000000000000000        0x0 c:/program files/microchip/xc32/v4.45/bin/bin/../../lib/gcc/pic32c/8.3.1/../../../../pic32c/lib/thumb/v7e-m+fp/hard\libc-size-musl.a(memcpy.o)
 .xc_stack_usage
                0x0000000000000000       0x14 c:/program files/microchip/xc32/v4.45/bin/bin/../../lib/gcc/pic32c/8.3.1/../../../../pic32c/lib/thumb/v7e-m+fp/hard\libc-size-musl.a(memcpy.o)
 .xc_stack_usage.hdr
                0x0000000000000000        0xe c:/program files/microchip/xc32/v4.45/bin/bin/../../lib/gcc/pic32c/8.3.1/../../../../pic32c/lib/thumb/v7e-m+fp/hard\libc-size-musl.a(memcpy.o)
 .text          0x0000000000000000        0x0 c:/program files/microchip/xc32/v4.45/bin/bin/../../lib/gcc/pic32c/8.3.1/../../../../pic32c/lib/thumb/v7e-m+fp/hard\libc-size-musl.a(memmove.o)
 .data          0x0000000000000000        0x0 c:/program files/microchip/xc32/v4.45/bin/bin/../../lib/gcc/pic32c/8.3.1/../../../../pic32c/lib/thumb/v7e-m+fp/hard\libc-size-musl.a(memmove.o)
 .bss           0x0000000000000000        0x0 c:/program files/microchip/xc32/v4.45/bin/bin/../../lib/gcc/pic32c/8.3.1/../../../../pic32c/lib/thumb/v7e-m+fp/hard\libc-size-musl.a(memmove.o)
 .xc_stack_usage
                0x0000000000000000       0x15 c:/program files/microchip/xc32/v4.45/bin/bin/../../lib/gcc/pic32c/8.3.1/../../../../pic32c/lib/thumb/v7e-m+fp/hard\libc-size-musl.a(memmove.o)
 .text.memmove  0x0000000000000000       0x44 c:/program files/microchip/xc32/v4.45/bin/bin/../../lib/gcc/pic32c/8.3.1/../../../../pic32c/lib/thumb/v7e-m+fp/hard\libc-size-musl.a(memmove.o)
 .xc_stack_usage.hdr
                0x0000000000000000        0xe c:/program files/microchip/xc32/v4.45/bin/bin/../../lib/gcc/pic32c/8.3.1/../../../../pic32c/lib/thumb/v7e-m+fp/hard\libc-size-musl.a(memmove.o)
 .debug_info    0x0000000000000000       0xea c:/program files/microchip/xc32/v4.45/bin/bin/../../lib/gcc/pic32c/8.3.1/../../../../pic32c/lib/thumb/v7e-m+fp/hard\libc-size-musl.a(memmove.o)
 .debug_abbrev  0x0000000000000000       0xae c:/program files/microchip/xc32/v4.45/bin/bin/../../lib/gcc/pic32c/8.3.1/../../../../pic32c/lib/thumb/v7e-m+fp/hard\libc-size-musl.a(memmove.o)
 .debug_loc     0x0000000000000000      0x169 c:/program files/microchip/xc32/v4.45/bin/bin/../../lib/gcc/pic32c/8.3.1/../../../../pic32c/lib/thumb/v7e-m+fp/hard\libc-size-musl.a(memmove.o)
 .debug_aranges
                0x0000000000000000       0x20 c:/program files/microchip/xc32/v4.45/bin/bin/../../lib/gcc/pic32c/8.3.1/../../../../pic32c/lib/thumb/v7e-m+fp/hard\libc-size-musl.a(memmove.o)
 .debug_ranges  0x0000000000000000       0x10 c:/program files/microchip/xc32/v4.45/bin/bin/../../lib/gcc/pic32c/8.3.1/../../../../pic32c/lib/thumb/v7e-m+fp/hard\libc-size-musl.a(memmove.o)
 .debug_line    0x0000000000000000      0x11e c:/program files/microchip/xc32/v4.45/bin/bin/../../lib/gcc/pic32c/8.3.1/../../../../pic32c/lib/thumb/v7e-m+fp/hard\libc-size-musl.a(memmove.o)
 .debug_str     0x0000000000000000      0x236 c:/program files/microchip/xc32/v4.45/bin/bin/../../lib/gcc/pic32c/8.3.1/../../../../pic32c/lib/thumb/v7e-m+fp/hard\libc-size-musl.a(memmove.o)
 .comment       0x0000000000000000       0x2c c:/program files/microchip/xc32/v4.45/bin/bin/../../lib/gcc/pic32c/8.3.1/../../../../pic32c/lib/thumb/v7e-m+fp/hard\libc-size-musl.a(memmove.o)
 .note.GNU-stack
                0x0000000000000000        0x0 c:/program files/microchip/xc32/v4.45/bin/bin/../../lib/gcc/pic32c/8.3.1/../../../../pic32c/lib/thumb/v7e-m+fp/hard\libc-size-musl.a(memmove.o)
 .debug_frame   0x0000000000000000       0x30 c:/program files/microchip/xc32/v4.45/bin/bin/../../lib/gcc/pic32c/8.3.1/../../../../pic32c/lib/thumb/v7e-m+fp/hard\libc-size-musl.a(memmove.o)
 .ARM.attributes
                0x0000000000000000       0x36 c:/program files/microchip/xc32/v4.45/bin/bin/../../lib/gcc/pic32c/8.3.1/../../../../pic32c/lib/thumb/v7e-m+fp/hard\libc-size-musl.a(memmove.o)
 .text          0x0000000000000000        0x0 c:/program files/microchip/xc32/v4.45/bin/bin/../../lib/gcc/pic32c/8.3.1/../../../../pic32c/lib/thumb/v7e-m+fp/hard\libc-size-musl.a(memset.o)
 .data          0x0000000000000000        0x0 c:/program files/microchip/xc32/v4.45/bin/bin/../../lib/gcc/pic32c/8.3.1/../../../../pic32c/lib/thumb/v7e-m+fp/hard\libc-size-musl.a(memset.o)
 .bss           0x0000000000000000        0x0 c:/program files/microchip/xc32/v4.45/bin/bin/../../lib/gcc/pic32c/8.3.1/../../../../pic32c/lib/thumb/v7e-m+fp/hard\libc-size-musl.a(memset.o)
 .xc_stack_usage
                0x0000000000000000       0x14 c:/program files/microchip/xc32/v4.45/bin/bin/../../lib/gcc/pic32c/8.3.1/../../../../pic32c/lib/thumb/v7e-m+fp/hard\libc-size-musl.a(memset.o)
 .xc_stack_usage.hdr
                0x0000000000000000        0xe c:/program files/microchip/xc32/v4.45/bin/bin/../../lib/gcc/pic32c/8.3.1/../../../../pic32c/lib/thumb/v7e-m+fp/hard\libc-size-musl.a(memset.o)
 .text          0x0000000000000000        0x0 c:/program files/microchip/xc32/v4.45/bin/bin/../../lib/gcc/pic32c/8.3.1/../../../../pic32c/lib/thumb/v7e-m+fp/hard\libc-size-musl.a(strlen.o)
 .data          0x0000000000000000        0x0 c:/program files/microchip/xc32/v4.45/bin/bin/../../lib/gcc/pic32c/8.3.1/../../../../pic32c/lib/thumb/v7e-m+fp/hard\libc-size-musl.a(strlen.o)
 .bss           0x0000000000000000        0x0 c:/program files/microchip/xc32/v4.45/bin/bin/../../lib/gcc/pic32c/8.3.1/../../../../pic32c/lib/thumb/v7e-m+fp/hard\libc-size-musl.a(strlen.o)
 .xc_stack_usage
                0x0000000000000000       0x14 c:/program files/microchip/xc32/v4.45/bin/bin/../../lib/gcc/pic32c/8.3.1/../../../../pic32c/lib/thumb/v7e-m+fp/hard\libc-size-musl.a(strlen.o)
 .xc_stack_usage.hdr
                0x0000000000000000        0xe c:/program files/microchip/xc32/v4.45/bin/bin/../../lib/gcc/pic32c/8.3.1/../../../../pic32c/lib/thumb/v7e-m+fp/hard\libc-size-musl.a(strlen.o)
 .text          0x0000000000000000        0x0 c:/program files/microchip/xc32/v4.45/bin/bin/../../lib/gcc/pic32c/8.3.1/../../../../pic32c/lib/thumb/v7e-m+fp/hard\libc-size-musl.a(strchr.o)
 .data          0x0000000000000000        0x0 c:/program files/microchip/xc32/v4.45/bin/bin/../../lib/gcc/pic32c/8.3.1/../../../../pic32c/lib/thumb/v7e-m+fp/hard\libc-size-musl.a(strchr.o)
 .bss           0x0000000000000000        0x0 c:/program files/microchip/xc32/v4.45/bin/bin/../../lib/gcc/pic32c/8.3.1/../../../../pic32c/lib/thumb/v7e-m+fp/hard\libc-size-musl.a(strchr.o)
 .xc_stack_usage
                0x0000000000000000       0x14 c:/program files/microchip/xc32/v4.45/bin/bin/../../lib/gcc/pic32c/8.3.1/../../../../pic32c/lib/thumb/v7e-m+fp/hard\libc-size-musl.a(strchr.o)
 .xc_stack_usage.hdr
                0x0000000000000000        0xe c:/program files/microchip/xc32/v4.45/bin/bin/../../lib/gcc/pic32c/8.3.1/../../../../pic32c/lib/thumb/v7e-m+fp/hard\libc-size-musl.a(strchr.o)
 .text          0x0000000000000000        0x0 c:/program files/microchip/xc32/v4.45/bin/bin/../../lib/gcc/pic32c/8.3.1/../../../../pic32c/lib/thumb/v7e-m+fp/hard\libc-size-musl.a(strchrnul.o)
 .data          0x0000000000000000        0x0 c:/program files/microchip/xc32/v4.45/bin/bin/../../lib/gcc/pic32c/8.3.1/../../../../pic32c/lib/thumb/v7e-m+fp/hard\libc-size-musl.a(strchrnul.o)
 .bss           0x0000000000000000        0x0 c:/program files/microchip/xc32/v4.45/bin/bin/../../lib/gcc/pic32c/8.3.1/../../../../pic32c/lib/thumb/v7e-m+fp/hard\libc-size-musl.a(strchrnul.o)
 .xc_stack_usage
                0x0000000000000000       0x19 c:/program files/microchip/xc32/v4.45/bin/bin/../../lib/gcc/pic32c/8.3.1/../../../../pic32c/lib/thumb/v7e-m+fp/hard\libc-size-musl.a(strchrnul.o)
 .xc_stack_usage.hdr
                0x0000000000000000        0xe c:/program files/microchip/xc32/v4.45/bin/bin/../../lib/gcc/pic32c/8.3.1/../../../../pic32c/lib/thumb/v7e-m+fp/hard\libc-size-musl.a(strchrnul.o)
 .text          0x0000000000000000        0x0 c:/program files/microchip/xc32/v4.45/bin/bin/../../lib/gcc/pic32c/8.3.1/../../../../pic32c/lib/thumb/v7e-m+fp/hard\libc-size-musl.a(strcmp.o)
 .data          0x0000000000000000        0x0 c:/program files/microchip/xc32/v4.45/bin/bin/../../lib/gcc/pic32c/8.3.1/../../../../pic32c/lib/thumb/v7e-m+fp/hard\libc-size-musl.a(strcmp.o)
 .bss           0x0000000000000000        0x0 c:/program files/microchip/xc32/v4.45/bin/bin/../../lib/gcc/pic32c/8.3.1/../../../../pic32c/lib/thumb/v7e-m+fp/hard\libc-size-musl.a(strcmp.o)
 .xc_stack_usage
                0x0000000000000000       0x14 c:/program files/microchip/xc32/v4.45/bin/bin/../../lib/gcc/pic32c/8.3.1/../../../../pic32c/lib/thumb/v7e-m+fp/hard\libc-size-musl.a(strcmp.o)
 .xc_stack_usage.hdr
                0x0000000000000000        0xe c:/program files/microchip/xc32/v4.45/bin/bin/../../lib/gcc/pic32c/8.3.1/../../../../pic32c/lib/thumb/v7e-m+fp/hard\libc-size-musl.a(strcmp.o)
 .text          0x0000000000000000        0x0 c:/program files/microchip/xc32/v4.45/bin/bin/../../lib/gcc/pic32c/8.3.1/../../../../pic32c/lib/thumb/v7e-m+fp/hard\libc-size-musl.a(strcpy.o)
 .data          0x0000000000000000        0x0 c:/program files/microchip/xc32/v4.45/bin/bin/../../lib/gcc/pic32c/8.3.1/../../../../pic32c/lib/thumb/v7e-m+fp/hard\libc-size-musl.a(strcpy.o)
 .bss           0x0000000000000000        0x0 c:/program files/microchip/xc32/v4.45/bin/bin/../../lib/gcc/pic32c/8.3.1/../../../../pic32c/lib/thumb/v7e-m+fp/hard\libc-size-musl.a(strcpy.o)
 .xc_stack_usage
                0x0000000000000000       0x14 c:/program files/microchip/xc32/v4.45/bin/bin/../../lib/gcc/pic32c/8.3.1/../../../../pic32c/lib/thumb/v7e-m+fp/hard\libc-size-musl.a(strcpy.o)
 .xc_stack_usage.hdr
                0x0000000000000000        0xe c:/program files/microchip/xc32/v4.45/bin/bin/../../lib/gcc/pic32c/8.3.1/../../../../pic32c/lib/thumb/v7e-m+fp/hard\libc-size-musl.a(strcpy.o)
 .text          0x0000000000000000        0x0 c:/program files/microchip/xc32/v4.45/bin/bin/../../lib/gcc/pic32c/8.3.1/../../../../pic32c/lib/thumb/v7e-m+fp/hard\libc-size-musl.a(strncmp.o)
 .data          0x0000000000000000        0x0 c:/program files/microchip/xc32/v4.45/bin/bin/../../lib/gcc/pic32c/8.3.1/../../../../pic32c/lib/thumb/v7e-m+fp/hard\libc-size-musl.a(strncmp.o)
 .bss           0x0000000000000000        0x0 c:/program files/microchip/xc32/v4.45/bin/bin/../../lib/gcc/pic32c/8.3.1/../../../../pic32c/lib/thumb/v7e-m+fp/hard\libc-size-musl.a(strncmp.o)
 .xc_stack_usage
                0x0000000000000000       0x15 c:/program files/microchip/xc32/v4.45/bin/bin/../../lib/gcc/pic32c/8.3.1/../../../../pic32c/lib/thumb/v7e-m+fp/hard\libc-size-musl.a(strncmp.o)
 .xc_stack_usage.hdr
                0x0000000000000000        0xe c:/program files/microchip/xc32/v4.45/bin/bin/../../lib/gcc/pic32c/8.3.1/../../../../pic32c/lib/thumb/v7e-m+fp/hard\libc-size-musl.a(strncmp.o)
 .text          0x0000000000000000        0x0 c:/program files/microchip/xc32/v4.45/bin/bin/../../lib/gcc/pic32c/8.3.1/../../../../pic32c/lib/thumb/v7e-m+fp/hard\libc-size-musl.a(strncpy.o)
 .data          0x0000000000000000        0x0 c:/program files/microchip/xc32/v4.45/bin/bin/../../lib/gcc/pic32c/8.3.1/../../../../pic32c/lib/thumb/v7e-m+fp/hard\libc-size-musl.a(strncpy.o)
 .bss           0x0000000000000000        0x0 c:/program files/microchip/xc32/v4.45/bin/bin/../../lib/gcc/pic32c/8.3.1/../../../../pic32c/lib/thumb/v7e-m+fp/hard\libc-size-musl.a(strncpy.o)
 .xc_stack_usage
                0x0000000000000000       0x15 c:/program files/microchip/xc32/v4.45/bin/bin/../../lib/gcc/pic32c/8.3.1/../../../../pic32c/lib/thumb/v7e-m+fp/hard\libc-size-musl.a(strncpy.o)
 .xc_stack_usage.hdr
                0x0000000000000000        0xe c:/program files/microchip/xc32/v4.45/bin/bin/../../lib/gcc/pic32c/8.3.1/../../../../pic32c/lib/thumb/v7e-m+fp/hard\libc-size-musl.a(strncpy.o)
 .text          0x0000000000000000        0x0 c:/program files/microchip/xc32/v4.45/bin/bin/../../lib/gcc/pic32c/8.3.1/../../../../pic32c/lib/thumb/v7e-m+fp/hard\libc-size-musl.a(strrchr.o)
 .data          0x0000000000000000        0x0 c:/program files/microchip/xc32/v4.45/bin/bin/../../lib/gcc/pic32c/8.3.1/../../../../pic32c/lib/thumb/v7e-m+fp/hard\libc-size-musl.a(strrchr.o)
 .bss           0x0000000000000000        0x0 c:/program files/microchip/xc32/v4.45/bin/bin/../../lib/gcc/pic32c/8.3.1/../../../../pic32c/lib/thumb/v7e-m+fp/hard\libc-size-musl.a(strrchr.o)
 .xc_stack_usage
                0x0000000000000000       0x15 c:/program files/microchip/xc32/v4.45/bin/bin/../../lib/gcc/pic32c/8.3.1/../../../../pic32c/lib/thumb/v7e-m+fp/hard\libc-size-musl.a(strrchr.o)
 .xc_stack_usage.hdr
                0x0000000000000000        0xe c:/program files/microchip/xc32/v4.45/bin/bin/../../lib/gcc/pic32c/8.3.1/../../../../pic32c/lib/thumb/v7e-m+fp/hard\libc-size-musl.a(strrchr.o)
 .text          0x0000000000000000        0x0 c:/program files/microchip/xc32/v4.45/bin/bin/../../lib/gcc/pic32c/8.3.1/../../../../pic32c/lib/thumb/v7e-m+fp/hard\libc-size-musl.a(strtok.o)
 .data          0x0000000000000000        0x0 c:/program files/microchip/xc32/v4.45/bin/bin/../../lib/gcc/pic32c/8.3.1/../../../../pic32c/lib/thumb/v7e-m+fp/hard\libc-size-musl.a(strtok.o)
 .xc_stack_usage
                0x0000000000000000       0x14 c:/program files/microchip/xc32/v4.45/bin/bin/../../lib/gcc/pic32c/8.3.1/../../../../pic32c/lib/thumb/v7e-m+fp/hard\libc-size-musl.a(strtok.o)
 .xc_stack_usage.hdr
                0x0000000000000000        0xe c:/program files/microchip/xc32/v4.45/bin/bin/../../lib/gcc/pic32c/8.3.1/../../../../pic32c/lib/thumb/v7e-m+fp/hard\libc-size-musl.a(strtok.o)
 .text          0x0000000000000000        0x0 c:/program files/microchip/xc32/v4.45/bin/bin/../../lib/gcc/pic32c/8.3.1/../../../../pic32c/lib/thumb/v7e-m+fp/hard\libc-size-musl.a(memrchr.o)
 .data          0x0000000000000000        0x0 c:/program files/microchip/xc32/v4.45/bin/bin/../../lib/gcc/pic32c/8.3.1/../../../../pic32c/lib/thumb/v7e-m+fp/hard\libc-size-musl.a(memrchr.o)
 .bss           0x0000000000000000        0x0 c:/program files/microchip/xc32/v4.45/bin/bin/../../lib/gcc/pic32c/8.3.1/../../../../pic32c/lib/thumb/v7e-m+fp/hard\libc-size-musl.a(memrchr.o)
 .xc_stack_usage
                0x0000000000000000       0x17 c:/program files/microchip/xc32/v4.45/bin/bin/../../lib/gcc/pic32c/8.3.1/../../../../pic32c/lib/thumb/v7e-m+fp/hard\libc-size-musl.a(memrchr.o)
 .xc_stack_usage.hdr
                0x0000000000000000        0xe c:/program files/microchip/xc32/v4.45/bin/bin/../../lib/gcc/pic32c/8.3.1/../../../../pic32c/lib/thumb/v7e-m+fp/hard\libc-size-musl.a(memrchr.o)
 .text          0x0000000000000000        0x0 c:/program files/microchip/xc32/v4.45/bin/bin/../../lib/gcc/pic32c/8.3.1/../../../../pic32c/lib/thumb/v7e-m+fp/hard\libc-size-musl.a(stpcpy.o)
 .data          0x0000000000000000        0x0 c:/program files/microchip/xc32/v4.45/bin/bin/../../lib/gcc/pic32c/8.3.1/../../../../pic32c/lib/thumb/v7e-m+fp/hard\libc-size-musl.a(stpcpy.o)
 .bss           0x0000000000000000        0x0 c:/program files/microchip/xc32/v4.45/bin/bin/../../lib/gcc/pic32c/8.3.1/../../../../pic32c/lib/thumb/v7e-m+fp/hard\libc-size-musl.a(stpcpy.o)
 .xc_stack_usage
                0x0000000000000000       0x14 c:/program files/microchip/xc32/v4.45/bin/bin/../../lib/gcc/pic32c/8.3.1/../../../../pic32c/lib/thumb/v7e-m+fp/hard\libc-size-musl.a(stpcpy.o)
 .xc_stack_usage.hdr
                0x0000000000000000        0xe c:/program files/microchip/xc32/v4.45/bin/bin/../../lib/gcc/pic32c/8.3.1/../../../../pic32c/lib/thumb/v7e-m+fp/hard\libc-size-musl.a(stpcpy.o)
 .text          0x0000000000000000        0x0 c:/program files/microchip/xc32/v4.45/bin/bin/../../lib/gcc/pic32c/8.3.1/../../../../pic32c/lib/thumb/v7e-m+fp/hard\libc-size-musl.a(stpncpy.o)
 .data          0x0000000000000000        0x0 c:/program files/microchip/xc32/v4.45/bin/bin/../../lib/gcc/pic32c/8.3.1/../../../../pic32c/lib/thumb/v7e-m+fp/hard\libc-size-musl.a(stpncpy.o)
 .bss           0x0000000000000000        0x0 c:/program files/microchip/xc32/v4.45/bin/bin/../../lib/gcc/pic32c/8.3.1/../../../../pic32c/lib/thumb/v7e-m+fp/hard\libc-size-musl.a(stpncpy.o)
 .xc_stack_usage
                0x0000000000000000       0x15 c:/program files/microchip/xc32/v4.45/bin/bin/../../lib/gcc/pic32c/8.3.1/../../../../pic32c/lib/thumb/v7e-m+fp/hard\libc-size-musl.a(stpncpy.o)
 .xc_stack_usage.hdr
                0x0000000000000000        0xe c:/program files/microchip/xc32/v4.45/bin/bin/../../lib/gcc/pic32c/8.3.1/../../../../pic32c/lib/thumb/v7e-m+fp/hard\libc-size-musl.a(stpncpy.o)
 .text          0x0000000000000000        0x0 c:/program files/microchip/xc32/v4.45/bin/bin/../../lib/gcc/pic32c/8.3.1/../../../../pic32c/lib/thumb/v7e-m+fp/hard\libc-size-musl.a(strcspn.o)
 .data          0x0000000000000000        0x0 c:/program files/microchip/xc32/v4.45/bin/bin/../../lib/gcc/pic32c/8.3.1/../../../../pic32c/lib/thumb/v7e-m+fp/hard\libc-size-musl.a(strcspn.o)
 .bss           0x0000000000000000        0x0 c:/program files/microchip/xc32/v4.45/bin/bin/../../lib/gcc/pic32c/8.3.1/../../../../pic32c/lib/thumb/v7e-m+fp/hard\libc-size-musl.a(strcspn.o)
 .xc_stack_usage
                0x0000000000000000       0x15 c:/program files/microchip/xc32/v4.45/bin/bin/../../lib/gcc/pic32c/8.3.1/../../../../pic32c/lib/thumb/v7e-m+fp/hard\libc-size-musl.a(strcspn.o)
 .xc_stack_usage.hdr
                0x0000000000000000        0xe c:/program files/microchip/xc32/v4.45/bin/bin/../../lib/gcc/pic32c/8.3.1/../../../../pic32c/lib/thumb/v7e-m+fp/hard\libc-size-musl.a(strcspn.o)
 .text          0x0000000000000000        0x0 c:/program files/microchip/xc32/v4.45/bin/bin/../../lib/gcc/pic32c/8.3.1/../../../../pic32c/lib/thumb/v7e-m+fp/hard\libc-size-musl.a(strspn.o)
 .data          0x0000000000000000        0x0 c:/program files/microchip/xc32/v4.45/bin/bin/../../lib/gcc/pic32c/8.3.1/../../../../pic32c/lib/thumb/v7e-m+fp/hard\libc-size-musl.a(strspn.o)
 .bss           0x0000000000000000        0x0 c:/program files/microchip/xc32/v4.45/bin/bin/../../lib/gcc/pic32c/8.3.1/../../../../pic32c/lib/thumb/v7e-m+fp/hard\libc-size-musl.a(strspn.o)
 .xc_stack_usage
                0x0000000000000000       0x14 c:/program files/microchip/xc32/v4.45/bin/bin/../../lib/gcc/pic32c/8.3.1/../../../../pic32c/lib/thumb/v7e-m+fp/hard\libc-size-musl.a(strspn.o)
 .xc_stack_usage.hdr
                0x0000000000000000        0xe c:/program files/microchip/xc32/v4.45/bin/bin/../../lib/gcc/pic32c/8.3.1/../../../../pic32c/lib/thumb/v7e-m+fp/hard\libc-size-musl.a(strspn.o)
 .text          0x0000000000000000        0x0 c:/program files/microchip/xc32/v4.45/bin/bin/../../lib/gcc/pic32c/8.3.1/../../../../pic32c/lib/thumb/v7e-m+fp/hard\liblmalloc-musl.a(lite_free.o)
 .data          0x0000000000000000        0x0 c:/program files/microchip/xc32/v4.45/bin/bin/../../lib/gcc/pic32c/8.3.1/../../../../pic32c/lib/thumb/v7e-m+fp/hard\liblmalloc-musl.a(lite_free.o)
 .xc_stack_usage
                0x0000000000000000       0x59 c:/program files/microchip/xc32/v4.45/bin/bin/../../lib/gcc/pic32c/8.3.1/../../../../pic32c/lib/thumb/v7e-m+fp/hard\liblmalloc-musl.a(lite_free.o)
 .xc_stack_usage.hdr
                0x0000000000000000        0xe c:/program files/microchip/xc32/v4.45/bin/bin/../../lib/gcc/pic32c/8.3.1/../../../../pic32c/lib/thumb/v7e-m+fp/hard\liblmalloc-musl.a(lite_free.o)
 .text          0x0000000000000000        0x0 c:/program files/microchip/xc32/v4.45/bin/bin/../../lib/gcc/pic32c/8.3.1/../../../../pic32c/lib/thumb/v7e-m+fp/hard\liblmalloc-musl.a(lite_malloc.o)
 .bss           0x0000000000000000        0x0 c:/program files/microchip/xc32/v4.45/bin/bin/../../lib/gcc/pic32c/8.3.1/../../../../pic32c/lib/thumb/v7e-m+fp/hard\liblmalloc-musl.a(lite_malloc.o)
 .xc_stack_usage
                0x0000000000000000       0x1d c:/program files/microchip/xc32/v4.45/bin/bin/../../lib/gcc/pic32c/8.3.1/../../../../pic32c/lib/thumb/v7e-m+fp/hard\liblmalloc-musl.a(lite_malloc.o)
 .xc_stack_usage.hdr
                0x0000000000000000        0xe c:/program files/microchip/xc32/v4.45/bin/bin/../../lib/gcc/pic32c/8.3.1/../../../../pic32c/lib/thumb/v7e-m+fp/hard\liblmalloc-musl.a(lite_malloc.o)
 .xc_stack_usage.hdr
                0x0000000000000000        0xe c:/program files/microchip/xc32/v4.45/bin/bin/../../lib/gcc/pic32c/8.3.1/../../../../pic32c/lib/thumb/v7e-m+fp/hard\libm-fast-emfloat.a(__aeabi_dadd.o)
 .xc_stack_usage
                0x0000000000000000       0x1a c:/program files/microchip/xc32/v4.45/bin/bin/../../lib/gcc/pic32c/8.3.1/../../../../pic32c/lib/thumb/v7e-m+fp/hard\libm-fast-emfloat.a(__aeabi_dadd.o)
 .xc_stack_usage.hdr
                0x0000000000000000        0xe c:/program files/microchip/xc32/v4.45/bin/bin/../../lib/gcc/pic32c/8.3.1/../../../../pic32c/lib/thumb/v7e-m+fp/hard\libm-fast-emfloat.a(__aeabi_dsub.o)
 .xc_stack_usage
                0x0000000000000000       0x1a c:/program files/microchip/xc32/v4.45/bin/bin/../../lib/gcc/pic32c/8.3.1/../../../../pic32c/lib/thumb/v7e-m+fp/hard\libm-fast-emfloat.a(__aeabi_dsub.o)
 .xc_stack_usage.hdr
                0x0000000000000000        0xe c:/program files/microchip/xc32/v4.45/bin/bin/../../lib/gcc/pic32c/8.3.1/../../../../pic32c/lib/thumb/v7e-m+fp/hard\libm-fast-emfloat.a(__aeabi_dmul.o)
 .xc_stack_usage
                0x0000000000000000       0x1a c:/program files/microchip/xc32/v4.45/bin/bin/../../lib/gcc/pic32c/8.3.1/../../../../pic32c/lib/thumb/v7e-m+fp/hard\libm-fast-emfloat.a(__aeabi_dmul.o)
 .xc_stack_usage.hdr
                0x0000000000000000        0xe c:/program files/microchip/xc32/v4.45/bin/bin/../../lib/gcc/pic32c/8.3.1/../../../../pic32c/lib/thumb/v7e-m+fp/hard\libm-fast-emfloat.a(__aeabi_ddiv.o)
 .xc_stack_usage
                0x0000000000000000       0x1a c:/program files/microchip/xc32/v4.45/bin/bin/../../lib/gcc/pic32c/8.3.1/../../../../pic32c/lib/thumb/v7e-m+fp/hard\libm-fast-emfloat.a(__aeabi_ddiv.o)
 .xc_stack_usage.hdr
                0x0000000000000000        0xe c:/program files/microchip/xc32/v4.45/bin/bin/../../lib/gcc/pic32c/8.3.1/../../../../pic32c/lib/thumb/v7e-m+fp/hard\libm-fast-emfloat.a(__aeabi_dcmpgt.o)
 .xc_stack_usage
                0x0000000000000000       0x1c c:/program files/microchip/xc32/v4.45/bin/bin/../../lib/gcc/pic32c/8.3.1/../../../../pic32c/lib/thumb/v7e-m+fp/hard\libm-fast-emfloat.a(__aeabi_dcmpgt.o)
 .xc_stack_usage.hdr
                0x0000000000000000        0xe c:/program files/microchip/xc32/v4.45/bin/bin/../../lib/gcc/pic32c/8.3.1/../../../../pic32c/lib/thumb/v7e-m+fp/hard\libm-fast-emfloat.a(__aeabi_d2uiz.o)
 .xc_stack_usage
                0x0000000000000000       0x1b c:/program files/microchip/xc32/v4.45/bin/bin/../../lib/gcc/pic32c/8.3.1/../../../../pic32c/lib/thumb/v7e-m+fp/hard\libm-fast-emfloat.a(__aeabi_d2uiz.o)
 .xc_stack_usage.hdr
                0x0000000000000000        0xe c:/program files/microchip/xc32/v4.45/bin/bin/../../lib/gcc/pic32c/8.3.1/../../../../pic32c/lib/thumb/v7e-m+fp/hard\libm-fast-emfloat.a(__aeabi_i2d.o)
 .xc_stack_usage
                0x0000000000000000       0x19 c:/program files/microchip/xc32/v4.45/bin/bin/../../lib/gcc/pic32c/8.3.1/../../../../pic32c/lib/thumb/v7e-m+fp/hard\libm-fast-emfloat.a(__aeabi_i2d.o)
 .xc_stack_usage.hdr
                0x0000000000000000        0xe c:/program files/microchip/xc32/v4.45/bin/bin/../../lib/gcc/pic32c/8.3.1/../../../../pic32c/lib/thumb/v7e-m+fp/hard\libm-fast-emfloat.a(__aeabi_ui2d.o)
 .xc_stack_usage
                0x0000000000000000       0x1a c:/program files/microchip/xc32/v4.45/bin/bin/../../lib/gcc/pic32c/8.3.1/../../../../pic32c/lib/thumb/v7e-m+fp/hard\libm-fast-emfloat.a(__aeabi_ui2d.o)
 .text          0x0000000000000000        0x0 c:/program files/microchip/xc32/v4.45/bin/bin/../../lib/gcc/pic32c/8.3.1/../../../../pic32c/lib/thumb/v7e-m+fp/hard\libc-musl.a(isxdigit.o)
 .data          0x0000000000000000        0x0 c:/program files/microchip/xc32/v4.45/bin/bin/../../lib/gcc/pic32c/8.3.1/../../../../pic32c/lib/thumb/v7e-m+fp/hard\libc-musl.a(isxdigit.o)
 .bss           0x0000000000000000        0x0 c:/program files/microchip/xc32/v4.45/bin/bin/../../lib/gcc/pic32c/8.3.1/../../../../pic32c/lib/thumb/v7e-m+fp/hard\libc-musl.a(isxdigit.o)
 .xc_stack_usage
                0x0000000000000000       0x30 c:/program files/microchip/xc32/v4.45/bin/bin/../../lib/gcc/pic32c/8.3.1/../../../../pic32c/lib/thumb/v7e-m+fp/hard\libc-musl.a(isxdigit.o)
 .text.__isxdigit_l
                0x0000000000000000        0x4 c:/program files/microchip/xc32/v4.45/bin/bin/../../lib/gcc/pic32c/8.3.1/../../../../pic32c/lib/thumb/v7e-m+fp/hard\libc-musl.a(isxdigit.o)
 .xc_stack_usage.hdr
                0x0000000000000000        0xe c:/program files/microchip/xc32/v4.45/bin/bin/../../lib/gcc/pic32c/8.3.1/../../../../pic32c/lib/thumb/v7e-m+fp/hard\libc-musl.a(isxdigit.o)
 .text          0x0000000000000000        0x0 c:/program files/microchip/xc32/v4.45/bin/bin/../../lib/gcc/pic32c/8.3.1/../../../../pic32c/lib/thumb/v7e-m+fp/hard\libc-musl.a(tolower.o)
 .data          0x0000000000000000        0x0 c:/program files/microchip/xc32/v4.45/bin/bin/../../lib/gcc/pic32c/8.3.1/../../../../pic32c/lib/thumb/v7e-m+fp/hard\libc-musl.a(tolower.o)
 .bss           0x0000000000000000        0x0 c:/program files/microchip/xc32/v4.45/bin/bin/../../lib/gcc/pic32c/8.3.1/../../../../pic32c/lib/thumb/v7e-m+fp/hard\libc-musl.a(tolower.o)
 .xc_stack_usage
                0x0000000000000000       0x2e c:/program files/microchip/xc32/v4.45/bin/bin/../../lib/gcc/pic32c/8.3.1/../../../../pic32c/lib/thumb/v7e-m+fp/hard\libc-musl.a(tolower.o)
 .text.__tolower_l
                0x0000000000000000        0x4 c:/program files/microchip/xc32/v4.45/bin/bin/../../lib/gcc/pic32c/8.3.1/../../../../pic32c/lib/thumb/v7e-m+fp/hard\libc-musl.a(tolower.o)
 .xc_stack_usage.hdr
                0x0000000000000000        0xe c:/program files/microchip/xc32/v4.45/bin/bin/../../lib/gcc/pic32c/8.3.1/../../../../pic32c/lib/thumb/v7e-m+fp/hard\libc-musl.a(tolower.o)
 .text          0x0000000000000000        0x0 c:/program files/microchip/xc32/v4.45/bin/bin/../../lib/gcc/pic32c/8.3.1/../../../../pic32c/lib/thumb/v7e-m+fp/hard\libc-musl.a(toupper.o)
 .data          0x0000000000000000        0x0 c:/program files/microchip/xc32/v4.45/bin/bin/../../lib/gcc/pic32c/8.3.1/../../../../pic32c/lib/thumb/v7e-m+fp/hard\libc-musl.a(toupper.o)
 .bss           0x0000000000000000        0x0 c:/program files/microchip/xc32/v4.45/bin/bin/../../lib/gcc/pic32c/8.3.1/../../../../pic32c/lib/thumb/v7e-m+fp/hard\libc-musl.a(toupper.o)
 .xc_stack_usage
                0x0000000000000000       0x2e c:/program files/microchip/xc32/v4.45/bin/bin/../../lib/gcc/pic32c/8.3.1/../../../../pic32c/lib/thumb/v7e-m+fp/hard\libc-musl.a(toupper.o)
 .text.__toupper_l
                0x0000000000000000        0x4 c:/program files/microchip/xc32/v4.45/bin/bin/../../lib/gcc/pic32c/8.3.1/../../../../pic32c/lib/thumb/v7e-m+fp/hard\libc-musl.a(toupper.o)
 .xc_stack_usage.hdr
                0x0000000000000000        0xe c:/program files/microchip/xc32/v4.45/bin/bin/../../lib/gcc/pic32c/8.3.1/../../../../pic32c/lib/thumb/v7e-m+fp/hard\libc-musl.a(toupper.o)
 .text          0x0000000000000000        0x0 c:/program files/microchip/xc32/v4.45/bin/bin/../../lib/gcc/pic32c/8.3.1/../../../../pic32c/lib/thumb/v7e-m+fp/hard\libc-musl.a(__libc_start_main.o)
 .data          0x0000000000000000        0x0 c:/program files/microchip/xc32/v4.45/bin/bin/../../lib/gcc/pic32c/8.3.1/../../../../pic32c/lib/thumb/v7e-m+fp/hard\libc-musl.a(__libc_start_main.o)
 .bss           0x0000000000000000        0x0 c:/program files/microchip/xc32/v4.45/bin/bin/../../lib/gcc/pic32c/8.3.1/../../../../pic32c/lib/thumb/v7e-m+fp/hard\libc-musl.a(__libc_start_main.o)
 .xc_stack_usage
                0x0000000000000000       0x34 c:/program files/microchip/xc32/v4.45/bin/bin/../../lib/gcc/pic32c/8.3.1/../../../../pic32c/lib/thumb/v7e-m+fp/hard\libc-musl.a(__libc_start_main.o)
 .xc_stack_usage.hdr
                0x0000000000000000        0xe c:/program files/microchip/xc32/v4.45/bin/bin/../../lib/gcc/pic32c/8.3.1/../../../../pic32c/lib/thumb/v7e-m+fp/hard\libc-musl.a(__libc_start_main.o)
 .text          0x0000000000000000        0x0 c:/program files/microchip/xc32/v4.45/bin/bin/../../lib/gcc/pic32c/8.3.1/../../../../pic32c/lib/thumb/v7e-m+fp/hard\libc-musl.a(__errno_location.o)
 .data          0x0000000000000000        0x0 c:/program files/microchip/xc32/v4.45/bin/bin/../../lib/gcc/pic32c/8.3.1/../../../../pic32c/lib/thumb/v7e-m+fp/hard\libc-musl.a(__errno_location.o)
 .xc_stack_usage.hdr
                0x0000000000000000        0xe c:/program files/microchip/xc32/v4.45/bin/bin/../../lib/gcc/pic32c/8.3.1/../../../../pic32c/lib/thumb/v7e-m+fp/hard\libc-musl.a(__errno_location.o)
 .text          0x0000000000000000        0x0 c:/program files/microchip/xc32/v4.45/bin/bin/../../lib/gcc/pic32c/8.3.1/../../../../pic32c/lib/thumb/v7e-m+fp/hard\libc-musl.a(libc.o)
 .data          0x0000000000000000        0x0 c:/program files/microchip/xc32/v4.45/bin/bin/../../lib/gcc/pic32c/8.3.1/../../../../pic32c/lib/thumb/v7e-m+fp/hard\libc-musl.a(libc.o)
 .xc_stack_usage.hdr
                0x0000000000000000        0xe c:/program files/microchip/xc32/v4.45/bin/bin/../../lib/gcc/pic32c/8.3.1/../../../../pic32c/lib/thumb/v7e-m+fp/hard\libc-musl.a(libc.o)
 .text          0x0000000000000000        0x0 c:/program files/microchip/xc32/v4.45/bin/bin/../../lib/gcc/pic32c/8.3.1/../../../../pic32c/lib/thumb/v7e-m+fp/hard\libc-musl.a(expand_heap.o)
 .data          0x0000000000000000        0x0 c:/program files/microchip/xc32/v4.45/bin/bin/../../lib/gcc/pic32c/8.3.1/../../../../pic32c/lib/thumb/v7e-m+fp/hard\libc-musl.a(expand_heap.o)
 .bss           0x0000000000000000        0x0 c:/program files/microchip/xc32/v4.45/bin/bin/../../lib/gcc/pic32c/8.3.1/../../../../pic32c/lib/thumb/v7e-m+fp/hard\libc-musl.a(expand_heap.o)
 .xc_stack_usage
                0x0000000000000000       0x1b c:/program files/microchip/xc32/v4.45/bin/bin/../../lib/gcc/pic32c/8.3.1/../../../../pic32c/lib/thumb/v7e-m+fp/hard\libc-musl.a(expand_heap.o)
 .xc_stack_usage.hdr
                0x0000000000000000        0xe c:/program files/microchip/xc32/v4.45/bin/bin/../../lib/gcc/pic32c/8.3.1/../../../../pic32c/lib/thumb/v7e-m+fp/hard\libc-musl.a(expand_heap.o)
 .text          0x0000000000000000        0x0 c:/program files/microchip/xc32/v4.45/bin/bin/../../lib/gcc/pic32c/8.3.1/../../../../pic32c/lib/thumb/v7e-m+fp/hard\libc-musl.a(rand.o)
 .data          0x0000000000000000        0x0 c:/program files/microchip/xc32/v4.45/bin/bin/../../lib/gcc/pic32c/8.3.1/../../../../pic32c/lib/thumb/v7e-m+fp/hard\libc-musl.a(rand.o)
 .xc_stack_usage
                0x0000000000000000       0x25 c:/program files/microchip/xc32/v4.45/bin/bin/../../lib/gcc/pic32c/8.3.1/../../../../pic32c/lib/thumb/v7e-m+fp/hard\libc-musl.a(rand.o)
 .xc_stack_usage.hdr
                0x0000000000000000        0xe c:/program files/microchip/xc32/v4.45/bin/bin/../../lib/gcc/pic32c/8.3.1/../../../../pic32c/lib/thumb/v7e-m+fp/hard\libc-musl.a(rand.o)
 .text          0x0000000000000000        0x0 c:/program files/microchip/xc32/v4.45/bin/bin/../../lib/gcc/pic32c/8.3.1/../../../../pic32c/lib/thumb/v7e-m+fp/hard\libc-musl.a(vsnprintf.o)
 .data          0x0000000000000000        0x0 c:/program files/microchip/xc32/v4.45/bin/bin/../../lib/gcc/pic32c/8.3.1/../../../../pic32c/lib/thumb/v7e-m+fp/hard\libc-musl.a(vsnprintf.o)
 .bss           0x0000000000000000        0x0 c:/program files/microchip/xc32/v4.45/bin/bin/../../lib/gcc/pic32c/8.3.1/../../../../pic32c/lib/thumb/v7e-m+fp/hard\libc-musl.a(vsnprintf.o)
 .xc_stack_usage
                0x0000000000000000       0x17 c:/program files/microchip/xc32/v4.45/bin/bin/../../lib/gcc/pic32c/8.3.1/../../../../pic32c/lib/thumb/v7e-m+fp/hard\libc-musl.a(vsnprintf.o)
 .xc_stack_usage.hdr
                0x0000000000000000        0xe c:/program files/microchip/xc32/v4.45/bin/bin/../../lib/gcc/pic32c/8.3.1/../../../../pic32c/lib/thumb/v7e-m+fp/hard\libc-musl.a(vsnprintf.o)
 .text          0x0000000000000000        0x0 c:/program files/microchip/xc32/v4.45/bin/bin/../../lib/gcc/pic32c/8.3.1/../../../../pic32c/lib/thumb/v7e-m+fp/hard\libc-musl.a(snprintf.o)
 .data          0x0000000000000000        0x0 c:/program files/microchip/xc32/v4.45/bin/bin/../../lib/gcc/pic32c/8.3.1/../../../../pic32c/lib/thumb/v7e-m+fp/hard\libc-musl.a(snprintf.o)
 .bss           0x0000000000000000        0x0 c:/program files/microchip/xc32/v4.45/bin/bin/../../lib/gcc/pic32c/8.3.1/../../../../pic32c/lib/thumb/v7e-m+fp/hard\libc-musl.a(snprintf.o)
 .xc_stack_usage
                0x0000000000000000       0x16 c:/program files/microchip/xc32/v4.45/bin/bin/../../lib/gcc/pic32c/8.3.1/../../../../pic32c/lib/thumb/v7e-m+fp/hard\libc-musl.a(snprintf.o)
 .xc_stack_usage.hdr
                0x0000000000000000        0xe c:/program files/microchip/xc32/v4.45/bin/bin/../../lib/gcc/pic32c/8.3.1/../../../../pic32c/lib/thumb/v7e-m+fp/hard\libc-musl.a(snprintf.o)
 .text          0x0000000000000000        0x0 c:/program files/microchip/xc32/v4.45/bin/bin/../../lib/gcc/pic32c/8.3.1/../../../../pic32c/lib/thumb/v7e-m+fp/hard\libc-musl.a(sprintf.o)
 .data          0x0000000000000000        0x0 c:/program files/microchip/xc32/v4.45/bin/bin/../../lib/gcc/pic32c/8.3.1/../../../../pic32c/lib/thumb/v7e-m+fp/hard\libc-musl.a(sprintf.o)
 .bss           0x0000000000000000        0x0 c:/program files/microchip/xc32/v4.45/bin/bin/../../lib/gcc/pic32c/8.3.1/../../../../pic32c/lib/thumb/v7e-m+fp/hard\libc-musl.a(sprintf.o)
 .xc_stack_usage
                0x0000000000000000       0x15 c:/program files/microchip/xc32/v4.45/bin/bin/../../lib/gcc/pic32c/8.3.1/../../../../pic32c/lib/thumb/v7e-m+fp/hard\libc-musl.a(sprintf.o)
 .xc_stack_usage.hdr
                0x0000000000000000        0xe c:/program files/microchip/xc32/v4.45/bin/bin/../../lib/gcc/pic32c/8.3.1/../../../../pic32c/lib/thumb/v7e-m+fp/hard\libc-musl.a(sprintf.o)
 .text          0x0000000000000000        0x0 c:/program files/microchip/xc32/v4.45/bin/bin/../../lib/gcc/pic32c/8.3.1/../../../../pic32c/lib/thumb/v7e-m+fp/hard\libc-musl.a(vsprintf.o)
 .data          0x0000000000000000        0x0 c:/program files/microchip/xc32/v4.45/bin/bin/../../lib/gcc/pic32c/8.3.1/../../../../pic32c/lib/thumb/v7e-m+fp/hard\libc-musl.a(vsprintf.o)
 .bss           0x0000000000000000        0x0 c:/program files/microchip/xc32/v4.45/bin/bin/../../lib/gcc/pic32c/8.3.1/../../../../pic32c/lib/thumb/v7e-m+fp/hard\libc-musl.a(vsprintf.o)
 .xc_stack_usage
                0x0000000000000000       0x16 c:/program files/microchip/xc32/v4.45/bin/bin/../../lib/gcc/pic32c/8.3.1/../../../../pic32c/lib/thumb/v7e-m+fp/hard\libc-musl.a(vsprintf.o)
 .xc_stack_usage.hdr
                0x0000000000000000        0xe c:/program files/microchip/xc32/v4.45/bin/bin/../../lib/gcc/pic32c/8.3.1/../../../../pic32c/lib/thumb/v7e-m+fp/hard\libc-musl.a(vsprintf.o)
 .text          0x0000000000000000        0x0 c:/program files/microchip/xc32/v4.45/bin/bin/../../lib/gcc/pic32c/8.3.1/../../../../pic32c/lib/thumb/v7e-m+fp/hard\libc-musl.a(atoi.o)
 .data          0x0000000000000000        0x0 c:/program files/microchip/xc32/v4.45/bin/bin/../../lib/gcc/pic32c/8.3.1/../../../../pic32c/lib/thumb/v7e-m+fp/hard\libc-musl.a(atoi.o)
 .bss           0x0000000000000000        0x0 c:/program files/microchip/xc32/v4.45/bin/bin/../../lib/gcc/pic32c/8.3.1/../../../../pic32c/lib/thumb/v7e-m+fp/hard\libc-musl.a(atoi.o)
 .xc_stack_usage
                0x0000000000000000       0x12 c:/program files/microchip/xc32/v4.45/bin/bin/../../lib/gcc/pic32c/8.3.1/../../../../pic32c/lib/thumb/v7e-m+fp/hard\libc-musl.a(atoi.o)
 .xc_stack_usage.hdr
                0x0000000000000000        0xe c:/program files/microchip/xc32/v4.45/bin/bin/../../lib/gcc/pic32c/8.3.1/../../../../pic32c/lib/thumb/v7e-m+fp/hard\libc-musl.a(atoi.o)
 .text          0x0000000000000000        0x0 c:/program files/microchip/xc32/v4.45/bin/bin/../../lib/gcc/pic32c/8.3.1/../../../../pic32c/lib/thumb/v7e-m+fp/hard\libc-musl.a(strtol.o)
 .data          0x0000000000000000        0x0 c:/program files/microchip/xc32/v4.45/bin/bin/../../lib/gcc/pic32c/8.3.1/../../../../pic32c/lib/thumb/v7e-m+fp/hard\libc-musl.a(strtol.o)
 .bss           0x0000000000000000        0x0 c:/program files/microchip/xc32/v4.45/bin/bin/../../lib/gcc/pic32c/8.3.1/../../../../pic32c/lib/thumb/v7e-m+fp/hard\libc-musl.a(strtol.o)
 .xc_stack_usage
                0x0000000000000000       0x96 c:/program files/microchip/xc32/v4.45/bin/bin/../../lib/gcc/pic32c/8.3.1/../../../../pic32c/lib/thumb/v7e-m+fp/hard\libc-musl.a(strtol.o)
 .text.strtoull
                0x0000000000000000       0x16 c:/program files/microchip/xc32/v4.45/bin/bin/../../lib/gcc/pic32c/8.3.1/../../../../pic32c/lib/thumb/v7e-m+fp/hard\libc-musl.a(strtol.o)
 .text.strtoll  0x0000000000000000       0x14 c:/program files/microchip/xc32/v4.45/bin/bin/../../lib/gcc/pic32c/8.3.1/../../../../pic32c/lib/thumb/v7e-m+fp/hard\libc-musl.a(strtol.o)
 .text.strtoul  0x0000000000000000       0x14 c:/program files/microchip/xc32/v4.45/bin/bin/../../lib/gcc/pic32c/8.3.1/../../../../pic32c/lib/thumb/v7e-m+fp/hard\libc-musl.a(strtol.o)
 .text.strtoimax
                0x0000000000000000        0x4 c:/program files/microchip/xc32/v4.45/bin/bin/../../lib/gcc/pic32c/8.3.1/../../../../pic32c/lib/thumb/v7e-m+fp/hard\libc-musl.a(strtol.o)
 .text.strtoumax
                0x0000000000000000        0x4 c:/program files/microchip/xc32/v4.45/bin/bin/../../lib/gcc/pic32c/8.3.1/../../../../pic32c/lib/thumb/v7e-m+fp/hard\libc-musl.a(strtol.o)
 .xc_stack_usage.hdr
                0x0000000000000000        0xe c:/program files/microchip/xc32/v4.45/bin/bin/../../lib/gcc/pic32c/8.3.1/../../../../pic32c/lib/thumb/v7e-m+fp/hard\libc-musl.a(strtol.o)
 .text          0x0000000000000000        0x0 c:/program files/microchip/xc32/v4.45/bin/bin/../../lib/gcc/pic32c/8.3.1/../../../../pic32c/lib/thumb/v7e-m+fp/hard\libc-musl.a(gmtime.o)
 .data          0x0000000000000000        0x0 c:/program files/microchip/xc32/v4.45/bin/bin/../../lib/gcc/pic32c/8.3.1/../../../../pic32c/lib/thumb/v7e-m+fp/hard\libc-musl.a(gmtime.o)
 .bss           0x0000000000000000       0x2c c:/program files/microchip/xc32/v4.45/bin/bin/../../lib/gcc/pic32c/8.3.1/../../../../pic32c/lib/thumb/v7e-m+fp/hard\libc-musl.a(gmtime.o)
 .xc_stack_usage
                0x0000000000000000       0x14 c:/program files/microchip/xc32/v4.45/bin/bin/../../lib/gcc/pic32c/8.3.1/../../../../pic32c/lib/thumb/v7e-m+fp/hard\libc-musl.a(gmtime.o)
 .text.gmtime   0x0000000000000000        0xc c:/program files/microchip/xc32/v4.45/bin/bin/../../lib/gcc/pic32c/8.3.1/../../../../pic32c/lib/thumb/v7e-m+fp/hard\libc-musl.a(gmtime.o)
 .xc_stack_usage.hdr
                0x0000000000000000        0xe c:/program files/microchip/xc32/v4.45/bin/bin/../../lib/gcc/pic32c/8.3.1/../../../../pic32c/lib/thumb/v7e-m+fp/hard\libc-musl.a(gmtime.o)
 .debug_info    0x0000000000000000      0x199 c:/program files/microchip/xc32/v4.45/bin/bin/../../lib/gcc/pic32c/8.3.1/../../../../pic32c/lib/thumb/v7e-m+fp/hard\libc-musl.a(gmtime.o)
 .debug_abbrev  0x0000000000000000       0xde c:/program files/microchip/xc32/v4.45/bin/bin/../../lib/gcc/pic32c/8.3.1/../../../../pic32c/lib/thumb/v7e-m+fp/hard\libc-musl.a(gmtime.o)
 .debug_loc     0x0000000000000000       0x25 c:/program files/microchip/xc32/v4.45/bin/bin/../../lib/gcc/pic32c/8.3.1/../../../../pic32c/lib/thumb/v7e-m+fp/hard\libc-musl.a(gmtime.o)
 .debug_aranges
                0x0000000000000000       0x20 c:/program files/microchip/xc32/v4.45/bin/bin/../../lib/gcc/pic32c/8.3.1/../../../../pic32c/lib/thumb/v7e-m+fp/hard\libc-musl.a(gmtime.o)
 .debug_ranges  0x0000000000000000       0x10 c:/program files/microchip/xc32/v4.45/bin/bin/../../lib/gcc/pic32c/8.3.1/../../../../pic32c/lib/thumb/v7e-m+fp/hard\libc-musl.a(gmtime.o)
 .debug_line    0x0000000000000000      0x12b c:/program files/microchip/xc32/v4.45/bin/bin/../../lib/gcc/pic32c/8.3.1/../../../../pic32c/lib/thumb/v7e-m+fp/hard\libc-musl.a(gmtime.o)
 .debug_str     0x0000000000000000      0x290 c:/program files/microchip/xc32/v4.45/bin/bin/../../lib/gcc/pic32c/8.3.1/../../../../pic32c/lib/thumb/v7e-m+fp/hard\libc-musl.a(gmtime.o)
 .comment       0x0000000000000000       0x2c c:/program files/microchip/xc32/v4.45/bin/bin/../../lib/gcc/pic32c/8.3.1/../../../../pic32c/lib/thumb/v7e-m+fp/hard\libc-musl.a(gmtime.o)
 .note.GNU-stack
                0x0000000000000000        0x0 c:/program files/microchip/xc32/v4.45/bin/bin/../../lib/gcc/pic32c/8.3.1/../../../../pic32c/lib/thumb/v7e-m+fp/hard\libc-musl.a(gmtime.o)
 .debug_frame   0x0000000000000000       0x20 c:/program files/microchip/xc32/v4.45/bin/bin/../../lib/gcc/pic32c/8.3.1/../../../../pic32c/lib/thumb/v7e-m+fp/hard\libc-musl.a(gmtime.o)
 .ARM.attributes
                0x0000000000000000       0x36 c:/program files/microchip/xc32/v4.45/bin/bin/../../lib/gcc/pic32c/8.3.1/../../../../pic32c/lib/thumb/v7e-m+fp/hard\libc-musl.a(gmtime.o)
 .text          0x0000000000000000        0x0 c:/program files/microchip/xc32/v4.45/bin/bin/../../lib/gcc/pic32c/8.3.1/../../../../pic32c/lib/thumb/v7e-m+fp/hard\libc-musl.a(gmtime_r.o)
 .data          0x0000000000000000        0x0 c:/program files/microchip/xc32/v4.45/bin/bin/../../lib/gcc/pic32c/8.3.1/../../../../pic32c/lib/thumb/v7e-m+fp/hard\libc-musl.a(gmtime_r.o)
 .bss           0x0000000000000000        0x0 c:/program files/microchip/xc32/v4.45/bin/bin/../../lib/gcc/pic32c/8.3.1/../../../../pic32c/lib/thumb/v7e-m+fp/hard\libc-musl.a(gmtime_r.o)
 .xc_stack_usage
                0x0000000000000000       0x18 c:/program files/microchip/xc32/v4.45/bin/bin/../../lib/gcc/pic32c/8.3.1/../../../../pic32c/lib/thumb/v7e-m+fp/hard\libc-musl.a(gmtime_r.o)
 .text.__gmtime_r
                0x0000000000000000       0x34 c:/program files/microchip/xc32/v4.45/bin/bin/../../lib/gcc/pic32c/8.3.1/../../../../pic32c/lib/thumb/v7e-m+fp/hard\libc-musl.a(gmtime_r.o)
 .rodata.str1.1
                0x0000000000000000        0x4 c:/program files/microchip/xc32/v4.45/bin/bin/../../lib/gcc/pic32c/8.3.1/../../../../pic32c/lib/thumb/v7e-m+fp/hard\libc-musl.a(gmtime_r.o)
 .xc_stack_usage.hdr
                0x0000000000000000        0xe c:/program files/microchip/xc32/v4.45/bin/bin/../../lib/gcc/pic32c/8.3.1/../../../../pic32c/lib/thumb/v7e-m+fp/hard\libc-musl.a(gmtime_r.o)
 .debug_info    0x0000000000000000      0x1a6 c:/program files/microchip/xc32/v4.45/bin/bin/../../lib/gcc/pic32c/8.3.1/../../../../pic32c/lib/thumb/v7e-m+fp/hard\libc-musl.a(gmtime_r.o)
 .debug_abbrev  0x0000000000000000       0xdd c:/program files/microchip/xc32/v4.45/bin/bin/../../lib/gcc/pic32c/8.3.1/../../../../pic32c/lib/thumb/v7e-m+fp/hard\libc-musl.a(gmtime_r.o)
 .debug_loc     0x0000000000000000       0x84 c:/program files/microchip/xc32/v4.45/bin/bin/../../lib/gcc/pic32c/8.3.1/../../../../pic32c/lib/thumb/v7e-m+fp/hard\libc-musl.a(gmtime_r.o)
 .debug_aranges
                0x0000000000000000       0x20 c:/program files/microchip/xc32/v4.45/bin/bin/../../lib/gcc/pic32c/8.3.1/../../../../pic32c/lib/thumb/v7e-m+fp/hard\libc-musl.a(gmtime_r.o)
 .debug_ranges  0x0000000000000000       0x10 c:/program files/microchip/xc32/v4.45/bin/bin/../../lib/gcc/pic32c/8.3.1/../../../../pic32c/lib/thumb/v7e-m+fp/hard\libc-musl.a(gmtime_r.o)
 .debug_line    0x0000000000000000      0x24b c:/program files/microchip/xc32/v4.45/bin/bin/../../lib/gcc/pic32c/8.3.1/../../../../pic32c/lib/thumb/v7e-m+fp/hard\libc-musl.a(gmtime_r.o)
 .debug_str     0x0000000000000000      0x2b7 c:/program files/microchip/xc32/v4.45/bin/bin/../../lib/gcc/pic32c/8.3.1/../../../../pic32c/lib/thumb/v7e-m+fp/hard\libc-musl.a(gmtime_r.o)
 .comment       0x0000000000000000       0x2c c:/program files/microchip/xc32/v4.45/bin/bin/../../lib/gcc/pic32c/8.3.1/../../../../pic32c/lib/thumb/v7e-m+fp/hard\libc-musl.a(gmtime_r.o)
 .note.GNU-stack
                0x0000000000000000        0x0 c:/program files/microchip/xc32/v4.45/bin/bin/../../lib/gcc/pic32c/8.3.1/../../../../pic32c/lib/thumb/v7e-m+fp/hard\libc-musl.a(gmtime_r.o)
 .debug_frame   0x0000000000000000       0x2c c:/program files/microchip/xc32/v4.45/bin/bin/../../lib/gcc/pic32c/8.3.1/../../../../pic32c/lib/thumb/v7e-m+fp/hard\libc-musl.a(gmtime_r.o)
 .ARM.attributes
                0x0000000000000000       0x36 c:/program files/microchip/xc32/v4.45/bin/bin/../../lib/gcc/pic32c/8.3.1/../../../../pic32c/lib/thumb/v7e-m+fp/hard\libc-musl.a(gmtime_r.o)
 .text          0x0000000000000000        0x0 c:/program files/microchip/xc32/v4.45/bin/bin/../../lib/gcc/pic32c/8.3.1/../../../../pic32c/lib/thumb/v7e-m+fp/hard\libc-musl.a(time.o)
 .data          0x0000000000000000        0x0 c:/program files/microchip/xc32/v4.45/bin/bin/../../lib/gcc/pic32c/8.3.1/../../../../pic32c/lib/thumb/v7e-m+fp/hard\libc-musl.a(time.o)
 .bss           0x0000000000000000        0x0 c:/program files/microchip/xc32/v4.45/bin/bin/../../lib/gcc/pic32c/8.3.1/../../../../pic32c/lib/thumb/v7e-m+fp/hard\libc-musl.a(time.o)
 .xc_stack_usage
                0x0000000000000000       0x12 c:/program files/microchip/xc32/v4.45/bin/bin/../../lib/gcc/pic32c/8.3.1/../../../../pic32c/lib/thumb/v7e-m+fp/hard\libc-musl.a(time.o)
 .text.time     0x0000000000000000       0x16 c:/program files/microchip/xc32/v4.45/bin/bin/../../lib/gcc/pic32c/8.3.1/../../../../pic32c/lib/thumb/v7e-m+fp/hard\libc-musl.a(time.o)
 .xc_stack_usage.hdr
                0x0000000000000000        0xe c:/program files/microchip/xc32/v4.45/bin/bin/../../lib/gcc/pic32c/8.3.1/../../../../pic32c/lib/thumb/v7e-m+fp/hard\libc-musl.a(time.o)
 .debug_info    0x0000000000000000       0xff c:/program files/microchip/xc32/v4.45/bin/bin/../../lib/gcc/pic32c/8.3.1/../../../../pic32c/lib/thumb/v7e-m+fp/hard\libc-musl.a(time.o)
 .debug_abbrev  0x0000000000000000       0xd4 c:/program files/microchip/xc32/v4.45/bin/bin/../../lib/gcc/pic32c/8.3.1/../../../../pic32c/lib/thumb/v7e-m+fp/hard\libc-musl.a(time.o)
 .debug_loc     0x0000000000000000       0x4e c:/program files/microchip/xc32/v4.45/bin/bin/../../lib/gcc/pic32c/8.3.1/../../../../pic32c/lib/thumb/v7e-m+fp/hard\libc-musl.a(time.o)
 .debug_aranges
                0x0000000000000000       0x20 c:/program files/microchip/xc32/v4.45/bin/bin/../../lib/gcc/pic32c/8.3.1/../../../../pic32c/lib/thumb/v7e-m+fp/hard\libc-musl.a(time.o)
 .debug_ranges  0x0000000000000000       0x10 c:/program files/microchip/xc32/v4.45/bin/bin/../../lib/gcc/pic32c/8.3.1/../../../../pic32c/lib/thumb/v7e-m+fp/hard\libc-musl.a(time.o)
 .debug_line    0x0000000000000000       0xda c:/program files/microchip/xc32/v4.45/bin/bin/../../lib/gcc/pic32c/8.3.1/../../../../pic32c/lib/thumb/v7e-m+fp/hard\libc-musl.a(time.o)
 .debug_str     0x0000000000000000      0x25b c:/program files/microchip/xc32/v4.45/bin/bin/../../lib/gcc/pic32c/8.3.1/../../../../pic32c/lib/thumb/v7e-m+fp/hard\libc-musl.a(time.o)
 .comment       0x0000000000000000       0x2c c:/program files/microchip/xc32/v4.45/bin/bin/../../lib/gcc/pic32c/8.3.1/../../../../pic32c/lib/thumb/v7e-m+fp/hard\libc-musl.a(time.o)
 .note.GNU-stack
                0x0000000000000000        0x0 c:/program files/microchip/xc32/v4.45/bin/bin/../../lib/gcc/pic32c/8.3.1/../../../../pic32c/lib/thumb/v7e-m+fp/hard\libc-musl.a(time.o)
 .debug_frame   0x0000000000000000       0x2c c:/program files/microchip/xc32/v4.45/bin/bin/../../lib/gcc/pic32c/8.3.1/../../../../pic32c/lib/thumb/v7e-m+fp/hard\libc-musl.a(time.o)
 .ARM.attributes
                0x0000000000000000       0x36 c:/program files/microchip/xc32/v4.45/bin/bin/../../lib/gcc/pic32c/8.3.1/../../../../pic32c/lib/thumb/v7e-m+fp/hard\libc-musl.a(time.o)
 .text          0x0000000000000000        0x0 c:/program files/microchip/xc32/v4.45/bin/bin/../../lib/gcc/pic32c/8.3.1/../../../../pic32c/lib/thumb/v7e-m+fp/hard\libc-musl.a(__environ.o)
 .data          0x0000000000000000        0x0 c:/program files/microchip/xc32/v4.45/bin/bin/../../lib/gcc/pic32c/8.3.1/../../../../pic32c/lib/thumb/v7e-m+fp/hard\libc-musl.a(__environ.o)
 .xc_stack_usage.hdr
                0x0000000000000000        0xe c:/program files/microchip/xc32/v4.45/bin/bin/../../lib/gcc/pic32c/8.3.1/../../../../pic32c/lib/thumb/v7e-m+fp/hard\libc-musl.a(__environ.o)
 .text          0x0000000000000000        0x0 c:/program files/microchip/xc32/v4.45/bin/bin/../../lib/gcc/pic32c/8.3.1/../../../../pic32c/lib/thumb/v7e-m+fp/hard\libc-musl.a(intscan.o)
 .data          0x0000000000000000        0x0 c:/program files/microchip/xc32/v4.45/bin/bin/../../lib/gcc/pic32c/8.3.1/../../../../pic32c/lib/thumb/v7e-m+fp/hard\libc-musl.a(intscan.o)
 .bss           0x0000000000000000        0x0 c:/program files/microchip/xc32/v4.45/bin/bin/../../lib/gcc/pic32c/8.3.1/../../../../pic32c/lib/thumb/v7e-m+fp/hard\libc-musl.a(intscan.o)
 .xc_stack_usage
                0x0000000000000000       0x17 c:/program files/microchip/xc32/v4.45/bin/bin/../../lib/gcc/pic32c/8.3.1/../../../../pic32c/lib/thumb/v7e-m+fp/hard\libc-musl.a(intscan.o)
 .xc_stack_usage.hdr
                0x0000000000000000        0xe c:/program files/microchip/xc32/v4.45/bin/bin/../../lib/gcc/pic32c/8.3.1/../../../../pic32c/lib/thumb/v7e-m+fp/hard\libc-musl.a(intscan.o)
 .text          0x0000000000000000        0x0 c:/program files/microchip/xc32/v4.45/bin/bin/../../lib/gcc/pic32c/8.3.1/../../../../pic32c/lib/thumb/v7e-m+fp/hard\libc-musl.a(shgetc.o)
 .data          0x0000000000000000        0x0 c:/program files/microchip/xc32/v4.45/bin/bin/../../lib/gcc/pic32c/8.3.1/../../../../pic32c/lib/thumb/v7e-m+fp/hard\libc-musl.a(shgetc.o)
 .bss           0x0000000000000000        0x0 c:/program files/microchip/xc32/v4.45/bin/bin/../../lib/gcc/pic32c/8.3.1/../../../../pic32c/lib/thumb/v7e-m+fp/hard\libc-musl.a(shgetc.o)
 .xc_stack_usage
                0x0000000000000000       0x2b c:/program files/microchip/xc32/v4.45/bin/bin/../../lib/gcc/pic32c/8.3.1/../../../../pic32c/lib/thumb/v7e-m+fp/hard\libc-musl.a(shgetc.o)
 .xc_stack_usage.hdr
                0x0000000000000000        0xe c:/program files/microchip/xc32/v4.45/bin/bin/../../lib/gcc/pic32c/8.3.1/../../../../pic32c/lib/thumb/v7e-m+fp/hard\libc-musl.a(shgetc.o)
 .text          0x0000000000000000        0x0 c:/program files/microchip/xc32/v4.45/bin/bin/../../lib/gcc/pic32c/8.3.1/../../../../pic32c/lib/thumb/v7e-m+fp/hard\libc-musl.a(__uflow.o)
 .data          0x0000000000000000        0x0 c:/program files/microchip/xc32/v4.45/bin/bin/../../lib/gcc/pic32c/8.3.1/../../../../pic32c/lib/thumb/v7e-m+fp/hard\libc-musl.a(__uflow.o)
 .bss           0x0000000000000000        0x0 c:/program files/microchip/xc32/v4.45/bin/bin/../../lib/gcc/pic32c/8.3.1/../../../../pic32c/lib/thumb/v7e-m+fp/hard\libc-musl.a(__uflow.o)
 .xc_stack_usage
                0x0000000000000000       0x15 c:/program files/microchip/xc32/v4.45/bin/bin/../../lib/gcc/pic32c/8.3.1/../../../../pic32c/lib/thumb/v7e-m+fp/hard\libc-musl.a(__uflow.o)
 .xc_stack_usage.hdr
                0x0000000000000000        0xe c:/program files/microchip/xc32/v4.45/bin/bin/../../lib/gcc/pic32c/8.3.1/../../../../pic32c/lib/thumb/v7e-m+fp/hard\libc-musl.a(__uflow.o)
 .text          0x0000000000000000        0x0 c:/program files/microchip/xc32/v4.45/bin/bin/../../lib/gcc/pic32c/8.3.1/../../../../pic32c/lib/thumb/v7e-m+fp/hard\libc-musl.a(vfprintf.o)
 .data          0x0000000000000000        0x0 c:/program files/microchip/xc32/v4.45/bin/bin/../../lib/gcc/pic32c/8.3.1/../../../../pic32c/lib/thumb/v7e-m+fp/hard\libc-musl.a(vfprintf.o)
 .bss           0x0000000000000000        0x0 c:/program files/microchip/xc32/v4.45/bin/bin/../../lib/gcc/pic32c/8.3.1/../../../../pic32c/lib/thumb/v7e-m+fp/hard\libc-musl.a(vfprintf.o)
 .xc_stack_usage
                0x0000000000000000       0x38 c:/program files/microchip/xc32/v4.45/bin/bin/../../lib/gcc/pic32c/8.3.1/../../../../pic32c/lib/thumb/v7e-m+fp/hard\libc-musl.a(vfprintf.o)
 .xc_stack_usage.hdr
                0x0000000000000000        0xe c:/program files/microchip/xc32/v4.45/bin/bin/../../lib/gcc/pic32c/8.3.1/../../../../pic32c/lib/thumb/v7e-m+fp/hard\libc-musl.a(vfprintf.o)
 .text          0x0000000000000000        0x0 c:/program files/microchip/xc32/v4.45/bin/bin/../../lib/gcc/pic32c/8.3.1/../../../../pic32c/lib/thumb/v7e-m+fp/hard\libc-musl.a(__secs_to_tm.o)
 .data          0x0000000000000000        0x0 c:/program files/microchip/xc32/v4.45/bin/bin/../../lib/gcc/pic32c/8.3.1/../../../../pic32c/lib/thumb/v7e-m+fp/hard\libc-musl.a(__secs_to_tm.o)
 .bss           0x0000000000000000        0x0 c:/program files/microchip/xc32/v4.45/bin/bin/../../lib/gcc/pic32c/8.3.1/../../../../pic32c/lib/thumb/v7e-m+fp/hard\libc-musl.a(__secs_to_tm.o)
 .xc_stack_usage
                0x0000000000000000       0x1a c:/program files/microchip/xc32/v4.45/bin/bin/../../lib/gcc/pic32c/8.3.1/../../../../pic32c/lib/thumb/v7e-m+fp/hard\libc-musl.a(__secs_to_tm.o)
 .text.__secs_to_tm
                0x0000000000000000      0x1c8 c:/program files/microchip/xc32/v4.45/bin/bin/../../lib/gcc/pic32c/8.3.1/../../../../pic32c/lib/thumb/v7e-m+fp/hard\libc-musl.a(__secs_to_tm.o)
 .rodata        0x0000000000000000        0xc c:/program files/microchip/xc32/v4.45/bin/bin/../../lib/gcc/pic32c/8.3.1/../../../../pic32c/lib/thumb/v7e-m+fp/hard\libc-musl.a(__secs_to_tm.o)
 .xc_stack_usage.hdr
                0x0000000000000000        0xe c:/program files/microchip/xc32/v4.45/bin/bin/../../lib/gcc/pic32c/8.3.1/../../../../pic32c/lib/thumb/v7e-m+fp/hard\libc-musl.a(__secs_to_tm.o)
 .debug_info    0x0000000000000000      0x295 c:/program files/microchip/xc32/v4.45/bin/bin/../../lib/gcc/pic32c/8.3.1/../../../../pic32c/lib/thumb/v7e-m+fp/hard\libc-musl.a(__secs_to_tm.o)
 .debug_abbrev  0x0000000000000000       0xc7 c:/program files/microchip/xc32/v4.45/bin/bin/../../lib/gcc/pic32c/8.3.1/../../../../pic32c/lib/thumb/v7e-m+fp/hard\libc-musl.a(__secs_to_tm.o)
 .debug_loc     0x0000000000000000      0x300 c:/program files/microchip/xc32/v4.45/bin/bin/../../lib/gcc/pic32c/8.3.1/../../../../pic32c/lib/thumb/v7e-m+fp/hard\libc-musl.a(__secs_to_tm.o)
 .debug_aranges
                0x0000000000000000       0x20 c:/program files/microchip/xc32/v4.45/bin/bin/../../lib/gcc/pic32c/8.3.1/../../../../pic32c/lib/thumb/v7e-m+fp/hard\libc-musl.a(__secs_to_tm.o)
 .debug_ranges  0x0000000000000000       0x10 c:/program files/microchip/xc32/v4.45/bin/bin/../../lib/gcc/pic32c/8.3.1/../../../../pic32c/lib/thumb/v7e-m+fp/hard\libc-musl.a(__secs_to_tm.o)
 .debug_line    0x0000000000000000      0x2ea c:/program files/microchip/xc32/v4.45/bin/bin/../../lib/gcc/pic32c/8.3.1/../../../../pic32c/lib/thumb/v7e-m+fp/hard\libc-musl.a(__secs_to_tm.o)
 .debug_str     0x0000000000000000      0x31d c:/program files/microchip/xc32/v4.45/bin/bin/../../lib/gcc/pic32c/8.3.1/../../../../pic32c/lib/thumb/v7e-m+fp/hard\libc-musl.a(__secs_to_tm.o)
 .comment       0x0000000000000000       0x2c c:/program files/microchip/xc32/v4.45/bin/bin/../../lib/gcc/pic32c/8.3.1/../../../../pic32c/lib/thumb/v7e-m+fp/hard\libc-musl.a(__secs_to_tm.o)
 .note.GNU-stack
                0x0000000000000000        0x0 c:/program files/microchip/xc32/v4.45/bin/bin/../../lib/gcc/pic32c/8.3.1/../../../../pic32c/lib/thumb/v7e-m+fp/hard\libc-musl.a(__secs_to_tm.o)
 .debug_frame   0x0000000000000000       0x38 c:/program files/microchip/xc32/v4.45/bin/bin/../../lib/gcc/pic32c/8.3.1/../../../../pic32c/lib/thumb/v7e-m+fp/hard\libc-musl.a(__secs_to_tm.o)
 .ARM.attributes
                0x0000000000000000       0x36 c:/program files/microchip/xc32/v4.45/bin/bin/../../lib/gcc/pic32c/8.3.1/../../../../pic32c/lib/thumb/v7e-m+fp/hard\libc-musl.a(__secs_to_tm.o)
 .text          0x0000000000000000        0x0 c:/program files/microchip/xc32/v4.45/bin/bin/../../lib/gcc/pic32c/8.3.1/../../../../pic32c/lib/thumb/v7e-m+fp/hard\libc-musl.a(clock_gettime.o)
 .data          0x0000000000000000        0x0 c:/program files/microchip/xc32/v4.45/bin/bin/../../lib/gcc/pic32c/8.3.1/../../../../pic32c/lib/thumb/v7e-m+fp/hard\libc-musl.a(clock_gettime.o)
 .bss           0x0000000000000000        0x0 c:/program files/microchip/xc32/v4.45/bin/bin/../../lib/gcc/pic32c/8.3.1/../../../../pic32c/lib/thumb/v7e-m+fp/hard\libc-musl.a(clock_gettime.o)
 .xc_stack_usage
                0x0000000000000000       0x1d c:/program files/microchip/xc32/v4.45/bin/bin/../../lib/gcc/pic32c/8.3.1/../../../../pic32c/lib/thumb/v7e-m+fp/hard\libc-musl.a(clock_gettime.o)
 .text.__clock_gettime
                0x0000000000000000       0x2c c:/program files/microchip/xc32/v4.45/bin/bin/../../lib/gcc/pic32c/8.3.1/../../../../pic32c/lib/thumb/v7e-m+fp/hard\libc-musl.a(clock_gettime.o)
 .xc_stack_usage.hdr
                0x0000000000000000        0xe c:/program files/microchip/xc32/v4.45/bin/bin/../../lib/gcc/pic32c/8.3.1/../../../../pic32c/lib/thumb/v7e-m+fp/hard\libc-musl.a(clock_gettime.o)
 .debug_info    0x0000000000000000      0x1b8 c:/program files/microchip/xc32/v4.45/bin/bin/../../lib/gcc/pic32c/8.3.1/../../../../pic32c/lib/thumb/v7e-m+fp/hard\libc-musl.a(clock_gettime.o)
 .debug_abbrev  0x0000000000000000      0x10d c:/program files/microchip/xc32/v4.45/bin/bin/../../lib/gcc/pic32c/8.3.1/../../../../pic32c/lib/thumb/v7e-m+fp/hard\libc-musl.a(clock_gettime.o)
 .debug_loc     0x0000000000000000       0xbb c:/program files/microchip/xc32/v4.45/bin/bin/../../lib/gcc/pic32c/8.3.1/../../../../pic32c/lib/thumb/v7e-m+fp/hard\libc-musl.a(clock_gettime.o)
 .debug_aranges
                0x0000000000000000       0x20 c:/program files/microchip/xc32/v4.45/bin/bin/../../lib/gcc/pic32c/8.3.1/../../../../pic32c/lib/thumb/v7e-m+fp/hard\libc-musl.a(clock_gettime.o)
 .debug_ranges  0x0000000000000000       0x10 c:/program files/microchip/xc32/v4.45/bin/bin/../../lib/gcc/pic32c/8.3.1/../../../../pic32c/lib/thumb/v7e-m+fp/hard\libc-musl.a(clock_gettime.o)
 .debug_line    0x0000000000000000      0x1e9 c:/program files/microchip/xc32/v4.45/bin/bin/../../lib/gcc/pic32c/8.3.1/../../../../pic32c/lib/thumb/v7e-m+fp/hard\libc-musl.a(clock_gettime.o)
 .debug_str     0x0000000000000000      0x2f3 c:/program files/microchip/xc32/v4.45/bin/bin/../../lib/gcc/pic32c/8.3.1/../../../../pic32c/lib/thumb/v7e-m+fp/hard\libc-musl.a(clock_gettime.o)
 .comment       0x0000000000000000       0x2c c:/program files/microchip/xc32/v4.45/bin/bin/../../lib/gcc/pic32c/8.3.1/../../../../pic32c/lib/thumb/v7e-m+fp/hard\libc-musl.a(clock_gettime.o)
 .note.GNU-stack
                0x0000000000000000        0x0 c:/program files/microchip/xc32/v4.45/bin/bin/../../lib/gcc/pic32c/8.3.1/../../../../pic32c/lib/thumb/v7e-m+fp/hard\libc-musl.a(clock_gettime.o)
 .debug_frame   0x0000000000000000       0x30 c:/program files/microchip/xc32/v4.45/bin/bin/../../lib/gcc/pic32c/8.3.1/../../../../pic32c/lib/thumb/v7e-m+fp/hard\libc-musl.a(clock_gettime.o)
 .ARM.attributes
                0x0000000000000000       0x36 c:/program files/microchip/xc32/v4.45/bin/bin/../../lib/gcc/pic32c/8.3.1/../../../../pic32c/lib/thumb/v7e-m+fp/hard\libc-musl.a(clock_gettime.o)
 .text          0x0000000000000000        0x0 c:/program files/microchip/xc32/v4.45/bin/bin/../../lib/gcc/pic32c/8.3.1/../../../../pic32c/lib/thumb/v7e-m+fp/hard\libc-musl.a(gettimeofday.o)
 .data          0x0000000000000000        0x0 c:/program files/microchip/xc32/v4.45/bin/bin/../../lib/gcc/pic32c/8.3.1/../../../../pic32c/lib/thumb/v7e-m+fp/hard\libc-musl.a(gettimeofday.o)
 .bss           0x0000000000000000        0x0 c:/program files/microchip/xc32/v4.45/bin/bin/../../lib/gcc/pic32c/8.3.1/../../../../pic32c/lib/thumb/v7e-m+fp/hard\libc-musl.a(gettimeofday.o)
 .xc_stack_usage
                0x0000000000000000       0x1c c:/program files/microchip/xc32/v4.45/bin/bin/../../lib/gcc/pic32c/8.3.1/../../../../pic32c/lib/thumb/v7e-m+fp/hard\libc-musl.a(gettimeofday.o)
 .text.__gettimeofday
                0x0000000000000000        0x6 c:/program files/microchip/xc32/v4.45/bin/bin/../../lib/gcc/pic32c/8.3.1/../../../../pic32c/lib/thumb/v7e-m+fp/hard\libc-musl.a(gettimeofday.o)
 .xc_stack_usage.hdr
                0x0000000000000000        0xe c:/program files/microchip/xc32/v4.45/bin/bin/../../lib/gcc/pic32c/8.3.1/../../../../pic32c/lib/thumb/v7e-m+fp/hard\libc-musl.a(gettimeofday.o)
 .debug_info    0x0000000000000000       0xe8 c:/program files/microchip/xc32/v4.45/bin/bin/../../lib/gcc/pic32c/8.3.1/../../../../pic32c/lib/thumb/v7e-m+fp/hard\libc-musl.a(gettimeofday.o)
 .debug_abbrev  0x0000000000000000       0xae c:/program files/microchip/xc32/v4.45/bin/bin/../../lib/gcc/pic32c/8.3.1/../../../../pic32c/lib/thumb/v7e-m+fp/hard\libc-musl.a(gettimeofday.o)
 .debug_loc     0x0000000000000000       0x25 c:/program files/microchip/xc32/v4.45/bin/bin/../../lib/gcc/pic32c/8.3.1/../../../../pic32c/lib/thumb/v7e-m+fp/hard\libc-musl.a(gettimeofday.o)
 .debug_aranges
                0x0000000000000000       0x20 c:/program files/microchip/xc32/v4.45/bin/bin/../../lib/gcc/pic32c/8.3.1/../../../../pic32c/lib/thumb/v7e-m+fp/hard\libc-musl.a(gettimeofday.o)
 .debug_ranges  0x0000000000000000       0x10 c:/program files/microchip/xc32/v4.45/bin/bin/../../lib/gcc/pic32c/8.3.1/../../../../pic32c/lib/thumb/v7e-m+fp/hard\libc-musl.a(gettimeofday.o)
 .debug_line    0x0000000000000000       0xcb c:/program files/microchip/xc32/v4.45/bin/bin/../../lib/gcc/pic32c/8.3.1/../../../../pic32c/lib/thumb/v7e-m+fp/hard\libc-musl.a(gettimeofday.o)
 .debug_str     0x0000000000000000      0x26d c:/program files/microchip/xc32/v4.45/bin/bin/../../lib/gcc/pic32c/8.3.1/../../../../pic32c/lib/thumb/v7e-m+fp/hard\libc-musl.a(gettimeofday.o)
 .comment       0x0000000000000000       0x2c c:/program files/microchip/xc32/v4.45/bin/bin/../../lib/gcc/pic32c/8.3.1/../../../../pic32c/lib/thumb/v7e-m+fp/hard\libc-musl.a(gettimeofday.o)
 .note.GNU-stack
                0x0000000000000000        0x0 c:/program files/microchip/xc32/v4.45/bin/bin/../../lib/gcc/pic32c/8.3.1/../../../../pic32c/lib/thumb/v7e-m+fp/hard\libc-musl.a(gettimeofday.o)
 .debug_frame   0x0000000000000000       0x20 c:/program files/microchip/xc32/v4.45/bin/bin/../../lib/gcc/pic32c/8.3.1/../../../../pic32c/lib/thumb/v7e-m+fp/hard\libc-musl.a(gettimeofday.o)
 .ARM.attributes
                0x0000000000000000       0x36 c:/program files/microchip/xc32/v4.45/bin/bin/../../lib/gcc/pic32c/8.3.1/../../../../pic32c/lib/thumb/v7e-m+fp/hard\libc-musl.a(gettimeofday.o)
 .text          0x0000000000000000        0x0 c:/program files/microchip/xc32/v4.45/bin/bin/../../lib/gcc/pic32c/8.3.1/../../../../pic32c/lib/thumb/v7e-m+fp/hard\libc-musl.a(syscall_ret.o)
 .data          0x0000000000000000        0x0 c:/program files/microchip/xc32/v4.45/bin/bin/../../lib/gcc/pic32c/8.3.1/../../../../pic32c/lib/thumb/v7e-m+fp/hard\libc-musl.a(syscall_ret.o)
 .bss           0x0000000000000000        0x0 c:/program files/microchip/xc32/v4.45/bin/bin/../../lib/gcc/pic32c/8.3.1/../../../../pic32c/lib/thumb/v7e-m+fp/hard\libc-musl.a(syscall_ret.o)
 .xc_stack_usage
                0x0000000000000000       0x1b c:/program files/microchip/xc32/v4.45/bin/bin/../../lib/gcc/pic32c/8.3.1/../../../../pic32c/lib/thumb/v7e-m+fp/hard\libc-musl.a(syscall_ret.o)
 .text.__syscall_ret
                0x0000000000000000       0x18 c:/program files/microchip/xc32/v4.45/bin/bin/../../lib/gcc/pic32c/8.3.1/../../../../pic32c/lib/thumb/v7e-m+fp/hard\libc-musl.a(syscall_ret.o)
 .xc_stack_usage.hdr
                0x0000000000000000        0xe c:/program files/microchip/xc32/v4.45/bin/bin/../../lib/gcc/pic32c/8.3.1/../../../../pic32c/lib/thumb/v7e-m+fp/hard\libc-musl.a(syscall_ret.o)
 .debug_info    0x0000000000000000       0x9a c:/program files/microchip/xc32/v4.45/bin/bin/../../lib/gcc/pic32c/8.3.1/../../../../pic32c/lib/thumb/v7e-m+fp/hard\libc-musl.a(syscall_ret.o)
 .debug_abbrev  0x0000000000000000       0x71 c:/program files/microchip/xc32/v4.45/bin/bin/../../lib/gcc/pic32c/8.3.1/../../../../pic32c/lib/thumb/v7e-m+fp/hard\libc-musl.a(syscall_ret.o)
 .debug_loc     0x0000000000000000       0x25 c:/program files/microchip/xc32/v4.45/bin/bin/../../lib/gcc/pic32c/8.3.1/../../../../pic32c/lib/thumb/v7e-m+fp/hard\libc-musl.a(syscall_ret.o)
 .debug_aranges
                0x0000000000000000       0x20 c:/program files/microchip/xc32/v4.45/bin/bin/../../lib/gcc/pic32c/8.3.1/../../../../pic32c/lib/thumb/v7e-m+fp/hard\libc-musl.a(syscall_ret.o)
 .debug_ranges  0x0000000000000000       0x10 c:/program files/microchip/xc32/v4.45/bin/bin/../../lib/gcc/pic32c/8.3.1/../../../../pic32c/lib/thumb/v7e-m+fp/hard\libc-musl.a(syscall_ret.o)
 .debug_line    0x0000000000000000      0x136 c:/program files/microchip/xc32/v4.45/bin/bin/../../lib/gcc/pic32c/8.3.1/../../../../pic32c/lib/thumb/v7e-m+fp/hard\libc-musl.a(syscall_ret.o)
 .debug_str     0x0000000000000000      0x253 c:/program files/microchip/xc32/v4.45/bin/bin/../../lib/gcc/pic32c/8.3.1/../../../../pic32c/lib/thumb/v7e-m+fp/hard\libc-musl.a(syscall_ret.o)
 .comment       0x0000000000000000       0x2c c:/program files/microchip/xc32/v4.45/bin/bin/../../lib/gcc/pic32c/8.3.1/../../../../pic32c/lib/thumb/v7e-m+fp/hard\libc-musl.a(syscall_ret.o)
 .note.GNU-stack
                0x0000000000000000        0x0 c:/program files/microchip/xc32/v4.45/bin/bin/../../lib/gcc/pic32c/8.3.1/../../../../pic32c/lib/thumb/v7e-m+fp/hard\libc-musl.a(syscall_ret.o)
 .debug_frame   0x0000000000000000       0x20 c:/program files/microchip/xc32/v4.45/bin/bin/../../lib/gcc/pic32c/8.3.1/../../../../pic32c/lib/thumb/v7e-m+fp/hard\libc-musl.a(syscall_ret.o)
 .ARM.attributes
                0x0000000000000000       0x36 c:/program files/microchip/xc32/v4.45/bin/bin/../../lib/gcc/pic32c/8.3.1/../../../../pic32c/lib/thumb/v7e-m+fp/hard\libc-musl.a(syscall_ret.o)
 .text          0x0000000000000000        0x0 c:/program files/microchip/xc32/v4.45/bin/bin/../../lib/gcc/pic32c/8.3.1/../../../../pic32c/lib/thumb/v7e-m+fp/hard\libc-musl.a(__toread.o)
 .data          0x0000000000000000        0x0 c:/program files/microchip/xc32/v4.45/bin/bin/../../lib/gcc/pic32c/8.3.1/../../../../pic32c/lib/thumb/v7e-m+fp/hard\libc-musl.a(__toread.o)
 .bss           0x0000000000000000        0x0 c:/program files/microchip/xc32/v4.45/bin/bin/../../lib/gcc/pic32c/8.3.1/../../../../pic32c/lib/thumb/v7e-m+fp/hard\libc-musl.a(__toread.o)
 .xc_stack_usage
                0x0000000000000000       0x3d c:/program files/microchip/xc32/v4.45/bin/bin/../../lib/gcc/pic32c/8.3.1/../../../../pic32c/lib/thumb/v7e-m+fp/hard\libc-musl.a(__toread.o)
 .text.__toread_needs_stdio_exit
                0x0000000000000000        0x4 c:/program files/microchip/xc32/v4.45/bin/bin/../../lib/gcc/pic32c/8.3.1/../../../../pic32c/lib/thumb/v7e-m+fp/hard\libc-musl.a(__toread.o)
 .xc_stack_usage.hdr
                0x0000000000000000        0xe c:/program files/microchip/xc32/v4.45/bin/bin/../../lib/gcc/pic32c/8.3.1/../../../../pic32c/lib/thumb/v7e-m+fp/hard\libc-musl.a(__toread.o)
 .text          0x0000000000000000        0x0 c:/program files/microchip/xc32/v4.45/bin/bin/../../lib/gcc/pic32c/8.3.1/../../../../pic32c/lib/thumb/v7e-m+fp/hard\libc-musl.a(__io_fmt_needed.o)
 .data          0x0000000000000000        0x0 c:/program files/microchip/xc32/v4.45/bin/bin/../../lib/gcc/pic32c/8.3.1/../../../../pic32c/lib/thumb/v7e-m+fp/hard\libc-musl.a(__io_fmt_needed.o)
 .bss           0x0000000000000000        0x0 c:/program files/microchip/xc32/v4.45/bin/bin/../../lib/gcc/pic32c/8.3.1/../../../../pic32c/lib/thumb/v7e-m+fp/hard\libc-musl.a(__io_fmt_needed.o)
 .xc_stack_usage
                0x0000000000000000       0x1d c:/program files/microchip/xc32/v4.45/bin/bin/../../lib/gcc/pic32c/8.3.1/../../../../pic32c/lib/thumb/v7e-m+fp/hard\libc-musl.a(__io_fmt_needed.o)
 .xc_stack_usage.hdr
                0x0000000000000000        0xe c:/program files/microchip/xc32/v4.45/bin/bin/../../lib/gcc/pic32c/8.3.1/../../../../pic32c/lib/thumb/v7e-m+fp/hard\libc-musl.a(__io_fmt_needed.o)
 .debug_info    0x0000000000000000      0x188 c:/program files/microchip/xc32/v4.45/bin/bin/../../lib/gcc/pic32c/8.3.1/../../../../pic32c/lib/thumb/v7e-m+fp/hard\libc-musl.a(__io_fmt_needed.o)
 .debug_abbrev  0x0000000000000000       0x75 c:/program files/microchip/xc32/v4.45/bin/bin/../../lib/gcc/pic32c/8.3.1/../../../../pic32c/lib/thumb/v7e-m+fp/hard\libc-musl.a(__io_fmt_needed.o)
 .debug_loc     0x0000000000000000       0x2c c:/program files/microchip/xc32/v4.45/bin/bin/../../lib/gcc/pic32c/8.3.1/../../../../pic32c/lib/thumb/v7e-m+fp/hard\libc-musl.a(__io_fmt_needed.o)
 .debug_aranges
                0x0000000000000000       0x20 c:/program files/microchip/xc32/v4.45/bin/bin/../../lib/gcc/pic32c/8.3.1/../../../../pic32c/lib/thumb/v7e-m+fp/hard\libc-musl.a(__io_fmt_needed.o)
 .debug_ranges  0x0000000000000000       0x10 c:/program files/microchip/xc32/v4.45/bin/bin/../../lib/gcc/pic32c/8.3.1/../../../../pic32c/lib/thumb/v7e-m+fp/hard\libc-musl.a(__io_fmt_needed.o)
 .debug_line    0x0000000000000000       0xc5 c:/program files/microchip/xc32/v4.45/bin/bin/../../lib/gcc/pic32c/8.3.1/../../../../pic32c/lib/thumb/v7e-m+fp/hard\libc-musl.a(__io_fmt_needed.o)
 .debug_str     0x0000000000000000      0x340 c:/program files/microchip/xc32/v4.45/bin/bin/../../lib/gcc/pic32c/8.3.1/../../../../pic32c/lib/thumb/v7e-m+fp/hard\libc-musl.a(__io_fmt_needed.o)
 .comment       0x0000000000000000       0x2c c:/program files/microchip/xc32/v4.45/bin/bin/../../lib/gcc/pic32c/8.3.1/../../../../pic32c/lib/thumb/v7e-m+fp/hard\libc-musl.a(__io_fmt_needed.o)
 .note.GNU-stack
                0x0000000000000000        0x0 c:/program files/microchip/xc32/v4.45/bin/bin/../../lib/gcc/pic32c/8.3.1/../../../../pic32c/lib/thumb/v7e-m+fp/hard\libc-musl.a(__io_fmt_needed.o)
 .debug_frame   0x0000000000000000       0x2c c:/program files/microchip/xc32/v4.45/bin/bin/../../lib/gcc/pic32c/8.3.1/../../../../pic32c/lib/thumb/v7e-m+fp/hard\libc-musl.a(__io_fmt_needed.o)
 .ARM.attributes
                0x0000000000000000       0x36 c:/program files/microchip/xc32/v4.45/bin/bin/../../lib/gcc/pic32c/8.3.1/../../../../pic32c/lib/thumb/v7e-m+fp/hard\libc-musl.a(__io_fmt_needed.o)
 .text          0x0000000000000000        0x0 c:/program files/microchip/xc32/v4.45/bin/bin/../../lib/gcc/pic32c/8.3.1/../../../../pic32c/lib/thumb/v7e-m+fp/hard\libc-musl.a(__pop_float.o)
 .data          0x0000000000000000        0x0 c:/program files/microchip/xc32/v4.45/bin/bin/../../lib/gcc/pic32c/8.3.1/../../../../pic32c/lib/thumb/v7e-m+fp/hard\libc-musl.a(__pop_float.o)
 .bss           0x0000000000000000        0x0 c:/program files/microchip/xc32/v4.45/bin/bin/../../lib/gcc/pic32c/8.3.1/../../../../pic32c/lib/thumb/v7e-m+fp/hard\libc-musl.a(__pop_float.o)
 .xc_stack_usage
                0x0000000000000000       0x19 c:/program files/microchip/xc32/v4.45/bin/bin/../../lib/gcc/pic32c/8.3.1/../../../../pic32c/lib/thumb/v7e-m+fp/hard\libc-musl.a(__pop_float.o)
 .xc_stack_usage.hdr
                0x0000000000000000        0xe c:/program files/microchip/xc32/v4.45/bin/bin/../../lib/gcc/pic32c/8.3.1/../../../../pic32c/lib/thumb/v7e-m+fp/hard\libc-musl.a(__pop_float.o)
 .text          0x0000000000000000        0x0 c:/program files/microchip/xc32/v4.45/bin/bin/../../lib/gcc/pic32c/8.3.1/../../../../pic32c/lib/thumb/v7e-m+fp/hard\libc-musl.a(__pop_int.o)
 .data          0x0000000000000000        0x0 c:/program files/microchip/xc32/v4.45/bin/bin/../../lib/gcc/pic32c/8.3.1/../../../../pic32c/lib/thumb/v7e-m+fp/hard\libc-musl.a(__pop_int.o)
 .bss           0x0000000000000000        0x0 c:/program files/microchip/xc32/v4.45/bin/bin/../../lib/gcc/pic32c/8.3.1/../../../../pic32c/lib/thumb/v7e-m+fp/hard\libc-musl.a(__pop_int.o)
 .xc_stack_usage
                0x0000000000000000       0x17 c:/program files/microchip/xc32/v4.45/bin/bin/../../lib/gcc/pic32c/8.3.1/../../../../pic32c/lib/thumb/v7e-m+fp/hard\libc-musl.a(__pop_int.o)
 .xc_stack_usage.hdr
                0x0000000000000000        0xe c:/program files/microchip/xc32/v4.45/bin/bin/../../lib/gcc/pic32c/8.3.1/../../../../pic32c/lib/thumb/v7e-m+fp/hard\libc-musl.a(__pop_int.o)
 .text          0x0000000000000000        0x0 c:/program files/microchip/xc32/v4.45/bin/bin/../../lib/gcc/pic32c/8.3.1/../../../../pic32c/lib/thumb/v7e-m+fp/hard\libc-musl.a(__pop_ptr.o)
 .data          0x0000000000000000        0x0 c:/program files/microchip/xc32/v4.45/bin/bin/../../lib/gcc/pic32c/8.3.1/../../../../pic32c/lib/thumb/v7e-m+fp/hard\libc-musl.a(__pop_ptr.o)
 .bss           0x0000000000000000        0x0 c:/program files/microchip/xc32/v4.45/bin/bin/../../lib/gcc/pic32c/8.3.1/../../../../pic32c/lib/thumb/v7e-m+fp/hard\libc-musl.a(__pop_ptr.o)
 .xc_stack_usage
                0x0000000000000000       0x17 c:/program files/microchip/xc32/v4.45/bin/bin/../../lib/gcc/pic32c/8.3.1/../../../../pic32c/lib/thumb/v7e-m+fp/hard\libc-musl.a(__pop_ptr.o)
 .xc_stack_usage.hdr
                0x0000000000000000        0xe c:/program files/microchip/xc32/v4.45/bin/bin/../../lib/gcc/pic32c/8.3.1/../../../../pic32c/lib/thumb/v7e-m+fp/hard\libc-musl.a(__pop_ptr.o)
 .text          0x0000000000000000        0x0 c:/program files/microchip/xc32/v4.45/bin/bin/../../lib/gcc/pic32c/8.3.1/../../../../pic32c/lib/thumb/v7e-m+fp/hard\libc-musl.a(__printf_core.o)
 .data          0x0000000000000000        0x0 c:/program files/microchip/xc32/v4.45/bin/bin/../../lib/gcc/pic32c/8.3.1/../../../../pic32c/lib/thumb/v7e-m+fp/hard\libc-musl.a(__printf_core.o)
 .bss           0x0000000000000000        0x0 c:/program files/microchip/xc32/v4.45/bin/bin/../../lib/gcc/pic32c/8.3.1/../../../../pic32c/lib/thumb/v7e-m+fp/hard\libc-musl.a(__printf_core.o)
 .xc_stack_usage
                0x0000000000000000       0xaf c:/program files/microchip/xc32/v4.45/bin/bin/../../lib/gcc/pic32c/8.3.1/../../../../pic32c/lib/thumb/v7e-m+fp/hard\libc-musl.a(__printf_core.o)
 .text.__dummy_fmt3
                0x0000000000000000        0x4 c:/program files/microchip/xc32/v4.45/bin/bin/../../lib/gcc/pic32c/8.3.1/../../../../pic32c/lib/thumb/v7e-m+fp/hard\libc-musl.a(__printf_core.o)
 .text.__dummy_fmt4
                0x0000000000000000        0x4 c:/program files/microchip/xc32/v4.45/bin/bin/../../lib/gcc/pic32c/8.3.1/../../../../pic32c/lib/thumb/v7e-m+fp/hard\libc-musl.a(__printf_core.o)
 .text.__dummy_fmts
                0x0000000000000000        0x4 c:/program files/microchip/xc32/v4.45/bin/bin/../../lib/gcc/pic32c/8.3.1/../../../../pic32c/lib/thumb/v7e-m+fp/hard\libc-musl.a(__printf_core.o)
 .xc_stack_usage.hdr
                0x0000000000000000        0xe c:/program files/microchip/xc32/v4.45/bin/bin/../../lib/gcc/pic32c/8.3.1/../../../../pic32c/lib/thumb/v7e-m+fp/hard\libc-musl.a(__printf_core.o)
 .text          0x0000000000000000        0x0 c:/program files/microchip/xc32/v4.45/bin/bin/../../lib/gcc/pic32c/8.3.1/../../../../pic32c/lib/thumb/v7e-m+fp/hard\libc-musl.a(__stdio_exit.o)
 .data          0x0000000000000000        0x0 c:/program files/microchip/xc32/v4.45/bin/bin/../../lib/gcc/pic32c/8.3.1/../../../../pic32c/lib/thumb/v7e-m+fp/hard\libc-musl.a(__stdio_exit.o)
 .bss           0x0000000000000000        0x4 c:/program files/microchip/xc32/v4.45/bin/bin/../../lib/gcc/pic32c/8.3.1/../../../../pic32c/lib/thumb/v7e-m+fp/hard\libc-musl.a(__stdio_exit.o)
 .xc_stack_usage
                0x0000000000000000       0x45 c:/program files/microchip/xc32/v4.45/bin/bin/../../lib/gcc/pic32c/8.3.1/../../../../pic32c/lib/thumb/v7e-m+fp/hard\libc-musl.a(__stdio_exit.o)
 .text.__dummy  0x0000000000000000        0x2 c:/program files/microchip/xc32/v4.45/bin/bin/../../lib/gcc/pic32c/8.3.1/../../../../pic32c/lib/thumb/v7e-m+fp/hard\libc-musl.a(__stdio_exit.o)
 .text.__dummy1
                0x0000000000000000        0x4 c:/program files/microchip/xc32/v4.45/bin/bin/../../lib/gcc/pic32c/8.3.1/../../../../pic32c/lib/thumb/v7e-m+fp/hard\libc-musl.a(__stdio_exit.o)
 .text.__stdio_exit
                0x0000000000000000       0x34 c:/program files/microchip/xc32/v4.45/bin/bin/../../lib/gcc/pic32c/8.3.1/../../../../pic32c/lib/thumb/v7e-m+fp/hard\libc-musl.a(__stdio_exit.o)
 .xc_stack_usage.hdr
                0x0000000000000000        0xe c:/program files/microchip/xc32/v4.45/bin/bin/../../lib/gcc/pic32c/8.3.1/../../../../pic32c/lib/thumb/v7e-m+fp/hard\libc-musl.a(__stdio_exit.o)
 .debug_info    0x0000000000000000      0x2dd c:/program files/microchip/xc32/v4.45/bin/bin/../../lib/gcc/pic32c/8.3.1/../../../../pic32c/lib/thumb/v7e-m+fp/hard\libc-musl.a(__stdio_exit.o)
 .debug_abbrev  0x0000000000000000      0x173 c:/program files/microchip/xc32/v4.45/bin/bin/../../lib/gcc/pic32c/8.3.1/../../../../pic32c/lib/thumb/v7e-m+fp/hard\libc-musl.a(__stdio_exit.o)
 .debug_loc     0x0000000000000000       0x45 c:/program files/microchip/xc32/v4.45/bin/bin/../../lib/gcc/pic32c/8.3.1/../../../../pic32c/lib/thumb/v7e-m+fp/hard\libc-musl.a(__stdio_exit.o)
 .debug_aranges
                0x0000000000000000       0x30 c:/program files/microchip/xc32/v4.45/bin/bin/../../lib/gcc/pic32c/8.3.1/../../../../pic32c/lib/thumb/v7e-m+fp/hard\libc-musl.a(__stdio_exit.o)
 .debug_ranges  0x0000000000000000       0x20 c:/program files/microchip/xc32/v4.45/bin/bin/../../lib/gcc/pic32c/8.3.1/../../../../pic32c/lib/thumb/v7e-m+fp/hard\libc-musl.a(__stdio_exit.o)
 .debug_line    0x0000000000000000      0x178 c:/program files/microchip/xc32/v4.45/bin/bin/../../lib/gcc/pic32c/8.3.1/../../../../pic32c/lib/thumb/v7e-m+fp/hard\libc-musl.a(__stdio_exit.o)
 .debug_str     0x0000000000000000      0x336 c:/program files/microchip/xc32/v4.45/bin/bin/../../lib/gcc/pic32c/8.3.1/../../../../pic32c/lib/thumb/v7e-m+fp/hard\libc-musl.a(__stdio_exit.o)
 .comment       0x0000000000000000       0x2c c:/program files/microchip/xc32/v4.45/bin/bin/../../lib/gcc/pic32c/8.3.1/../../../../pic32c/lib/thumb/v7e-m+fp/hard\libc-musl.a(__stdio_exit.o)
 .note.GNU-stack
                0x0000000000000000        0x0 c:/program files/microchip/xc32/v4.45/bin/bin/../../lib/gcc/pic32c/8.3.1/../../../../pic32c/lib/thumb/v7e-m+fp/hard\libc-musl.a(__stdio_exit.o)
 .debug_frame   0x0000000000000000       0x48 c:/program files/microchip/xc32/v4.45/bin/bin/../../lib/gcc/pic32c/8.3.1/../../../../pic32c/lib/thumb/v7e-m+fp/hard\libc-musl.a(__stdio_exit.o)
 .ARM.attributes
                0x0000000000000000       0x36 c:/program files/microchip/xc32/v4.45/bin/bin/../../lib/gcc/pic32c/8.3.1/../../../../pic32c/lib/thumb/v7e-m+fp/hard\libc-musl.a(__stdio_exit.o)
 .text          0x0000000000000000        0x0 c:/program files/microchip/xc32/v4.45/bin/bin/../../lib/gcc/pic32c/8.3.1/../../../../pic32c/lib/thumb/v7e-m+fp/hard\libc-musl.a(__fmt_a.o)
 .data          0x0000000000000000        0x0 c:/program files/microchip/xc32/v4.45/bin/bin/../../lib/gcc/pic32c/8.3.1/../../../../pic32c/lib/thumb/v7e-m+fp/hard\libc-musl.a(__fmt_a.o)
 .bss           0x0000000000000000        0x0 c:/program files/microchip/xc32/v4.45/bin/bin/../../lib/gcc/pic32c/8.3.1/../../../../pic32c/lib/thumb/v7e-m+fp/hard\libc-musl.a(__fmt_a.o)
 .xc_stack_usage
                0x0000000000000000       0x15 c:/program files/microchip/xc32/v4.45/bin/bin/../../lib/gcc/pic32c/8.3.1/../../../../pic32c/lib/thumb/v7e-m+fp/hard\libc-musl.a(__fmt_a.o)
 .xc_stack_usage.hdr
                0x0000000000000000        0xe c:/program files/microchip/xc32/v4.45/bin/bin/../../lib/gcc/pic32c/8.3.1/../../../../pic32c/lib/thumb/v7e-m+fp/hard\libc-musl.a(__fmt_a.o)
 .text          0x0000000000000000        0x0 c:/program files/microchip/xc32/v4.45/bin/bin/../../lib/gcc/pic32c/8.3.1/../../../../pic32c/lib/thumb/v7e-m+fp/hard\libc-musl.a(__fmt_d.o)
 .data          0x0000000000000000        0x0 c:/program files/microchip/xc32/v4.45/bin/bin/../../lib/gcc/pic32c/8.3.1/../../../../pic32c/lib/thumb/v7e-m+fp/hard\libc-musl.a(__fmt_d.o)
 .bss           0x0000000000000000        0x0 c:/program files/microchip/xc32/v4.45/bin/bin/../../lib/gcc/pic32c/8.3.1/../../../../pic32c/lib/thumb/v7e-m+fp/hard\libc-musl.a(__fmt_d.o)
 .xc_stack_usage
                0x0000000000000000       0x15 c:/program files/microchip/xc32/v4.45/bin/bin/../../lib/gcc/pic32c/8.3.1/../../../../pic32c/lib/thumb/v7e-m+fp/hard\libc-musl.a(__fmt_d.o)
 .xc_stack_usage.hdr
                0x0000000000000000        0xe c:/program files/microchip/xc32/v4.45/bin/bin/../../lib/gcc/pic32c/8.3.1/../../../../pic32c/lib/thumb/v7e-m+fp/hard\libc-musl.a(__fmt_d.o)
 .text          0x0000000000000000        0x0 c:/program files/microchip/xc32/v4.45/bin/bin/../../lib/gcc/pic32c/8.3.1/../../../../pic32c/lib/thumb/v7e-m+fp/hard\libc-musl.a(__fmt_fp.o)
 .data          0x0000000000000000        0x0 c:/program files/microchip/xc32/v4.45/bin/bin/../../lib/gcc/pic32c/8.3.1/../../../../pic32c/lib/thumb/v7e-m+fp/hard\libc-musl.a(__fmt_fp.o)
 .bss           0x0000000000000000        0x0 c:/program files/microchip/xc32/v4.45/bin/bin/../../lib/gcc/pic32c/8.3.1/../../../../pic32c/lib/thumb/v7e-m+fp/hard\libc-musl.a(__fmt_fp.o)
 .xc_stack_usage
                0x0000000000000000       0x16 c:/program files/microchip/xc32/v4.45/bin/bin/../../lib/gcc/pic32c/8.3.1/../../../../pic32c/lib/thumb/v7e-m+fp/hard\libc-musl.a(__fmt_fp.o)
 .xc_stack_usage.hdr
                0x0000000000000000        0xe c:/program files/microchip/xc32/v4.45/bin/bin/../../lib/gcc/pic32c/8.3.1/../../../../pic32c/lib/thumb/v7e-m+fp/hard\libc-musl.a(__fmt_fp.o)
 .text          0x0000000000000000        0x0 c:/program files/microchip/xc32/v4.45/bin/bin/../../lib/gcc/pic32c/8.3.1/../../../../pic32c/lib/thumb/v7e-m+fp/hard\libc-musl.a(__fmt_o.o)
 .data          0x0000000000000000        0x0 c:/program files/microchip/xc32/v4.45/bin/bin/../../lib/gcc/pic32c/8.3.1/../../../../pic32c/lib/thumb/v7e-m+fp/hard\libc-musl.a(__fmt_o.o)
 .bss           0x0000000000000000        0x0 c:/program files/microchip/xc32/v4.45/bin/bin/../../lib/gcc/pic32c/8.3.1/../../../../pic32c/lib/thumb/v7e-m+fp/hard\libc-musl.a(__fmt_o.o)
 .xc_stack_usage
                0x0000000000000000       0x15 c:/program files/microchip/xc32/v4.45/bin/bin/../../lib/gcc/pic32c/8.3.1/../../../../pic32c/lib/thumb/v7e-m+fp/hard\libc-musl.a(__fmt_o.o)
 .xc_stack_usage.hdr
                0x0000000000000000        0xe c:/program files/microchip/xc32/v4.45/bin/bin/../../lib/gcc/pic32c/8.3.1/../../../../pic32c/lib/thumb/v7e-m+fp/hard\libc-musl.a(__fmt_o.o)
 .text          0x0000000000000000        0x0 c:/program files/microchip/xc32/v4.45/bin/bin/../../lib/gcc/pic32c/8.3.1/../../../../pic32c/lib/thumb/v7e-m+fp/hard\libc-musl.a(__fmt_s.o)
 .data          0x0000000000000000        0x0 c:/program files/microchip/xc32/v4.45/bin/bin/../../lib/gcc/pic32c/8.3.1/../../../../pic32c/lib/thumb/v7e-m+fp/hard\libc-musl.a(__fmt_s.o)
 .bss           0x0000000000000000        0x0 c:/program files/microchip/xc32/v4.45/bin/bin/../../lib/gcc/pic32c/8.3.1/../../../../pic32c/lib/thumb/v7e-m+fp/hard\libc-musl.a(__fmt_s.o)
 .xc_stack_usage
                0x0000000000000000       0x15 c:/program files/microchip/xc32/v4.45/bin/bin/../../lib/gcc/pic32c/8.3.1/../../../../pic32c/lib/thumb/v7e-m+fp/hard\libc-musl.a(__fmt_s.o)
 .xc_stack_usage.hdr
                0x0000000000000000        0xe c:/program files/microchip/xc32/v4.45/bin/bin/../../lib/gcc/pic32c/8.3.1/../../../../pic32c/lib/thumb/v7e-m+fp/hard\libc-musl.a(__fmt_s.o)
 .text          0x0000000000000000        0x0 c:/program files/microchip/xc32/v4.45/bin/bin/../../lib/gcc/pic32c/8.3.1/../../../../pic32c/lib/thumb/v7e-m+fp/hard\libc-musl.a(__fmt_u.o)
 .data          0x0000000000000000        0x0 c:/program files/microchip/xc32/v4.45/bin/bin/../../lib/gcc/pic32c/8.3.1/../../../../pic32c/lib/thumb/v7e-m+fp/hard\libc-musl.a(__fmt_u.o)
 .bss           0x0000000000000000        0x0 c:/program files/microchip/xc32/v4.45/bin/bin/../../lib/gcc/pic32c/8.3.1/../../../../pic32c/lib/thumb/v7e-m+fp/hard\libc-musl.a(__fmt_u.o)
 .xc_stack_usage
                0x0000000000000000       0x15 c:/program files/microchip/xc32/v4.45/bin/bin/../../lib/gcc/pic32c/8.3.1/../../../../pic32c/lib/thumb/v7e-m+fp/hard\libc-musl.a(__fmt_u.o)
 .xc_stack_usage.hdr
                0x0000000000000000        0xe c:/program files/microchip/xc32/v4.45/bin/bin/../../lib/gcc/pic32c/8.3.1/../../../../pic32c/lib/thumb/v7e-m+fp/hard\libc-musl.a(__fmt_u.o)
 .text          0x0000000000000000        0x0 c:/program files/microchip/xc32/v4.45/bin/bin/../../lib/gcc/pic32c/8.3.1/../../../../pic32c/lib/thumb/v7e-m+fp/hard\libc-musl.a(__fmt_x.o)
 .data          0x0000000000000000        0x0 c:/program files/microchip/xc32/v4.45/bin/bin/../../lib/gcc/pic32c/8.3.1/../../../../pic32c/lib/thumb/v7e-m+fp/hard\libc-musl.a(__fmt_x.o)
 .bss           0x0000000000000000        0x0 c:/program files/microchip/xc32/v4.45/bin/bin/../../lib/gcc/pic32c/8.3.1/../../../../pic32c/lib/thumb/v7e-m+fp/hard\libc-musl.a(__fmt_x.o)
 .xc_stack_usage
                0x0000000000000000       0x15 c:/program files/microchip/xc32/v4.45/bin/bin/../../lib/gcc/pic32c/8.3.1/../../../../pic32c/lib/thumb/v7e-m+fp/hard\libc-musl.a(__fmt_x.o)
 .xc_stack_usage.hdr
                0x0000000000000000        0xe c:/program files/microchip/xc32/v4.45/bin/bin/../../lib/gcc/pic32c/8.3.1/../../../../pic32c/lib/thumb/v7e-m+fp/hard\libc-musl.a(__fmt_x.o)
 .text          0x0000000000000000        0x0 c:/program files/microchip/xc32/v4.45/bin/bin/../../lib/gcc/pic32c/8.3.1/../../../../pic32c/lib/thumb/v7e-m+fp/hard\libc-musl.a(__cvt_u.o)
 .data          0x0000000000000000        0x0 c:/program files/microchip/xc32/v4.45/bin/bin/../../lib/gcc/pic32c/8.3.1/../../../../pic32c/lib/thumb/v7e-m+fp/hard\libc-musl.a(__cvt_u.o)
 .bss           0x0000000000000000        0x0 c:/program files/microchip/xc32/v4.45/bin/bin/../../lib/gcc/pic32c/8.3.1/../../../../pic32c/lib/thumb/v7e-m+fp/hard\libc-musl.a(__cvt_u.o)
 .xc_stack_usage
                0x0000000000000000       0x15 c:/program files/microchip/xc32/v4.45/bin/bin/../../lib/gcc/pic32c/8.3.1/../../../../pic32c/lib/thumb/v7e-m+fp/hard\libc-musl.a(__cvt_u.o)
 .xc_stack_usage.hdr
                0x0000000000000000        0xe c:/program files/microchip/xc32/v4.45/bin/bin/../../lib/gcc/pic32c/8.3.1/../../../../pic32c/lib/thumb/v7e-m+fp/hard\libc-musl.a(__cvt_u.o)
 .xc_stack_usage.hdr
                0x0000000000000000        0xe c:/program files/microchip/xc32/v4.45/bin/bin/../../lib/gcc/pic32c/8.3.1/../../../../pic32c/lib/thumb/v7e-m+fp/hard\libm-fast-emfloat.a(fma.o)
 .xc_stack_usage
                0x0000000000000000       0x11 c:/program files/microchip/xc32/v4.45/bin/bin/../../lib/gcc/pic32c/8.3.1/../../../../pic32c/lib/thumb/v7e-m+fp/hard\libm-fast-emfloat.a(fma.o)
 .xc_stack_usage.hdr
                0x0000000000000000        0xe c:/program files/microchip/xc32/v4.45/bin/bin/../../lib/gcc/pic32c/8.3.1/../../../../pic32c/lib/thumb/v7e-m+fp/hard\libm-fast-emfloat.a(floor.o)
 .xc_stack_usage
                0x0000000000000000       0x13 c:/program files/microchip/xc32/v4.45/bin/bin/../../lib/gcc/pic32c/8.3.1/../../../../pic32c/lib/thumb/v7e-m+fp/hard\libm-fast-emfloat.a(floor.o)
 .xc_stack_usage.hdr
                0x0000000000000000        0xe c:/program files/microchip/xc32/v4.45/bin/bin/../../lib/gcc/pic32c/8.3.1/../../../../pic32c/lib/thumb/v7e-m+fp/hard\libm-fast-emfloat.a(__aeabi_dcmple.o)
 .xc_stack_usage
                0x0000000000000000       0x1c c:/program files/microchip/xc32/v4.45/bin/bin/../../lib/gcc/pic32c/8.3.1/../../../../pic32c/lib/thumb/v7e-m+fp/hard\libm-fast-emfloat.a(__aeabi_dcmple.o)
 .xc_stack_usage.hdr
                0x0000000000000000        0xe c:/program files/microchip/xc32/v4.45/bin/bin/../../lib/gcc/pic32c/8.3.1/../../../../pic32c/lib/thumb/v7e-m+fp/hard\libm-fast-emfloat.a(__aeabi_dcmpeq.o)
 .xc_stack_usage
                0x0000000000000000       0x1c c:/program files/microchip/xc32/v4.45/bin/bin/../../lib/gcc/pic32c/8.3.1/../../../../pic32c/lib/thumb/v7e-m+fp/hard\libm-fast-emfloat.a(__aeabi_dcmpeq.o)
 .xc_stack_usage.hdr
                0x0000000000000000        0xe c:/program files/microchip/xc32/v4.45/bin/bin/../../lib/gcc/pic32c/8.3.1/../../../../pic32c/lib/thumb/v7e-m+fp/hard\libm-fast-emfloat.a(__aeabi_dcmplt.o)
 .xc_stack_usage
                0x0000000000000000       0x1c c:/program files/microchip/xc32/v4.45/bin/bin/../../lib/gcc/pic32c/8.3.1/../../../../pic32c/lib/thumb/v7e-m+fp/hard\libm-fast-emfloat.a(__aeabi_dcmplt.o)
 .xc_stack_usage.hdr
                0x0000000000000000        0xe c:/program files/microchip/xc32/v4.45/bin/bin/../../lib/gcc/pic32c/8.3.1/../../../../pic32c/lib/thumb/v7e-m+fp/hard\libm-fast-emfloat.a(__aeabi_d2iz.o)
 .xc_stack_usage
                0x0000000000000000       0x1a c:/program files/microchip/xc32/v4.45/bin/bin/../../lib/gcc/pic32c/8.3.1/../../../../pic32c/lib/thumb/v7e-m+fp/hard\libm-fast-emfloat.a(__aeabi_d2iz.o)
 .text          0x0000000000000000       0xa0 c:/program files/microchip/xc32/v4.45/bin/bin/../../lib/gcc/pic32c/8.3.1/thumb/v7e-m+fp/hard\libgcc.a(_aeabi_ldivmod.o)
 .data          0x0000000000000000        0x0 c:/program files/microchip/xc32/v4.45/bin/bin/../../lib/gcc/pic32c/8.3.1/thumb/v7e-m+fp/hard\libgcc.a(_aeabi_ldivmod.o)
 .bss           0x0000000000000000        0x0 c:/program files/microchip/xc32/v4.45/bin/bin/../../lib/gcc/pic32c/8.3.1/thumb/v7e-m+fp/hard\libgcc.a(_aeabi_ldivmod.o)
 .xc_stack_usage.hdr
                0x0000000000000000        0xe c:/program files/microchip/xc32/v4.45/bin/bin/../../lib/gcc/pic32c/8.3.1/thumb/v7e-m+fp/hard\libgcc.a(_aeabi_ldivmod.o)
 .xc_stack_usage
                0x0000000000000000       0x1d c:/program files/microchip/xc32/v4.45/bin/bin/../../lib/gcc/pic32c/8.3.1/thumb/v7e-m+fp/hard\libgcc.a(_aeabi_ldivmod.o)
 .debug_line    0x0000000000000000       0xaf c:/program files/microchip/xc32/v4.45/bin/bin/../../lib/gcc/pic32c/8.3.1/thumb/v7e-m+fp/hard\libgcc.a(_aeabi_ldivmod.o)
 .debug_info    0x0000000000000000       0x26 c:/program files/microchip/xc32/v4.45/bin/bin/../../lib/gcc/pic32c/8.3.1/thumb/v7e-m+fp/hard\libgcc.a(_aeabi_ldivmod.o)
 .debug_abbrev  0x0000000000000000       0x14 c:/program files/microchip/xc32/v4.45/bin/bin/../../lib/gcc/pic32c/8.3.1/thumb/v7e-m+fp/hard\libgcc.a(_aeabi_ldivmod.o)
 .debug_aranges
                0x0000000000000000       0x20 c:/program files/microchip/xc32/v4.45/bin/bin/../../lib/gcc/pic32c/8.3.1/thumb/v7e-m+fp/hard\libgcc.a(_aeabi_ldivmod.o)
 .debug_str     0x0000000000000000       0xd6 c:/program files/microchip/xc32/v4.45/bin/bin/../../lib/gcc/pic32c/8.3.1/thumb/v7e-m+fp/hard\libgcc.a(_aeabi_ldivmod.o)
 .debug_frame   0x0000000000000000       0x44 c:/program files/microchip/xc32/v4.45/bin/bin/../../lib/gcc/pic32c/8.3.1/thumb/v7e-m+fp/hard\libgcc.a(_aeabi_ldivmod.o)
 .ARM.attributes
                0x0000000000000000       0x1e c:/program files/microchip/xc32/v4.45/bin/bin/../../lib/gcc/pic32c/8.3.1/thumb/v7e-m+fp/hard\libgcc.a(_aeabi_ldivmod.o)
 .data          0x0000000000000000        0x0 c:/program files/microchip/xc32/v4.45/bin/bin/../../lib/gcc/pic32c/8.3.1/thumb/v7e-m+fp/hard\libgcc.a(_aeabi_uldivmod.o)
 .bss           0x0000000000000000        0x0 c:/program files/microchip/xc32/v4.45/bin/bin/../../lib/gcc/pic32c/8.3.1/thumb/v7e-m+fp/hard\libgcc.a(_aeabi_uldivmod.o)
 .xc_stack_usage.hdr
                0x0000000000000000        0xe c:/program files/microchip/xc32/v4.45/bin/bin/../../lib/gcc/pic32c/8.3.1/thumb/v7e-m+fp/hard\libgcc.a(_aeabi_uldivmod.o)
 .xc_stack_usage
                0x0000000000000000       0x1e c:/program files/microchip/xc32/v4.45/bin/bin/../../lib/gcc/pic32c/8.3.1/thumb/v7e-m+fp/hard\libgcc.a(_aeabi_uldivmod.o)
 .data          0x0000000000000000        0x0 c:/program files/microchip/xc32/v4.45/bin/bin/../../lib/gcc/pic32c/8.3.1/thumb/v7e-m+fp/hard\libgcc.a(_udivmoddi4.o)
 .bss           0x0000000000000000        0x0 c:/program files/microchip/xc32/v4.45/bin/bin/../../lib/gcc/pic32c/8.3.1/thumb/v7e-m+fp/hard\libgcc.a(_udivmoddi4.o)
 .xc_stack_usage
                0x0000000000000000       0x1a c:/program files/microchip/xc32/v4.45/bin/bin/../../lib/gcc/pic32c/8.3.1/thumb/v7e-m+fp/hard\libgcc.a(_udivmoddi4.o)
 .ARM.extab     0x0000000000000000        0x0 c:/program files/microchip/xc32/v4.45/bin/bin/../../lib/gcc/pic32c/8.3.1/thumb/v7e-m+fp/hard\libgcc.a(_udivmoddi4.o)
 .xc_stack_usage.hdr
                0x0000000000000000        0xe c:/program files/microchip/xc32/v4.45/bin/bin/../../lib/gcc/pic32c/8.3.1/thumb/v7e-m+fp/hard\libgcc.a(_udivmoddi4.o)
 .data          0x0000000000000000        0x0 c:/program files/microchip/xc32/v4.45/bin/bin/../../lib/gcc/pic32c/8.3.1/thumb/v7e-m+fp/hard\libgcc.a(_dvmd_tls.o)
 .bss           0x0000000000000000        0x0 c:/program files/microchip/xc32/v4.45/bin/bin/../../lib/gcc/pic32c/8.3.1/thumb/v7e-m+fp/hard\libgcc.a(_dvmd_tls.o)
 .xc_stack_usage.hdr
                0x0000000000000000        0xe c:/program files/microchip/xc32/v4.45/bin/bin/../../lib/gcc/pic32c/8.3.1/thumb/v7e-m+fp/hard\libgcc.a(_dvmd_tls.o)
 .xc_stack_usage
                0x0000000000000000       0x36 c:/program files/microchip/xc32/v4.45/bin/bin/../../lib/gcc/pic32c/8.3.1/thumb/v7e-m+fp/hard\libgcc.a(_dvmd_tls.o)
 .text          0x0000000000000000        0x0 c:/program files/microchip/xc32/v4.45/bin/bin/../../lib/gcc/pic32c/8.3.1/../../../../pic32c/lib/thumb/v7e-m+fp/hard\libpic32c.a(sbrk.o)
 .data          0x0000000000000000        0x0 c:/program files/microchip/xc32/v4.45/bin/bin/../../lib/gcc/pic32c/8.3.1/../../../../pic32c/lib/thumb/v7e-m+fp/hard\libpic32c.a(sbrk.o)
 .xc_stack_usage
                0x0000000000000000       0x4d c:/program files/microchip/xc32/v4.45/bin/bin/../../lib/gcc/pic32c/8.3.1/../../../../pic32c/lib/thumb/v7e-m+fp/hard\libpic32c.a(sbrk.o)
 .xc_stack_usage.hdr
                0x0000000000000000        0xe c:/program files/microchip/xc32/v4.45/bin/bin/../../lib/gcc/pic32c/8.3.1/../../../../pic32c/lib/thumb/v7e-m+fp/hard\libpic32c.a(sbrk.o)
 .text          0x0000000000000000        0x0 c:/program files/microchip/xc32/v4.45/bin/bin/../../lib/gcc/pic32c/8.3.1/thumb/v7e-m+fp/hard/crtend.o
 .data          0x0000000000000000        0x0 c:/program files/microchip/xc32/v4.45/bin/bin/../../lib/gcc/pic32c/8.3.1/thumb/v7e-m+fp/hard/crtend.o
 .bss           0x0000000000000000        0x0 c:/program files/microchip/xc32/v4.45/bin/bin/../../lib/gcc/pic32c/8.3.1/thumb/v7e-m+fp/hard/crtend.o
 .eh_frame      0x0000000000000000        0x4 c:/program files/microchip/xc32/v4.45/bin/bin/../../lib/gcc/pic32c/8.3.1/thumb/v7e-m+fp/hard/crtend.o
 .xc_stack_usage.hdr
                0x0000000000000000        0xe c:/program files/microchip/xc32/v4.45/bin/bin/../../lib/gcc/pic32c/8.3.1/thumb/v7e-m+fp/hard/crtend.o
 .comment       0x0000000000000000       0x2c c:/program files/microchip/xc32/v4.45/bin/bin/../../lib/gcc/pic32c/8.3.1/thumb/v7e-m+fp/hard/crtend.o
 .ARM.attributes
                0x0000000000000000       0x32 c:/program files/microchip/xc32/v4.45/bin/bin/../../lib/gcc/pic32c/8.3.1/thumb/v7e-m+fp/hard/crtend.o
 .text          0x0000000000000000        0x0 c:/program files/microchip/xc32/v4.45/bin/bin/../../lib/gcc/pic32c/8.3.1/thumb/v7e-m+fp/hard/crtn.o
 .data          0x0000000000000000        0x0 c:/program files/microchip/xc32/v4.45/bin/bin/../../lib/gcc/pic32c/8.3.1/thumb/v7e-m+fp/hard/crtn.o
 .bss           0x0000000000000000        0x0 c:/program files/microchip/xc32/v4.45/bin/bin/../../lib/gcc/pic32c/8.3.1/thumb/v7e-m+fp/hard/crtn.o
 .xc_stack_usage.hdr
                0x0000000000000000        0xe c:/program files/microchip/xc32/v4.45/bin/bin/../../lib/gcc/pic32c/8.3.1/thumb/v7e-m+fp/hard/crtn.o
 .text          0x0000000000000000        0x0 c:/program files/microchip/xc32/v4.45/bin/bin/../../lib/gcc/pic32c/8.3.1/../../../../pic32c/lib/thumb/v7e-m+fp/hard\libpic32c.a(pic32_data_init_clear.o)
 .data          0x0000000000000000        0x0 c:/program files/microchip/xc32/v4.45/bin/bin/../../lib/gcc/pic32c/8.3.1/../../../../pic32c/lib/thumb/v7e-m+fp/hard\libpic32c.a(pic32_data_init_clear.o)
 .bss           0x0000000000000000        0x0 c:/program files/microchip/xc32/v4.45/bin/bin/../../lib/gcc/pic32c/8.3.1/../../../../pic32c/lib/thumb/v7e-m+fp/hard\libpic32c.a(pic32_data_init_clear.o)
 .xc_stack_usage
                0x0000000000000000       0x1b c:/program files/microchip/xc32/v4.45/bin/bin/../../lib/gcc/pic32c/8.3.1/../../../../pic32c/lib/thumb/v7e-m+fp/hard\libpic32c.a(pic32_data_init_clear.o)
 .xc_stack_usage.hdr
                0x0000000000000000        0xe c:/program files/microchip/xc32/v4.45/bin/bin/../../lib/gcc/pic32c/8.3.1/../../../../pic32c/lib/thumb/v7e-m+fp/hard\libpic32c.a(pic32_data_init_clear.o)
 .text          0x0000000000000000        0x0 c:/program files/microchip/xc32/v4.45/bin/bin/../../lib/gcc/pic32c/8.3.1/../../../../pic32c/lib/thumb/v7e-m+fp/hard\libpic32c.a(pic32_data_init_copy.o)
 .data          0x0000000000000000        0x0 c:/program files/microchip/xc32/v4.45/bin/bin/../../lib/gcc/pic32c/8.3.1/../../../../pic32c/lib/thumb/v7e-m+fp/hard\libpic32c.a(pic32_data_init_copy.o)
 .bss           0x0000000000000000        0x0 c:/program files/microchip/xc32/v4.45/bin/bin/../../lib/gcc/pic32c/8.3.1/../../../../pic32c/lib/thumb/v7e-m+fp/hard\libpic32c.a(pic32_data_init_copy.o)
 .xc_stack_usage
                0x0000000000000000       0x1a c:/program files/microchip/xc32/v4.45/bin/bin/../../lib/gcc/pic32c/8.3.1/../../../../pic32c/lib/thumb/v7e-m+fp/hard\libpic32c.a(pic32_data_init_copy.o)
 .xc_stack_usage.hdr
                0x0000000000000000        0xe c:/program files/microchip/xc32/v4.45/bin/bin/../../lib/gcc/pic32c/8.3.1/../../../../pic32c/lib/thumb/v7e-m+fp/hard\libpic32c.a(pic32_data_init_copy.o)

Memory Configuration

Name             Origin             Length             Attributes
rom              0x0000000000000000 0x0000000000100000 xrl
ram              0x0000000020000000 0x0000000000040000 xw !r
tcm              0x0000000003000000 0x0000000000000000 xw
bkupram          0x0000000047000000 0x0000000000002000
config_00804000  0x0000000000804000 0x0000000000000004
config_00804004  0x0000000000804004 0x0000000000000004
config_00804008  0x0000000000804008 0x0000000000000004
*default*        0x0000000000000000 0xffffffffffffffff

Linker script and memory map

LOAD c:/program files/microchip/xc32/v4.45/bin/bin/../../lib/gcc/pic32c/8.3.1/thumb/v7e-m+fp/hard/crti.o
LOAD c:/program files/microchip/xc32/v4.45/bin/bin/../../lib/gcc/pic32c/8.3.1/thumb/v7e-m+fp/hard/crtbegin.o
LOAD build/FreeRTOS/production/_ext/1609394304/crypto.o
LOAD build/FreeRTOS/production/_ext/1785105562/tc6.o
LOAD build/FreeRTOS/production/_ext/585597058/drv_lan865x_api.o
LOAD build/FreeRTOS/production/_ext/1348046844/drv_spi.o
LOAD build/FreeRTOS/production/_ext/540595297/helpers.o
LOAD build/FreeRTOS/production/_ext/540595297/tcpip_commands.o
LOAD build/FreeRTOS/production/_ext/540595297/tcpip_packet.o
LOAD build/FreeRTOS/production/_ext/540595297/tcpip_helpers.o
LOAD build/FreeRTOS/production/_ext/540595297/tcpip_heap_internal.o
LOAD build/FreeRTOS/production/_ext/540595297/tcpip_notify.o
LOAD build/FreeRTOS/production/_ext/540595297/iperf.o
LOAD build/FreeRTOS/production/_ext/540595297/tcp.o
LOAD build/FreeRTOS/production/_ext/540595297/udp.o
LOAD build/FreeRTOS/production/_ext/540595297/tcpip_manager.o
LOAD build/FreeRTOS/production/_ext/540595297/dhcp.o
LOAD build/FreeRTOS/production/_ext/540595297/tcpip_heap_alloc.o
LOAD build/FreeRTOS/production/_ext/540595297/hash_fnv.o
LOAD build/FreeRTOS/production/_ext/540595297/arp.o
LOAD build/FreeRTOS/production/_ext/540595297/icmp.o
LOAD build/FreeRTOS/production/_ext/540595297/ipv4.o
LOAD build/FreeRTOS/production/_ext/540595297/oahash.o
LOAD build/FreeRTOS/production/_ext/540595297/dns.o
LOAD build/FreeRTOS/production/_ext/891571577/osal_freertos.o
LOAD build/FreeRTOS/production/_ext/892004133/plib_clock.o
LOAD build/FreeRTOS/production/_ext/1495245741/plib_cmcc.o
LOAD build/FreeRTOS/production/_ext/1495216012/plib_dmac.o
LOAD build/FreeRTOS/production/_ext/894153619/plib_evsys.o
LOAD build/FreeRTOS/production/_ext/1494909205/plib_nvic.o
LOAD build/FreeRTOS/production/_ext/320424729/plib_nvmctrl.o
LOAD build/FreeRTOS/production/_ext/1494856054/plib_port.o
LOAD build/FreeRTOS/production/_ext/1428073114/plib_sercom0_spi_master.o
LOAD build/FreeRTOS/production/_ext/2092608928/plib_sercom1_usart.o
LOAD build/FreeRTOS/production/_ext/579449528/plib_tc0.o
LOAD build/FreeRTOS/production/_ext/1872641887/xc32_monitor.o
LOAD build/FreeRTOS/production/_ext/1107142132/sys_cache.o
LOAD build/FreeRTOS/production/_ext/1005353002/sys_command.o
LOAD build/FreeRTOS/production/_ext/548640822/sys_console.o
LOAD build/FreeRTOS/production/_ext/548640822/sys_console_uart.o
LOAD build/FreeRTOS/production/_ext/147610190/sys_debug.o
LOAD build/FreeRTOS/production/_ext/50312702/sys_dma.o
LOAD build/FreeRTOS/production/_ext/1690414130/sys_int.o
LOAD build/FreeRTOS/production/_ext/1093154855/sys_reset.o
LOAD build/FreeRTOS/production/_ext/832704728/sys_time.o
LOAD build/FreeRTOS/production/_ext/2072568807/sys_time_h2_adapter.o
LOAD build/FreeRTOS/production/_ext/2072568807/sys_random_h2_adapter.o
LOAD build/FreeRTOS/production/_ext/161576091/tasks.o
LOAD build/FreeRTOS/production/_ext/161576091/freertos_hooks.o
LOAD build/FreeRTOS/production/_ext/161576091/startup_xc32.o
LOAD build/FreeRTOS/production/_ext/161576091/initialization.o
LOAD build/FreeRTOS/production/_ext/161576091/interrupts.o
LOAD build/FreeRTOS/production/_ext/161576091/libc_syscalls.o
LOAD build/FreeRTOS/production/_ext/161576091/exceptions.o
LOAD build/FreeRTOS/production/_ext/246609638/port.o
LOAD build/FreeRTOS/production/_ext/1665200909/heap_1.o
LOAD build/FreeRTOS/production/_ext/404212886/list.o
LOAD build/FreeRTOS/production/_ext/404212886/FreeRTOS_tasks.o
LOAD build/FreeRTOS/production/_ext/404212886/event_groups.o
LOAD build/FreeRTOS/production/_ext/404212886/stream_buffer.o
LOAD build/FreeRTOS/production/_ext/404212886/timers.o
LOAD build/FreeRTOS/production/_ext/404212886/croutine.o
LOAD build/FreeRTOS/production/_ext/404212886/queue.o
LOAD build/FreeRTOS/production/_ext/172253694/crypt_sha384_sam6156.o
LOAD build/FreeRTOS/production/_ext/172253694/crypt_rng_u2242.o
LOAD build/FreeRTOS/production/_ext/172253694/crypt_aes_u2238.o
LOAD build/FreeRTOS/production/_ext/172253694/crypt_aes_sam6149.o
LOAD build/FreeRTOS/production/_ext/172253694/crypt_sha1_sam11105.o
LOAD build/FreeRTOS/production/_ext/172253694/crypt_rsa_pukcl.o
LOAD build/FreeRTOS/production/_ext/172253694/crypt_tdes_sam6150.o
LOAD build/FreeRTOS/production/_ext/172253694/crypt_wolfcryptcb.o
LOAD build/FreeRTOS/production/_ext/172253694/crypt_sha224_sam11105.o
LOAD build/FreeRTOS/production/_ext/172253694/crypt_ecc_pukcl.o
LOAD build/FreeRTOS/production/_ext/172253694/crypt_sha224_sam6156.o
LOAD build/FreeRTOS/production/_ext/172253694/crypt_sha256_sam11105.o
LOAD build/FreeRTOS/production/_ext/172253694/pic32mz-crypt.o
LOAD build/FreeRTOS/production/_ext/172253694/crypt_sam_u2803.o
LOAD build/FreeRTOS/production/_ext/172253694/crypt_rng_sam6334.o
LOAD build/FreeRTOS/production/_ext/172253694/crypt_sha256_sam6156.o
LOAD build/FreeRTOS/production/_ext/172253694/crypt_ecc_ba414e.o
LOAD build/FreeRTOS/production/_ext/172253694/crypt_sha1_sam6156.o
LOAD build/FreeRTOS/production/_ext/172253694/crypt_sha512_sam6156.o
LOAD build/FreeRTOS/production/_ext/172253694/crypt_pukcl_functions.o
LOAD build/FreeRTOS/production/_ext/1664057780/aes.o
LOAD build/FreeRTOS/production/_ext/1664057780/dsa.o
LOAD build/FreeRTOS/production/_ext/1664057780/wc_dsp.o
LOAD build/FreeRTOS/production/_ext/1664057780/md5.o
LOAD build/FreeRTOS/production/_ext/1664057780/ecc_fp.o
LOAD build/FreeRTOS/production/_ext/1664057780/arc4.o
LOAD build/FreeRTOS/production/_ext/1664057780/md4.o
LOAD build/FreeRTOS/production/_ext/1664057780/curve25519.o
LOAD build/FreeRTOS/production/_ext/1664057780/sha.o
LOAD build/FreeRTOS/production/_ext/1664057780/sp_armthumb.o
LOAD build/FreeRTOS/production/_ext/1664057780/srp.o
LOAD build/FreeRTOS/production/_ext/1664057780/ge_low_mem.o
LOAD build/FreeRTOS/production/_ext/1664057780/rsa.o
LOAD build/FreeRTOS/production/_ext/1664057780/wc_encrypt.o
LOAD build/FreeRTOS/production/_ext/1664057780/coding.o
LOAD build/FreeRTOS/production/_ext/1664057780/fe_operations.o
LOAD build/FreeRTOS/production/_ext/1664057780/md2.o
LOAD build/FreeRTOS/production/_ext/1664057780/fe_448.o
LOAD build/FreeRTOS/production/_ext/1664057780/sha3.o
LOAD build/FreeRTOS/production/_ext/1664057780/compress.o
LOAD build/FreeRTOS/production/_ext/1664057780/sp_c32.o
LOAD build/FreeRTOS/production/_ext/1664057780/curve448.o
LOAD build/FreeRTOS/production/_ext/1664057780/hmac.o
LOAD build/FreeRTOS/production/_ext/1664057780/sp_c64.o
LOAD build/FreeRTOS/production/_ext/1664057780/ed25519.o
LOAD build/FreeRTOS/production/_ext/1664057780/asm.o
LOAD build/FreeRTOS/production/_ext/1664057780/wolfmath.o
LOAD build/FreeRTOS/production/_ext/1664057780/cmac.o
LOAD build/FreeRTOS/production/_ext/1664057780/error.o
LOAD build/FreeRTOS/production/_ext/1664057780/pkcs7.o
LOAD build/FreeRTOS/production/_ext/1664057780/sha256.o
LOAD build/FreeRTOS/production/_ext/1664057780/camellia.o
LOAD build/FreeRTOS/production/_ext/1664057780/ge_448.o
LOAD build/FreeRTOS/production/_ext/1664057780/cpuid.o
LOAD build/FreeRTOS/production/_ext/1664057780/sp_dsp32.o
LOAD build/FreeRTOS/production/_ext/1664057780/rc2.o
LOAD build/FreeRTOS/production/_ext/1664057780/chacha.o
LOAD build/FreeRTOS/production/_ext/1664057780/misc.o
LOAD build/FreeRTOS/production/_ext/1664057780/wolfevent.o
LOAD build/FreeRTOS/production/_ext/1664057780/blake2s.o
LOAD build/FreeRTOS/production/_ext/1664057780/blake2b.o
LOAD build/FreeRTOS/production/_ext/1664057780/logging.o
LOAD build/FreeRTOS/production/_ext/1664057780/pkcs12.o
LOAD build/FreeRTOS/production/_ext/1664057780/des3.o
LOAD build/FreeRTOS/production/_ext/1664057780/sp_arm32.o
LOAD build/FreeRTOS/production/_ext/1664057780/asn.o
LOAD build/FreeRTOS/production/_ext/1664057780/poly1305.o
LOAD build/FreeRTOS/production/_ext/1664057780/sp_cortexm.o
LOAD build/FreeRTOS/production/_ext/1664057780/wc_port.o
LOAD build/FreeRTOS/production/_ext/1664057780/sp_arm64.o
LOAD build/FreeRTOS/production/_ext/1664057780/ge_operations.o
LOAD build/FreeRTOS/production/_ext/1664057780/ed448.o
LOAD build/FreeRTOS/production/_ext/1664057780/ecc.o
LOAD build/FreeRTOS/production/_ext/1664057780/fe_low_mem.o
LOAD build/FreeRTOS/production/_ext/1664057780/chacha20_poly1305.o
LOAD build/FreeRTOS/production/_ext/1664057780/pwdbased.o
LOAD build/FreeRTOS/production/_ext/1664057780/ripemd.o
LOAD build/FreeRTOS/production/_ext/1664057780/memory.o
LOAD build/FreeRTOS/production/_ext/1664057780/sp_int.o
LOAD build/FreeRTOS/production/_ext/1664057780/dh.o
LOAD build/FreeRTOS/production/_ext/1664057780/signature.o
LOAD build/FreeRTOS/production/_ext/1664057780/evp.o
LOAD build/FreeRTOS/production/_ext/1664057780/wc_pkcs11.o
LOAD build/FreeRTOS/production/_ext/1664057780/tfm.o
LOAD build/FreeRTOS/production/_ext/1664057780/random.o
LOAD build/FreeRTOS/production/_ext/1664057780/hash.o
LOAD build/FreeRTOS/production/_ext/1664057780/sha512.o
LOAD build/FreeRTOS/production/_ext/1664057780/cryptocb.o
LOAD build/FreeRTOS/production/_ext/1664057780/sp_x86_64.o
LOAD build/FreeRTOS/production/_ext/1664057780/integer.o
LOAD build/FreeRTOS/production/_ext/1664057780/eccsi.o
LOAD build/FreeRTOS/production/_ext/1664057780/sakke.o
LOAD build/FreeRTOS/production/_ext/1664057780/falcon.o
LOAD build/FreeRTOS/production/_ext/1664057780/kdf.o
LOAD build/FreeRTOS/production/_ext/1664057780/siphash.o
LOAD build/FreeRTOS/production/_ext/1360937237/app.o
LOAD build/FreeRTOS/production/_ext/1360937237/main.o
                0x0000000000000001                __MPLAB_BUILD = 0x1
                0x0000000000100000                __rom_end = (ORIGIN (rom) + LENGTH (rom))
                0x0000000020040000                __ram_end = (ORIGIN (ram) + LENGTH (ram))

.config_00804000
 *(.config_00804000)

.config_00804004
 *(.config_00804004)

.config_00804008
 *(.config_00804008)

.vectors        0x0000000000000000      0x264
                0x0000000000000000                . = ALIGN (0x4)
                0x0000000000000000                _sfixed = .
 *(.vectors .vectors.* .vectors_default .vectors_default.*)
 .vectors.exception_table
                0x0000000000000000      0x264 build/FreeRTOS/production/_ext/161576091/interrupts.o
                0x0000000000000000                exception_table
 *(.isr_vector)
 *(.reset*)
 *(.after_vectors)

.text           0x0000000000000264       0x20
                0x0000000000000264                . = ALIGN (0x4)
 *(.glue_7t)
 .glue_7t       0x0000000000000264        0x0 linker stubs
 *(.glue_7)
 .glue_7        0x0000000000000264        0x0 linker stubs
 *(.gnu.linkonce.r.*)
 *(.ARM.extab* .gnu.linkonce.armextab.*)
                0x0000000000000264                . = ALIGN (0x4)
 *(.init)
 .init          0x0000000000000264        0x4 c:/program files/microchip/xc32/v4.45/bin/bin/../../lib/gcc/pic32c/8.3.1/thumb/v7e-m+fp/hard/crti.o
                0x0000000000000264                _init
 .init          0x0000000000000268        0x8 c:/program files/microchip/xc32/v4.45/bin/bin/../../lib/gcc/pic32c/8.3.1/thumb/v7e-m+fp/hard/crtn.o
                0x0000000000000270                . = ALIGN (0x4)
                0x0000000000000270                __preinit_array_start = .
 *(.preinit_array)
                0x0000000000000270                __preinit_array_end = .
                0x0000000000000270                . = ALIGN (0x4)
                0x0000000000000270                __init_array_start = .
 *(SORT_BY_NAME(.init_array.*))
 *(.init_array)
 .init_array    0x0000000000000270        0x4 c:/program files/microchip/xc32/v4.45/bin/bin/../../lib/gcc/pic32c/8.3.1/thumb/v7e-m+fp/hard/crtbegin.o
                0x0000000000000274                __init_array_end = .
                0x0000000000000274                . = ALIGN (0x4)
 *crtbegin.o(.ctors)
 *(EXCLUDE_FILE(*crtend.o) .ctors)
 *(SORT_BY_NAME(.ctors.*))
 *crtend.o(.ctors)
                0x0000000000000274                . = ALIGN (0x4)
 *(.fini)
 .fini          0x0000000000000274        0x4 c:/program files/microchip/xc32/v4.45/bin/bin/../../lib/gcc/pic32c/8.3.1/thumb/v7e-m+fp/hard/crti.o
                0x0000000000000274                _fini
 .fini          0x0000000000000278        0x8 c:/program files/microchip/xc32/v4.45/bin/bin/../../lib/gcc/pic32c/8.3.1/thumb/v7e-m+fp/hard/crtn.o
                0x0000000000000280                . = ALIGN (0x4)
                0x0000000000000280                __fini_array_start = .
 *(.fini_array)
 .fini_array    0x0000000000000280        0x4 c:/program files/microchip/xc32/v4.45/bin/bin/../../lib/gcc/pic32c/8.3.1/thumb/v7e-m+fp/hard/crtbegin.o
 *(SORT_BY_NAME(.fini_array.*))
                0x0000000000000284                __fini_array_end = .
 *crtbegin.o(.dtors)
 *(EXCLUDE_FILE(*crtend.o) .dtors)
 *(SORT_BY_NAME(.dtors.*))
 *crtend.o(.dtors)
                0x0000000000000284                . = ALIGN (0x4)
                0x0000000000000284                _efixed = .
                [!provide]                        PROVIDE (__exidx_start = .)

.ARM.exidx      0x0000000000000284        0x8
 *(.ARM.exidx* .gnu.linkonce.armexidx.*)
 .ARM.exidx     0x0000000000000284        0x8 c:/program files/microchip/xc32/v4.45/bin/bin/../../lib/gcc/pic32c/8.3.1/thumb/v7e-m+fp/hard\libgcc.a(_udivmoddi4.o)
                [!provide]                        PROVIDE (__exidx_end = .)
                0x000000000000028c                . = ALIGN (0x4)
                0x000000000000028c                _etext = .

.bss            0x0000000020000000        0x0
                0x0000000020000000                . = ALIGN (0x4)
                0x0000000020000000                __bss_start__ = .
                0x0000000020000000                _sbss = .
                0x0000000020000000                _szero = .
 *(COMMON)
                0x0000000020000000                . = ALIGN (0x4)
                0x0000000020000000                __bss_end__ = .
                0x0000000020000000                _ebss = .
                0x0000000020000000                _ezero = .
                0x0000000020000000                . = ALIGN (0x4)
                0x0000000020000000                _end = .
                0x000000002003ffff                _ram_end_ = ((ORIGIN (ram) + LENGTH (ram)) - 0x1)

.bkupram_bss
 *(.bkupram_bss .bkupram_bss.*)
 *(.pbss .pbss.*)
                0x000000000000afa0                _min_heap_size = 0xafa0
START GROUP
LOAD c:/program files/microchip/xc32/v4.45/bin/bin/../../lib/gcc/pic32c/8.3.1/../../../../pic32c/lib/thumb/v7e-m+fp/hard\libpic32c.a
LOAD c:/program files/microchip/xc32/v4.45/bin/bin/../../lib/gcc/pic32c/8.3.1/../../../../pic32c/lib/thumb/v7e-m+fp/hard\libc-size-musl.a
LOAD c:/program files/microchip/xc32/v4.45/bin/bin/../../lib/gcc/pic32c/8.3.1/../../../../pic32c/lib/thumb/v7e-m+fp/hard\liblmalloc-musl.a
LOAD c:/program files/microchip/xc32/v4.45/bin/bin/../../lib/gcc/pic32c/8.3.1/../../../../pic32c/lib/thumb/v7e-m+fp/hard\libm-fast-emfloat.a
LOAD c:/program files/microchip/xc32/v4.45/bin/bin/../../lib/gcc/pic32c/8.3.1/../../../../pic32c/lib/thumb/v7e-m+fp/hard\libm-musl.a
LOAD c:/program files/microchip/xc32/v4.45/bin/bin/../../lib/gcc/pic32c/8.3.1/../../../../pic32c/lib/thumb/v7e-m+fp/hard\libc-musl.a
LOAD c:/program files/microchip/xc32/v4.45/bin/bin/../../lib/gcc/pic32c/8.3.1/../../../../pic32c/lib/thumb/v7e-m+fp/hard\libm-fast-emfloat.a
LOAD c:/program files/microchip/xc32/v4.45/bin/bin/../../lib/gcc/pic32c/8.3.1/../../../../pic32c/lib/thumb/v7e-m+fp/hard\libm-musl.a
LOAD c:/program files/microchip/xc32/v4.45/bin/bin/../../lib/gcc/pic32c/8.3.1/thumb/v7e-m+fp/hard\libgcc.a
END GROUP
LOAD c:/program files/microchip/xc32/v4.45/bin/bin/../../lib/gcc/pic32c/8.3.1/thumb/v7e-m+fp/hard/crtend.o
LOAD c:/program files/microchip/xc32/v4.45/bin/bin/../../lib/gcc/pic32c/8.3.1/thumb/v7e-m+fp/hard/crtn.o
OUTPUT(dist/FreeRTOS/production/tcpip_iperf_10base_t1s_freertos.X.production.elf elf32-littlearm)
LOAD data_init
LOAD stack

.ARM.attributes
                0x0000000000000000       0x32
 .ARM.attributes
                0x0000000000000000       0x1e c:/program files/microchip/xc32/v4.45/bin/bin/../../lib/gcc/pic32c/8.3.1/thumb/v7e-m+fp/hard/crti.o
 .ARM.attributes
                0x000000000000001e       0x34 c:/program files/microchip/xc32/v4.45/bin/bin/../../lib/gcc/pic32c/8.3.1/thumb/v7e-m+fp/hard/crtbegin.o
 .ARM.attributes
                0x0000000000000052       0x34 build/FreeRTOS/production/_ext/1609394304/crypto.o
 .ARM.attributes
                0x0000000000000086       0x34 build/FreeRTOS/production/_ext/1785105562/tc6.o
 .ARM.attributes
                0x00000000000000ba       0x34 build/FreeRTOS/production/_ext/585597058/drv_lan865x_api.o
 .ARM.attributes
                0x00000000000000ee       0x34 build/FreeRTOS/production/_ext/1348046844/drv_spi.o
 .ARM.attributes
                0x0000000000000122       0x34 build/FreeRTOS/production/_ext/540595297/helpers.o
 .ARM.attributes
                0x0000000000000156       0x34 build/FreeRTOS/production/_ext/540595297/tcpip_commands.o
 .ARM.attributes
                0x000000000000018a       0x34 build/FreeRTOS/production/_ext/540595297/tcpip_packet.o
 .ARM.attributes
                0x00000000000001be       0x34 build/FreeRTOS/production/_ext/540595297/tcpip_helpers.o
 .ARM.attributes
                0x00000000000001f2       0x34 build/FreeRTOS/production/_ext/540595297/tcpip_heap_internal.o
 .ARM.attributes
                0x0000000000000226       0x34 build/FreeRTOS/production/_ext/540595297/tcpip_notify.o
 .ARM.attributes
                0x000000000000025a       0x34 build/FreeRTOS/production/_ext/540595297/iperf.o
 .ARM.attributes
                0x000000000000028e       0x34 build/FreeRTOS/production/_ext/540595297/tcp.o
 .ARM.attributes
                0x00000000000002c2       0x34 build/FreeRTOS/production/_ext/540595297/udp.o
 .ARM.attributes
                0x00000000000002f6       0x34 build/FreeRTOS/production/_ext/540595297/tcpip_manager.o
 .ARM.attributes
                0x000000000000032a       0x34 build/FreeRTOS/production/_ext/540595297/tcpip_heap_alloc.o
 .ARM.attributes
                0x000000000000035e       0x34 build/FreeRTOS/production/_ext/540595297/hash_fnv.o
 .ARM.attributes
                0x0000000000000392       0x34 build/FreeRTOS/production/_ext/540595297/arp.o
 .ARM.attributes
                0x00000000000003c6       0x34 build/FreeRTOS/production/_ext/540595297/icmp.o
 .ARM.attributes
                0x00000000000003fa       0x34 build/FreeRTOS/production/_ext/540595297/ipv4.o
 .ARM.attributes
                0x000000000000042e       0x34 build/FreeRTOS/production/_ext/540595297/oahash.o
 .ARM.attributes
                0x0000000000000462       0x34 build/FreeRTOS/production/_ext/540595297/dns.o
 .ARM.attributes
                0x0000000000000496       0x34 build/FreeRTOS/production/_ext/891571577/osal_freertos.o
 .ARM.attributes
                0x00000000000004ca       0x34 build/FreeRTOS/production/_ext/892004133/plib_clock.o
 .ARM.attributes
                0x00000000000004fe       0x34 build/FreeRTOS/production/_ext/1495216012/plib_dmac.o
 .ARM.attributes
                0x0000000000000532       0x34 build/FreeRTOS/production/_ext/894153619/plib_evsys.o
 .ARM.attributes
                0x0000000000000566       0x34 build/FreeRTOS/production/_ext/1494909205/plib_nvic.o
 .ARM.attributes
                0x000000000000059a       0x34 build/FreeRTOS/production/_ext/320424729/plib_nvmctrl.o
 .ARM.attributes
                0x00000000000005ce       0x34 build/FreeRTOS/production/_ext/1494856054/plib_port.o
 .ARM.attributes
                0x0000000000000602       0x34 build/FreeRTOS/production/_ext/1428073114/plib_sercom0_spi_master.o
 .ARM.attributes
                0x0000000000000636       0x34 build/FreeRTOS/production/_ext/2092608928/plib_sercom1_usart.o
 .ARM.attributes
                0x000000000000066a       0x34 build/FreeRTOS/production/_ext/579449528/plib_tc0.o
 .ARM.attributes
                0x000000000000069e       0x34 build/FreeRTOS/production/_ext/1005353002/sys_command.o
 .ARM.attributes
                0x00000000000006d2       0x34 build/FreeRTOS/production/_ext/548640822/sys_console.o
 .ARM.attributes
                0x0000000000000706       0x34 build/FreeRTOS/production/_ext/548640822/sys_console_uart.o
 .ARM.attributes
                0x000000000000073a       0x34 build/FreeRTOS/production/_ext/147610190/sys_debug.o
 .ARM.attributes
                0x000000000000076e       0x34 build/FreeRTOS/production/_ext/50312702/sys_dma.o
 .ARM.attributes
                0x00000000000007a2       0x34 build/FreeRTOS/production/_ext/1690414130/sys_int.o
 .ARM.attributes
                0x00000000000007d6       0x34 build/FreeRTOS/production/_ext/1093154855/sys_reset.o
 .ARM.attributes
                0x000000000000080a       0x34 build/FreeRTOS/production/_ext/832704728/sys_time.o
 .ARM.attributes
                0x000000000000083e       0x34 build/FreeRTOS/production/_ext/2072568807/sys_time_h2_adapter.o
 .ARM.attributes
                0x0000000000000872       0x34 build/FreeRTOS/production/_ext/2072568807/sys_random_h2_adapter.o
 .ARM.attributes
                0x00000000000008a6       0x34 build/FreeRTOS/production/_ext/161576091/tasks.o
 .ARM.attributes
                0x00000000000008da       0x34 build/FreeRTOS/production/_ext/161576091/freertos_hooks.o
 .ARM.attributes
                0x000000000000090e       0x34 build/FreeRTOS/production/_ext/161576091/startup_xc32.o
 .ARM.attributes
                0x0000000000000942       0x34 build/FreeRTOS/production/_ext/161576091/initialization.o
 .ARM.attributes
                0x0000000000000976       0x34 build/FreeRTOS/production/_ext/161576091/interrupts.o
 .ARM.attributes
                0x00000000000009aa       0x34 build/FreeRTOS/production/_ext/161576091/exceptions.o
 .ARM.attributes
                0x00000000000009de       0x34 build/FreeRTOS/production/_ext/246609638/port.o
 .ARM.attributes
                0x0000000000000a12       0x34 build/FreeRTOS/production/_ext/1665200909/heap_1.o
 .ARM.attributes
                0x0000000000000a46       0x34 build/FreeRTOS/production/_ext/404212886/list.o
 .ARM.attributes
                0x0000000000000a7a       0x34 build/FreeRTOS/production/_ext/404212886/FreeRTOS_tasks.o
 .ARM.attributes
                0x0000000000000aae       0x34 build/FreeRTOS/production/_ext/404212886/queue.o
 .ARM.attributes
                0x0000000000000ae2       0x34 build/FreeRTOS/production/_ext/172253694/crypt_wolfcryptcb.o
 .ARM.attributes
                0x0000000000000b16       0x34 build/FreeRTOS/production/_ext/1664057780/md5.o
 .ARM.attributes
                0x0000000000000b4a       0x34 build/FreeRTOS/production/_ext/1664057780/sha256.o
 .ARM.attributes
                0x0000000000000b7e       0x34 build/FreeRTOS/production/_ext/1664057780/random.o
 .ARM.attributes
                0x0000000000000bb2       0x34 build/FreeRTOS/production/_ext/1664057780/cryptocb.o
 .ARM.attributes
                0x0000000000000be6       0x34 build/FreeRTOS/production/_ext/1360937237/app.o
 .ARM.attributes
                0x0000000000000c1a       0x34 build/FreeRTOS/production/_ext/1360937237/main.o
 .ARM.attributes
                0x0000000000000c4e       0x34 c:/program files/microchip/xc32/v4.45/bin/bin/../../lib/gcc/pic32c/8.3.1/../../../../pic32c/lib/thumb/v7e-m+fp/hard\libpic32c.a(data_init.o)
 .ARM.attributes
                0x0000000000000c82       0x36 c:/program files/microchip/xc32/v4.45/bin/bin/../../lib/gcc/pic32c/8.3.1/../../../../pic32c/lib/thumb/v7e-m+fp/hard\libc-size-musl.a(memcmp.o)
 .ARM.attributes
                0x0000000000000cb8       0x36 c:/program files/microchip/xc32/v4.45/bin/bin/../../lib/gcc/pic32c/8.3.1/../../../../pic32c/lib/thumb/v7e-m+fp/hard\libc-size-musl.a(memcpy.o)
 .ARM.attributes
                0x0000000000000cee       0x36 c:/program files/microchip/xc32/v4.45/bin/bin/../../lib/gcc/pic32c/8.3.1/../../../../pic32c/lib/thumb/v7e-m+fp/hard\libc-size-musl.a(memset.o)
 .ARM.attributes
                0x0000000000000d24       0x36 c:/program files/microchip/xc32/v4.45/bin/bin/../../lib/gcc/pic32c/8.3.1/../../../../pic32c/lib/thumb/v7e-m+fp/hard\libc-size-musl.a(strlen.o)
 .ARM.attributes
                0x0000000000000d5a       0x36 c:/program files/microchip/xc32/v4.45/bin/bin/../../lib/gcc/pic32c/8.3.1/../../../../pic32c/lib/thumb/v7e-m+fp/hard\libc-size-musl.a(strchr.o)
 .ARM.attributes
                0x0000000000000d90       0x36 c:/program files/microchip/xc32/v4.45/bin/bin/../../lib/gcc/pic32c/8.3.1/../../../../pic32c/lib/thumb/v7e-m+fp/hard\libc-size-musl.a(strchrnul.o)
 .ARM.attributes
                0x0000000000000dc6       0x36 c:/program files/microchip/xc32/v4.45/bin/bin/../../lib/gcc/pic32c/8.3.1/../../../../pic32c/lib/thumb/v7e-m+fp/hard\libc-size-musl.a(strcmp.o)
 .ARM.attributes
                0x0000000000000dfc       0x36 c:/program files/microchip/xc32/v4.45/bin/bin/../../lib/gcc/pic32c/8.3.1/../../../../pic32c/lib/thumb/v7e-m+fp/hard\libc-size-musl.a(strcpy.o)
 .ARM.attributes
                0x0000000000000e32       0x36 c:/program files/microchip/xc32/v4.45/bin/bin/../../lib/gcc/pic32c/8.3.1/../../../../pic32c/lib/thumb/v7e-m+fp/hard\libc-size-musl.a(strncmp.o)
 .ARM.attributes
                0x0000000000000e68       0x36 c:/program files/microchip/xc32/v4.45/bin/bin/../../lib/gcc/pic32c/8.3.1/../../../../pic32c/lib/thumb/v7e-m+fp/hard\libc-size-musl.a(strncpy.o)
 .ARM.attributes
                0x0000000000000e9e       0x36 c:/program files/microchip/xc32/v4.45/bin/bin/../../lib/gcc/pic32c/8.3.1/../../../../pic32c/lib/thumb/v7e-m+fp/hard\libc-size-musl.a(strrchr.o)
 .ARM.attributes
                0x0000000000000ed4       0x36 c:/program files/microchip/xc32/v4.45/bin/bin/../../lib/gcc/pic32c/8.3.1/../../../../pic32c/lib/thumb/v7e-m+fp/hard\libc-size-musl.a(strtok.o)
 .ARM.attributes
                0x0000000000000f0a       0x36 c:/program files/microchip/xc32/v4.45/bin/bin/../../lib/gcc/pic32c/8.3.1/../../../../pic32c/lib/thumb/v7e-m+fp/hard\libc-size-musl.a(memrchr.o)
 .ARM.attributes
                0x0000000000000f40       0x36 c:/program files/microchip/xc32/v4.45/bin/bin/../../lib/gcc/pic32c/8.3.1/../../../../pic32c/lib/thumb/v7e-m+fp/hard\libc-size-musl.a(stpcpy.o)
 .ARM.attributes
                0x0000000000000f76       0x36 c:/program files/microchip/xc32/v4.45/bin/bin/../../lib/gcc/pic32c/8.3.1/../../../../pic32c/lib/thumb/v7e-m+fp/hard\libc-size-musl.a(stpncpy.o)
 .ARM.attributes
                0x0000000000000fac       0x36 c:/program files/microchip/xc32/v4.45/bin/bin/../../lib/gcc/pic32c/8.3.1/../../../../pic32c/lib/thumb/v7e-m+fp/hard\libc-size-musl.a(strcspn.o)
 .ARM.attributes
                0x0000000000000fe2       0x36 c:/program files/microchip/xc32/v4.45/bin/bin/../../lib/gcc/pic32c/8.3.1/../../../../pic32c/lib/thumb/v7e-m+fp/hard\libc-size-musl.a(strspn.o)
 .ARM.attributes
                0x0000000000001018       0x36 c:/program files/microchip/xc32/v4.45/bin/bin/../../lib/gcc/pic32c/8.3.1/../../../../pic32c/lib/thumb/v7e-m+fp/hard\liblmalloc-musl.a(lite_free.o)
 .ARM.attributes
                0x000000000000104e       0x36 c:/program files/microchip/xc32/v4.45/bin/bin/../../lib/gcc/pic32c/8.3.1/../../../../pic32c/lib/thumb/v7e-m+fp/hard\liblmalloc-musl.a(lite_malloc.o)
 .ARM.attributes
                0x0000000000001084       0x20 c:/program files/microchip/xc32/v4.45/bin/bin/../../lib/gcc/pic32c/8.3.1/../../../../pic32c/lib/thumb/v7e-m+fp/hard\libm-fast-emfloat.a(__aeabi_dadd.o)
 .ARM.attributes
                0x00000000000010a4       0x20 c:/program files/microchip/xc32/v4.45/bin/bin/../../lib/gcc/pic32c/8.3.1/../../../../pic32c/lib/thumb/v7e-m+fp/hard\libm-fast-emfloat.a(__aeabi_dsub.o)
 .ARM.attributes
                0x00000000000010c4       0x20 c:/program files/microchip/xc32/v4.45/bin/bin/../../lib/gcc/pic32c/8.3.1/../../../../pic32c/lib/thumb/v7e-m+fp/hard\libm-fast-emfloat.a(__aeabi_dmul.o)
 .ARM.attributes
                0x00000000000010e4       0x20 c:/program files/microchip/xc32/v4.45/bin/bin/../../lib/gcc/pic32c/8.3.1/../../../../pic32c/lib/thumb/v7e-m+fp/hard\libm-fast-emfloat.a(__aeabi_ddiv.o)
 .ARM.attributes
                0x0000000000001104       0x20 c:/program files/microchip/xc32/v4.45/bin/bin/../../lib/gcc/pic32c/8.3.1/../../../../pic32c/lib/thumb/v7e-m+fp/hard\libm-fast-emfloat.a(__aeabi_dcmpgt.o)
 .ARM.attributes
                0x0000000000001124       0x20 c:/program files/microchip/xc32/v4.45/bin/bin/../../lib/gcc/pic32c/8.3.1/../../../../pic32c/lib/thumb/v7e-m+fp/hard\libm-fast-emfloat.a(__aeabi_d2uiz.o)
 .ARM.attributes
                0x0000000000001144       0x20 c:/program files/microchip/xc32/v4.45/bin/bin/../../lib/gcc/pic32c/8.3.1/../../../../pic32c/lib/thumb/v7e-m+fp/hard\libm-fast-emfloat.a(__aeabi_i2d.o)
 .ARM.attributes
                0x0000000000001164       0x20 c:/program files/microchip/xc32/v4.45/bin/bin/../../lib/gcc/pic32c/8.3.1/../../../../pic32c/lib/thumb/v7e-m+fp/hard\libm-fast-emfloat.a(__aeabi_ui2d.o)
 .ARM.attributes
                0x0000000000001184       0x36 c:/program files/microchip/xc32/v4.45/bin/bin/../../lib/gcc/pic32c/8.3.1/../../../../pic32c/lib/thumb/v7e-m+fp/hard\libc-musl.a(isxdigit.o)
 .ARM.attributes
                0x00000000000011ba       0x36 c:/program files/microchip/xc32/v4.45/bin/bin/../../lib/gcc/pic32c/8.3.1/../../../../pic32c/lib/thumb/v7e-m+fp/hard\libc-musl.a(tolower.o)
 .ARM.attributes
                0x00000000000011f0       0x36 c:/program files/microchip/xc32/v4.45/bin/bin/../../lib/gcc/pic32c/8.3.1/../../../../pic32c/lib/thumb/v7e-m+fp/hard\libc-musl.a(toupper.o)
 .ARM.attributes
                0x0000000000001226       0x36 c:/program files/microchip/xc32/v4.45/bin/bin/../../lib/gcc/pic32c/8.3.1/../../../../pic32c/lib/thumb/v7e-m+fp/hard\libc-musl.a(__libc_start_main.o)
 .ARM.attributes
                0x000000000000125c       0x34 c:/program files/microchip/xc32/v4.45/bin/bin/../../lib/gcc/pic32c/8.3.1/../../../../pic32c/lib/thumb/v7e-m+fp/hard\libc-musl.a(__errno_location.o)
 .ARM.attributes
                0x0000000000001290       0x34 c:/program files/microchip/xc32/v4.45/bin/bin/../../lib/gcc/pic32c/8.3.1/../../../../pic32c/lib/thumb/v7e-m+fp/hard\libc-musl.a(libc.o)
 .ARM.attributes
                0x00000000000012c4       0x36 c:/program files/microchip/xc32/v4.45/bin/bin/../../lib/gcc/pic32c/8.3.1/../../../../pic32c/lib/thumb/v7e-m+fp/hard\libc-musl.a(expand_heap.o)
 .ARM.attributes
                0x00000000000012fa       0x36 c:/program files/microchip/xc32/v4.45/bin/bin/../../lib/gcc/pic32c/8.3.1/../../../../pic32c/lib/thumb/v7e-m+fp/hard\libc-musl.a(rand.o)
 .ARM.attributes
                0x0000000000001330       0x36 c:/program files/microchip/xc32/v4.45/bin/bin/../../lib/gcc/pic32c/8.3.1/../../../../pic32c/lib/thumb/v7e-m+fp/hard\libc-musl.a(vsnprintf.o)
 .ARM.attributes
                0x0000000000001366       0x36 c:/program files/microchip/xc32/v4.45/bin/bin/../../lib/gcc/pic32c/8.3.1/../../../../pic32c/lib/thumb/v7e-m+fp/hard\libc-musl.a(snprintf.o)
 .ARM.attributes
                0x000000000000139c       0x36 c:/program files/microchip/xc32/v4.45/bin/bin/../../lib/gcc/pic32c/8.3.1/../../../../pic32c/lib/thumb/v7e-m+fp/hard\libc-musl.a(sprintf.o)
 .ARM.attributes
                0x00000000000013d2       0x36 c:/program files/microchip/xc32/v4.45/bin/bin/../../lib/gcc/pic32c/8.3.1/../../../../pic32c/lib/thumb/v7e-m+fp/hard\libc-musl.a(vsprintf.o)
 .ARM.attributes
                0x0000000000001408       0x36 c:/program files/microchip/xc32/v4.45/bin/bin/../../lib/gcc/pic32c/8.3.1/../../../../pic32c/lib/thumb/v7e-m+fp/hard\libc-musl.a(atoi.o)
 .ARM.attributes
                0x000000000000143e       0x36 c:/program files/microchip/xc32/v4.45/bin/bin/../../lib/gcc/pic32c/8.3.1/../../../../pic32c/lib/thumb/v7e-m+fp/hard\libc-musl.a(strtol.o)
 .ARM.attributes
                0x0000000000001474       0x34 c:/program files/microchip/xc32/v4.45/bin/bin/../../lib/gcc/pic32c/8.3.1/../../../../pic32c/lib/thumb/v7e-m+fp/hard\libc-musl.a(__environ.o)
 .ARM.attributes
                0x00000000000014a8       0x36 c:/program files/microchip/xc32/v4.45/bin/bin/../../lib/gcc/pic32c/8.3.1/../../../../pic32c/lib/thumb/v7e-m+fp/hard\libc-musl.a(intscan.o)
 .ARM.attributes
                0x00000000000014de       0x36 c:/program files/microchip/xc32/v4.45/bin/bin/../../lib/gcc/pic32c/8.3.1/../../../../pic32c/lib/thumb/v7e-m+fp/hard\libc-musl.a(shgetc.o)
 .ARM.attributes
                0x0000000000001514       0x36 c:/program files/microchip/xc32/v4.45/bin/bin/../../lib/gcc/pic32c/8.3.1/../../../../pic32c/lib/thumb/v7e-m+fp/hard\libc-musl.a(__uflow.o)
 .ARM.attributes
                0x000000000000154a       0x36 c:/program files/microchip/xc32/v4.45/bin/bin/../../lib/gcc/pic32c/8.3.1/../../../../pic32c/lib/thumb/v7e-m+fp/hard\libc-musl.a(vfprintf.o)
 .ARM.attributes
                0x0000000000001580       0x36 c:/program files/microchip/xc32/v4.45/bin/bin/../../lib/gcc/pic32c/8.3.1/../../../../pic32c/lib/thumb/v7e-m+fp/hard\libc-musl.a(__toread.o)
 .ARM.attributes
                0x00000000000015b6       0x36 c:/program files/microchip/xc32/v4.45/bin/bin/../../lib/gcc/pic32c/8.3.1/../../../../pic32c/lib/thumb/v7e-m+fp/hard\libc-musl.a(__pop_float.o)
 .ARM.attributes
                0x00000000000015ec       0x36 c:/program files/microchip/xc32/v4.45/bin/bin/../../lib/gcc/pic32c/8.3.1/../../../../pic32c/lib/thumb/v7e-m+fp/hard\libc-musl.a(__pop_int.o)
 .ARM.attributes
                0x0000000000001622       0x36 c:/program files/microchip/xc32/v4.45/bin/bin/../../lib/gcc/pic32c/8.3.1/../../../../pic32c/lib/thumb/v7e-m+fp/hard\libc-musl.a(__pop_ptr.o)
 .ARM.attributes
                0x0000000000001658       0x36 c:/program files/microchip/xc32/v4.45/bin/bin/../../lib/gcc/pic32c/8.3.1/../../../../pic32c/lib/thumb/v7e-m+fp/hard\libc-musl.a(__printf_core.o)
 .ARM.attributes
                0x000000000000168e       0x36 c:/program files/microchip/xc32/v4.45/bin/bin/../../lib/gcc/pic32c/8.3.1/../../../../pic32c/lib/thumb/v7e-m+fp/hard\libc-musl.a(__fmt_a.o)
 .ARM.attributes
                0x00000000000016c4       0x36 c:/program files/microchip/xc32/v4.45/bin/bin/../../lib/gcc/pic32c/8.3.1/../../../../pic32c/lib/thumb/v7e-m+fp/hard\libc-musl.a(__fmt_d.o)
 .ARM.attributes
                0x00000000000016fa       0x36 c:/program files/microchip/xc32/v4.45/bin/bin/../../lib/gcc/pic32c/8.3.1/../../../../pic32c/lib/thumb/v7e-m+fp/hard\libc-musl.a(__fmt_fp.o)
 .ARM.attributes
                0x0000000000001730       0x36 c:/program files/microchip/xc32/v4.45/bin/bin/../../lib/gcc/pic32c/8.3.1/../../../../pic32c/lib/thumb/v7e-m+fp/hard\libc-musl.a(__fmt_o.o)
 .ARM.attributes
                0x0000000000001766       0x36 c:/program files/microchip/xc32/v4.45/bin/bin/../../lib/gcc/pic32c/8.3.1/../../../../pic32c/lib/thumb/v7e-m+fp/hard\libc-musl.a(__fmt_s.o)
 .ARM.attributes
                0x000000000000179c       0x36 c:/program files/microchip/xc32/v4.45/bin/bin/../../lib/gcc/pic32c/8.3.1/../../../../pic32c/lib/thumb/v7e-m+fp/hard\libc-musl.a(__fmt_u.o)
 .ARM.attributes
                0x00000000000017d2       0x36 c:/program files/microchip/xc32/v4.45/bin/bin/../../lib/gcc/pic32c/8.3.1/../../../../pic32c/lib/thumb/v7e-m+fp/hard\libc-musl.a(__fmt_x.o)
 .ARM.attributes
                0x0000000000001808       0x36 c:/program files/microchip/xc32/v4.45/bin/bin/../../lib/gcc/pic32c/8.3.1/../../../../pic32c/lib/thumb/v7e-m+fp/hard\libc-musl.a(__cvt_u.o)
 .ARM.attributes
                0x000000000000183e       0x34 c:/program files/microchip/xc32/v4.45/bin/bin/../../lib/gcc/pic32c/8.3.1/../../../../pic32c/lib/thumb/v7e-m+fp/hard\libm-fast-emfloat.a(fma.o)
 .ARM.attributes
                0x0000000000001872       0x34 c:/program files/microchip/xc32/v4.45/bin/bin/../../lib/gcc/pic32c/8.3.1/../../../../pic32c/lib/thumb/v7e-m+fp/hard\libm-fast-emfloat.a(floor.o)
 .ARM.attributes
                0x00000000000018a6       0x20 c:/program files/microchip/xc32/v4.45/bin/bin/../../lib/gcc/pic32c/8.3.1/../../../../pic32c/lib/thumb/v7e-m+fp/hard\libm-fast-emfloat.a(__aeabi_dcmple.o)
 .ARM.attributes
                0x00000000000018c6       0x20 c:/program files/microchip/xc32/v4.45/bin/bin/../../lib/gcc/pic32c/8.3.1/../../../../pic32c/lib/thumb/v7e-m+fp/hard\libm-fast-emfloat.a(__aeabi_dcmpeq.o)
 .ARM.attributes
                0x00000000000018e6       0x20 c:/program files/microchip/xc32/v4.45/bin/bin/../../lib/gcc/pic32c/8.3.1/../../../../pic32c/lib/thumb/v7e-m+fp/hard\libm-fast-emfloat.a(__aeabi_dcmplt.o)
 .ARM.attributes
                0x0000000000001906       0x20 c:/program files/microchip/xc32/v4.45/bin/bin/../../lib/gcc/pic32c/8.3.1/../../../../pic32c/lib/thumb/v7e-m+fp/hard\libm-fast-emfloat.a(__aeabi_d2iz.o)
 .ARM.attributes
                0x0000000000001926       0x1e c:/program files/microchip/xc32/v4.45/bin/bin/../../lib/gcc/pic32c/8.3.1/thumb/v7e-m+fp/hard\libgcc.a(_aeabi_uldivmod.o)
 .ARM.attributes
                0x0000000000001944       0x34 c:/program files/microchip/xc32/v4.45/bin/bin/../../lib/gcc/pic32c/8.3.1/thumb/v7e-m+fp/hard\libgcc.a(_udivmoddi4.o)
 .ARM.attributes
                0x0000000000001978       0x1e c:/program files/microchip/xc32/v4.45/bin/bin/../../lib/gcc/pic32c/8.3.1/thumb/v7e-m+fp/hard\libgcc.a(_dvmd_tls.o)
 .ARM.attributes
                0x0000000000001996       0x34 c:/program files/microchip/xc32/v4.45/bin/bin/../../lib/gcc/pic32c/8.3.1/../../../../pic32c/lib/thumb/v7e-m+fp/hard\libpic32c.a(sbrk.o)
 .ARM.attributes
                0x00000000000019ca       0x1e c:/program files/microchip/xc32/v4.45/bin/bin/../../lib/gcc/pic32c/8.3.1/thumb/v7e-m+fp/hard/crtn.o
 .ARM.attributes
                0x00000000000019e8       0x34 c:/program files/microchip/xc32/v4.45/bin/bin/../../lib/gcc/pic32c/8.3.1/../../../../pic32c/lib/thumb/v7e-m+fp/hard\libpic32c.a(pic32_data_init_clear.o)
 .ARM.attributes
                0x0000000000001a1c       0x34 c:/program files/microchip/xc32/v4.45/bin/bin/../../lib/gcc/pic32c/8.3.1/../../../../pic32c/lib/thumb/v7e-m+fp/hard\libpic32c.a(pic32_data_init_copy.o)

.comment        0x0000000000000000       0x2b
 .comment       0x0000000000000000       0x2b c:/program files/microchip/xc32/v4.45/bin/bin/../../lib/gcc/pic32c/8.3.1/thumb/v7e-m+fp/hard/crtbegin.o
                                         0x2c (size before relaxing)
 .comment       0x000000000000002b       0x2c build/FreeRTOS/production/_ext/1609394304/crypto.o
 .comment       0x000000000000002b       0x2c build/FreeRTOS/production/_ext/1785105562/tc6.o
 .comment       0x000000000000002b       0x2c build/FreeRTOS/production/_ext/585597058/drv_lan865x_api.o
 .comment       0x000000000000002b       0x2c build/FreeRTOS/production/_ext/1348046844/drv_spi.o
 .comment       0x000000000000002b       0x2c build/FreeRTOS/production/_ext/540595297/helpers.o
 .comment       0x000000000000002b       0x2c build/FreeRTOS/production/_ext/540595297/tcpip_commands.o
 .comment       0x000000000000002b       0x2c build/FreeRTOS/production/_ext/540595297/tcpip_packet.o
 .comment       0x000000000000002b       0x2c build/FreeRTOS/production/_ext/540595297/tcpip_helpers.o
 .comment       0x000000000000002b       0x2c build/FreeRTOS/production/_ext/540595297/tcpip_heap_internal.o
 .comment       0x000000000000002b       0x2c build/FreeRTOS/production/_ext/540595297/tcpip_notify.o
 .comment       0x000000000000002b       0x2c build/FreeRTOS/production/_ext/540595297/iperf.o
 .comment       0x000000000000002b       0x2c build/FreeRTOS/production/_ext/540595297/tcp.o
 .comment       0x000000000000002b       0x2c build/FreeRTOS/production/_ext/540595297/udp.o
 .comment       0x000000000000002b       0x2c build/FreeRTOS/production/_ext/540595297/tcpip_manager.o
 .comment       0x000000000000002b       0x2c build/FreeRTOS/production/_ext/540595297/tcpip_heap_alloc.o
 .comment       0x000000000000002b       0x2c build/FreeRTOS/production/_ext/540595297/hash_fnv.o
 .comment       0x000000000000002b       0x2c build/FreeRTOS/production/_ext/540595297/arp.o
 .comment       0x000000000000002b       0x2c build/FreeRTOS/production/_ext/540595297/icmp.o
 .comment       0x000000000000002b       0x2c build/FreeRTOS/production/_ext/540595297/ipv4.o
 .comment       0x000000000000002b       0x2c build/FreeRTOS/production/_ext/540595297/oahash.o
 .comment       0x000000000000002b       0x2c build/FreeRTOS/production/_ext/540595297/dns.o
 .comment       0x000000000000002b       0x2c build/FreeRTOS/production/_ext/891571577/osal_freertos.o
 .comment       0x000000000000002b       0x2c build/FreeRTOS/production/_ext/892004133/plib_clock.o
 .comment       0x000000000000002b       0x2c build/FreeRTOS/production/_ext/1495216012/plib_dmac.o
 .comment       0x000000000000002b       0x2c build/FreeRTOS/production/_ext/894153619/plib_evsys.o
 .comment       0x000000000000002b       0x2c build/FreeRTOS/production/_ext/1494909205/plib_nvic.o
 .comment       0x000000000000002b       0x2c build/FreeRTOS/production/_ext/320424729/plib_nvmctrl.o
 .comment       0x000000000000002b       0x2c build/FreeRTOS/production/_ext/1494856054/plib_port.o
 .comment       0x000000000000002b       0x2c build/FreeRTOS/production/_ext/1428073114/plib_sercom0_spi_master.o
 .comment       0x000000000000002b       0x2c build/FreeRTOS/production/_ext/2092608928/plib_sercom1_usart.o
 .comment       0x000000000000002b       0x2c build/FreeRTOS/production/_ext/579449528/plib_tc0.o
 .comment       0x000000000000002b       0x2c build/FreeRTOS/production/_ext/1005353002/sys_command.o
 .comment       0x000000000000002b       0x2c build/FreeRTOS/production/_ext/548640822/sys_console.o
 .comment       0x000000000000002b       0x2c build/FreeRTOS/production/_ext/548640822/sys_console_uart.o
 .comment       0x000000000000002b       0x2c build/FreeRTOS/production/_ext/147610190/sys_debug.o
 .comment       0x000000000000002b       0x2c build/FreeRTOS/production/_ext/50312702/sys_dma.o
 .comment       0x000000000000002b       0x2c build/FreeRTOS/production/_ext/1690414130/sys_int.o
 .comment       0x000000000000002b       0x2c build/FreeRTOS/production/_ext/1093154855/sys_reset.o
 .comment       0x000000000000002b       0x2c build/FreeRTOS/production/_ext/832704728/sys_time.o
 .comment       0x000000000000002b       0x2c build/FreeRTOS/production/_ext/2072568807/sys_time_h2_adapter.o
 .comment       0x000000000000002b       0x2c build/FreeRTOS/production/_ext/2072568807/sys_random_h2_adapter.o
 .comment       0x000000000000002b       0x2c build/FreeRTOS/production/_ext/161576091/tasks.o
 .comment       0x000000000000002b       0x2c build/FreeRTOS/production/_ext/161576091/freertos_hooks.o
 .comment       0x000000000000002b       0x2c build/FreeRTOS/production/_ext/161576091/startup_xc32.o
 .comment       0x000000000000002b       0x2c build/FreeRTOS/production/_ext/161576091/initialization.o
 .comment       0x000000000000002b       0x2c build/FreeRTOS/production/_ext/161576091/interrupts.o
 .comment       0x000000000000002b       0x2c build/FreeRTOS/production/_ext/161576091/exceptions.o
 .comment       0x000000000000002b       0x2c build/FreeRTOS/production/_ext/246609638/port.o
 .comment       0x000000000000002b       0x2c build/FreeRTOS/production/_ext/1665200909/heap_1.o
 .comment       0x000000000000002b       0x2c build/FreeRTOS/production/_ext/404212886/list.o
 .comment       0x000000000000002b       0x2c build/FreeRTOS/production/_ext/404212886/FreeRTOS_tasks.o
 .comment       0x000000000000002b       0x2c build/FreeRTOS/production/_ext/404212886/queue.o
 .comment       0x000000000000002b       0x2c build/FreeRTOS/production/_ext/172253694/crypt_wolfcryptcb.o
 .comment       0x000000000000002b       0x2c build/FreeRTOS/production/_ext/1664057780/md5.o
 .comment       0x000000000000002b       0x2c build/FreeRTOS/production/_ext/1664057780/sha256.o
 .comment       0x000000000000002b       0x2c build/FreeRTOS/production/_ext/1664057780/random.o
 .comment       0x000000000000002b       0x2c build/FreeRTOS/production/_ext/1664057780/cryptocb.o
 .comment       0x000000000000002b       0x2c build/FreeRTOS/production/_ext/1360937237/app.o
 .comment       0x000000000000002b       0x2c build/FreeRTOS/production/_ext/1360937237/main.o
 .comment       0x000000000000002b       0x2c c:/program files/microchip/xc32/v4.45/bin/bin/../../lib/gcc/pic32c/8.3.1/../../../../pic32c/lib/thumb/v7e-m+fp/hard\libpic32c.a(data_init.o)
 .comment       0x000000000000002b       0x2c c:/program files/microchip/xc32/v4.45/bin/bin/../../lib/gcc/pic32c/8.3.1/../../../../pic32c/lib/thumb/v7e-m+fp/hard\libc-size-musl.a(memcmp.o)
 .comment       0x000000000000002b       0x2c c:/program files/microchip/xc32/v4.45/bin/bin/../../lib/gcc/pic32c/8.3.1/../../../../pic32c/lib/thumb/v7e-m+fp/hard\libc-size-musl.a(memcpy.o)
 .comment       0x000000000000002b       0x2c c:/program files/microchip/xc32/v4.45/bin/bin/../../lib/gcc/pic32c/8.3.1/../../../../pic32c/lib/thumb/v7e-m+fp/hard\libc-size-musl.a(memset.o)
 .comment       0x000000000000002b       0x2c c:/program files/microchip/xc32/v4.45/bin/bin/../../lib/gcc/pic32c/8.3.1/../../../../pic32c/lib/thumb/v7e-m+fp/hard\libc-size-musl.a(strlen.o)
 .comment       0x000000000000002b       0x2c c:/program files/microchip/xc32/v4.45/bin/bin/../../lib/gcc/pic32c/8.3.1/../../../../pic32c/lib/thumb/v7e-m+fp/hard\libc-size-musl.a(strchr.o)
 .comment       0x000000000000002b       0x2c c:/program files/microchip/xc32/v4.45/bin/bin/../../lib/gcc/pic32c/8.3.1/../../../../pic32c/lib/thumb/v7e-m+fp/hard\libc-size-musl.a(strchrnul.o)
 .comment       0x000000000000002b       0x2c c:/program files/microchip/xc32/v4.45/bin/bin/../../lib/gcc/pic32c/8.3.1/../../../../pic32c/lib/thumb/v7e-m+fp/hard\libc-size-musl.a(strcmp.o)
 .comment       0x000000000000002b       0x2c c:/program files/microchip/xc32/v4.45/bin/bin/../../lib/gcc/pic32c/8.3.1/../../../../pic32c/lib/thumb/v7e-m+fp/hard\libc-size-musl.a(strcpy.o)
 .comment       0x000000000000002b       0x2c c:/program files/microchip/xc32/v4.45/bin/bin/../../lib/gcc/pic32c/8.3.1/../../../../pic32c/lib/thumb/v7e-m+fp/hard\libc-size-musl.a(strncmp.o)
 .comment       0x000000000000002b       0x2c c:/program files/microchip/xc32/v4.45/bin/bin/../../lib/gcc/pic32c/8.3.1/../../../../pic32c/lib/thumb/v7e-m+fp/hard\libc-size-musl.a(strncpy.o)
 .comment       0x000000000000002b       0x2c c:/program files/microchip/xc32/v4.45/bin/bin/../../lib/gcc/pic32c/8.3.1/../../../../pic32c/lib/thumb/v7e-m+fp/hard\libc-size-musl.a(strrchr.o)
 .comment       0x000000000000002b       0x2c c:/program files/microchip/xc32/v4.45/bin/bin/../../lib/gcc/pic32c/8.3.1/../../../../pic32c/lib/thumb/v7e-m+fp/hard\libc-size-musl.a(strtok.o)
 .comment       0x000000000000002b       0x2c c:/program files/microchip/xc32/v4.45/bin/bin/../../lib/gcc/pic32c/8.3.1/../../../../pic32c/lib/thumb/v7e-m+fp/hard\libc-size-musl.a(memrchr.o)
 .comment       0x000000000000002b       0x2c c:/program files/microchip/xc32/v4.45/bin/bin/../../lib/gcc/pic32c/8.3.1/../../../../pic32c/lib/thumb/v7e-m+fp/hard\libc-size-musl.a(stpcpy.o)
 .comment       0x000000000000002b       0x2c c:/program files/microchip/xc32/v4.45/bin/bin/../../lib/gcc/pic32c/8.3.1/../../../../pic32c/lib/thumb/v7e-m+fp/hard\libc-size-musl.a(stpncpy.o)
 .comment       0x000000000000002b       0x2c c:/program files/microchip/xc32/v4.45/bin/bin/../../lib/gcc/pic32c/8.3.1/../../../../pic32c/lib/thumb/v7e-m+fp/hard\libc-size-musl.a(strcspn.o)
 .comment       0x000000000000002b       0x2c c:/program files/microchip/xc32/v4.45/bin/bin/../../lib/gcc/pic32c/8.3.1/../../../../pic32c/lib/thumb/v7e-m+fp/hard\libc-size-musl.a(strspn.o)
 .comment       0x000000000000002b       0x2c c:/program files/microchip/xc32/v4.45/bin/bin/../../lib/gcc/pic32c/8.3.1/../../../../pic32c/lib/thumb/v7e-m+fp/hard\liblmalloc-musl.a(lite_free.o)
 .comment       0x000000000000002b       0x2c c:/program files/microchip/xc32/v4.45/bin/bin/../../lib/gcc/pic32c/8.3.1/../../../../pic32c/lib/thumb/v7e-m+fp/hard\liblmalloc-musl.a(lite_malloc.o)
 .comment       0x000000000000002b       0x2c c:/program files/microchip/xc32/v4.45/bin/bin/../../lib/gcc/pic32c/8.3.1/../../../../pic32c/lib/thumb/v7e-m+fp/hard\libc-musl.a(isxdigit.o)
 .comment       0x000000000000002b       0x2c c:/program files/microchip/xc32/v4.45/bin/bin/../../lib/gcc/pic32c/8.3.1/../../../../pic32c/lib/thumb/v7e-m+fp/hard\libc-musl.a(tolower.o)
 .comment       0x000000000000002b       0x2c c:/program files/microchip/xc32/v4.45/bin/bin/../../lib/gcc/pic32c/8.3.1/../../../../pic32c/lib/thumb/v7e-m+fp/hard\libc-musl.a(toupper.o)
 .comment       0x000000000000002b       0x2c c:/program files/microchip/xc32/v4.45/bin/bin/../../lib/gcc/pic32c/8.3.1/../../../../pic32c/lib/thumb/v7e-m+fp/hard\libc-musl.a(__libc_start_main.o)
 .comment       0x000000000000002b       0x2c c:/program files/microchip/xc32/v4.45/bin/bin/../../lib/gcc/pic32c/8.3.1/../../../../pic32c/lib/thumb/v7e-m+fp/hard\libc-musl.a(__errno_location.o)
 .comment       0x000000000000002b       0x2c c:/program files/microchip/xc32/v4.45/bin/bin/../../lib/gcc/pic32c/8.3.1/../../../../pic32c/lib/thumb/v7e-m+fp/hard\libc-musl.a(libc.o)
 .comment       0x000000000000002b       0x2c c:/program files/microchip/xc32/v4.45/bin/bin/../../lib/gcc/pic32c/8.3.1/../../../../pic32c/lib/thumb/v7e-m+fp/hard\libc-musl.a(expand_heap.o)
 .comment       0x000000000000002b       0x2c c:/program files/microchip/xc32/v4.45/bin/bin/../../lib/gcc/pic32c/8.3.1/../../../../pic32c/lib/thumb/v7e-m+fp/hard\libc-musl.a(rand.o)
 .comment       0x000000000000002b       0x2c c:/program files/microchip/xc32/v4.45/bin/bin/../../lib/gcc/pic32c/8.3.1/../../../../pic32c/lib/thumb/v7e-m+fp/hard\libc-musl.a(vsnprintf.o)
 .comment       0x000000000000002b       0x2c c:/program files/microchip/xc32/v4.45/bin/bin/../../lib/gcc/pic32c/8.3.1/../../../../pic32c/lib/thumb/v7e-m+fp/hard\libc-musl.a(snprintf.o)
 .comment       0x000000000000002b       0x2c c:/program files/microchip/xc32/v4.45/bin/bin/../../lib/gcc/pic32c/8.3.1/../../../../pic32c/lib/thumb/v7e-m+fp/hard\libc-musl.a(sprintf.o)
 .comment       0x000000000000002b       0x2c c:/program files/microchip/xc32/v4.45/bin/bin/../../lib/gcc/pic32c/8.3.1/../../../../pic32c/lib/thumb/v7e-m+fp/hard\libc-musl.a(vsprintf.o)
 .comment       0x000000000000002b       0x2c c:/program files/microchip/xc32/v4.45/bin/bin/../../lib/gcc/pic32c/8.3.1/../../../../pic32c/lib/thumb/v7e-m+fp/hard\libc-musl.a(atoi.o)
 .comment       0x000000000000002b       0x2c c:/program files/microchip/xc32/v4.45/bin/bin/../../lib/gcc/pic32c/8.3.1/../../../../pic32c/lib/thumb/v7e-m+fp/hard\libc-musl.a(strtol.o)
 .comment       0x000000000000002b       0x2c c:/program files/microchip/xc32/v4.45/bin/bin/../../lib/gcc/pic32c/8.3.1/../../../../pic32c/lib/thumb/v7e-m+fp/hard\libc-musl.a(__environ.o)
 .comment       0x000000000000002b       0x2c c:/program files/microchip/xc32/v4.45/bin/bin/../../lib/gcc/pic32c/8.3.1/../../../../pic32c/lib/thumb/v7e-m+fp/hard\libc-musl.a(intscan.o)
 .comment       0x000000000000002b       0x2c c:/program files/microchip/xc32/v4.45/bin/bin/../../lib/gcc/pic32c/8.3.1/../../../../pic32c/lib/thumb/v7e-m+fp/hard\libc-musl.a(shgetc.o)
 .comment       0x000000000000002b       0x2c c:/program files/microchip/xc32/v4.45/bin/bin/../../lib/gcc/pic32c/8.3.1/../../../../pic32c/lib/thumb/v7e-m+fp/hard\libc-musl.a(__uflow.o)
 .comment       0x000000000000002b       0x2c c:/program files/microchip/xc32/v4.45/bin/bin/../../lib/gcc/pic32c/8.3.1/../../../../pic32c/lib/thumb/v7e-m+fp/hard\libc-musl.a(vfprintf.o)
 .comment       0x000000000000002b       0x2c c:/program files/microchip/xc32/v4.45/bin/bin/../../lib/gcc/pic32c/8.3.1/../../../../pic32c/lib/thumb/v7e-m+fp/hard\libc-musl.a(__toread.o)
 .comment       0x000000000000002b       0x2c c:/program files/microchip/xc32/v4.45/bin/bin/../../lib/gcc/pic32c/8.3.1/../../../../pic32c/lib/thumb/v7e-m+fp/hard\libc-musl.a(__pop_float.o)
 .comment       0x000000000000002b       0x2c c:/program files/microchip/xc32/v4.45/bin/bin/../../lib/gcc/pic32c/8.3.1/../../../../pic32c/lib/thumb/v7e-m+fp/hard\libc-musl.a(__pop_int.o)
 .comment       0x000000000000002b       0x2c c:/program files/microchip/xc32/v4.45/bin/bin/../../lib/gcc/pic32c/8.3.1/../../../../pic32c/lib/thumb/v7e-m+fp/hard\libc-musl.a(__pop_ptr.o)
 .comment       0x000000000000002b       0x2c c:/program files/microchip/xc32/v4.45/bin/bin/../../lib/gcc/pic32c/8.3.1/../../../../pic32c/lib/thumb/v7e-m+fp/hard\libc-musl.a(__printf_core.o)
 .comment       0x000000000000002b       0x2c c:/program files/microchip/xc32/v4.45/bin/bin/../../lib/gcc/pic32c/8.3.1/../../../../pic32c/lib/thumb/v7e-m+fp/hard\libc-musl.a(__fmt_a.o)
 .comment       0x000000000000002b       0x2c c:/program files/microchip/xc32/v4.45/bin/bin/../../lib/gcc/pic32c/8.3.1/../../../../pic32c/lib/thumb/v7e-m+fp/hard\libc-musl.a(__fmt_d.o)
 .comment       0x000000000000002b       0x2c c:/program files/microchip/xc32/v4.45/bin/bin/../../lib/gcc/pic32c/8.3.1/../../../../pic32c/lib/thumb/v7e-m+fp/hard\libc-musl.a(__fmt_fp.o)
 .comment       0x000000000000002b       0x2c c:/program files/microchip/xc32/v4.45/bin/bin/../../lib/gcc/pic32c/8.3.1/../../../../pic32c/lib/thumb/v7e-m+fp/hard\libc-musl.a(__fmt_o.o)
 .comment       0x000000000000002b       0x2c c:/program files/microchip/xc32/v4.45/bin/bin/../../lib/gcc/pic32c/8.3.1/../../../../pic32c/lib/thumb/v7e-m+fp/hard\libc-musl.a(__fmt_s.o)
 .comment       0x000000000000002b       0x2c c:/program files/microchip/xc32/v4.45/bin/bin/../../lib/gcc/pic32c/8.3.1/../../../../pic32c/lib/thumb/v7e-m+fp/hard\libc-musl.a(__fmt_u.o)
 .comment       0x000000000000002b       0x2c c:/program files/microchip/xc32/v4.45/bin/bin/../../lib/gcc/pic32c/8.3.1/../../../../pic32c/lib/thumb/v7e-m+fp/hard\libc-musl.a(__fmt_x.o)
 .comment       0x000000000000002b       0x2c c:/program files/microchip/xc32/v4.45/bin/bin/../../lib/gcc/pic32c/8.3.1/../../../../pic32c/lib/thumb/v7e-m+fp/hard\libc-musl.a(__cvt_u.o)
 .comment       0x000000000000002b       0x2c c:/program files/microchip/xc32/v4.45/bin/bin/../../lib/gcc/pic32c/8.3.1/../../../../pic32c/lib/thumb/v7e-m+fp/hard\libm-fast-emfloat.a(fma.o)
 .comment       0x000000000000002b       0x2c c:/program files/microchip/xc32/v4.45/bin/bin/../../lib/gcc/pic32c/8.3.1/../../../../pic32c/lib/thumb/v7e-m+fp/hard\libm-fast-emfloat.a(floor.o)
 .comment       0x000000000000002b       0x2c c:/program files/microchip/xc32/v4.45/bin/bin/../../lib/gcc/pic32c/8.3.1/thumb/v7e-m+fp/hard\libgcc.a(_udivmoddi4.o)
 .comment       0x000000000000002b       0x2c c:/program files/microchip/xc32/v4.45/bin/bin/../../lib/gcc/pic32c/8.3.1/../../../../pic32c/lib/thumb/v7e-m+fp/hard\libpic32c.a(sbrk.o)
 .comment       0x000000000000002b       0x2c c:/program files/microchip/xc32/v4.45/bin/bin/../../lib/gcc/pic32c/8.3.1/../../../../pic32c/lib/thumb/v7e-m+fp/hard\libpic32c.a(pic32_data_init_clear.o)
 .comment       0x000000000000002b       0x2c c:/program files/microchip/xc32/v4.45/bin/bin/../../lib/gcc/pic32c/8.3.1/../../../../pic32c/lib/thumb/v7e-m+fp/hard\libpic32c.a(pic32_data_init_copy.o)

.debug_info     0x0000000000000000    0x7aee6
 .debug_info    0x0000000000000000     0x317c build/FreeRTOS/production/_ext/1609394304/crypto.o
 .debug_info    0x000000000000317c     0x491c build/FreeRTOS/production/_ext/1785105562/tc6.o
 .debug_info    0x0000000000007a98     0x6129 build/FreeRTOS/production/_ext/585597058/drv_lan865x_api.o
 .debug_info    0x000000000000dbc1     0x30a7 build/FreeRTOS/production/_ext/1348046844/drv_spi.o
 .debug_info    0x0000000000010c68      0x3e5 build/FreeRTOS/production/_ext/540595297/helpers.o
 .debug_info    0x000000000001104d     0x5c36 build/FreeRTOS/production/_ext/540595297/tcpip_commands.o
 .debug_info    0x0000000000016c83     0x1f1a build/FreeRTOS/production/_ext/540595297/tcpip_packet.o
 .debug_info    0x0000000000018b9d     0x3302 build/FreeRTOS/production/_ext/540595297/tcpip_helpers.o
 .debug_info    0x000000000001be9f      0xf87 build/FreeRTOS/production/_ext/540595297/tcpip_heap_internal.o
 .debug_info    0x000000000001ce26      0x866 build/FreeRTOS/production/_ext/540595297/tcpip_notify.o
 .debug_info    0x000000000001d68c     0x5b4d build/FreeRTOS/production/_ext/540595297/iperf.o
 .debug_info    0x00000000000231d9     0x8e43 build/FreeRTOS/production/_ext/540595297/tcp.o
 .debug_info    0x000000000002c01c     0x6829 build/FreeRTOS/production/_ext/540595297/udp.o
 .debug_info    0x0000000000032845     0x9060 build/FreeRTOS/production/_ext/540595297/tcpip_manager.o
 .debug_info    0x000000000003b8a5      0x638 build/FreeRTOS/production/_ext/540595297/tcpip_heap_alloc.o
 .debug_info    0x000000000003bedd      0x1a3 build/FreeRTOS/production/_ext/540595297/hash_fnv.o
 .debug_info    0x000000000003c080     0x4cc4 build/FreeRTOS/production/_ext/540595297/arp.o
 .debug_info    0x0000000000040d44     0x2e86 build/FreeRTOS/production/_ext/540595297/icmp.o
 .debug_info    0x0000000000043bca     0x5261 build/FreeRTOS/production/_ext/540595297/ipv4.o
 .debug_info    0x0000000000048e2b      0x868 build/FreeRTOS/production/_ext/540595297/oahash.o
 .debug_info    0x0000000000049693     0x58e4 build/FreeRTOS/production/_ext/540595297/dns.o
 .debug_info    0x000000000004ef77      0x776 build/FreeRTOS/production/_ext/891571577/osal_freertos.o
 .debug_info    0x000000000004f6ed      0x639 build/FreeRTOS/production/_ext/892004133/plib_clock.o
 .debug_info    0x000000000004fd26      0xbca build/FreeRTOS/production/_ext/1495216012/plib_dmac.o
 .debug_info    0x00000000000508f0       0x9b build/FreeRTOS/production/_ext/894153619/plib_evsys.o
 .debug_info    0x000000000005098b      0xe21 build/FreeRTOS/production/_ext/1494909205/plib_nvic.o
 .debug_info    0x00000000000517ac      0x8e5 build/FreeRTOS/production/_ext/320424729/plib_nvmctrl.o
 .debug_info    0x0000000000052091      0x7f7 build/FreeRTOS/production/_ext/1494856054/plib_port.o
 .debug_info    0x0000000000052888      0xf96 build/FreeRTOS/production/_ext/1428073114/plib_sercom0_spi_master.o
 .debug_info    0x000000000005381e     0x1813 build/FreeRTOS/production/_ext/2092608928/plib_sercom1_usart.o
 .debug_info    0x0000000000055031      0x83d build/FreeRTOS/production/_ext/579449528/plib_tc0.o
 .debug_info    0x000000000005586e     0x235c build/FreeRTOS/production/_ext/1005353002/sys_command.o
 .debug_info    0x0000000000057bca      0xc08 build/FreeRTOS/production/_ext/548640822/sys_console.o
 .debug_info    0x00000000000587d2      0xc06 build/FreeRTOS/production/_ext/548640822/sys_console_uart.o
 .debug_info    0x00000000000593d8      0x36a build/FreeRTOS/production/_ext/147610190/sys_debug.o
 .debug_info    0x0000000000059742      0x347 build/FreeRTOS/production/_ext/50312702/sys_dma.o
 .debug_info    0x0000000000059a89      0x84f build/FreeRTOS/production/_ext/1690414130/sys_int.o
 .debug_info    0x000000000005a2d8      0x2f7 build/FreeRTOS/production/_ext/1093154855/sys_reset.o
 .debug_info    0x000000000005a5cf     0x1f3a build/FreeRTOS/production/_ext/832704728/sys_time.o
 .debug_info    0x000000000005c509      0x2fd build/FreeRTOS/production/_ext/2072568807/sys_time_h2_adapter.o
 .debug_info    0x000000000005c806      0x6f7 build/FreeRTOS/production/_ext/2072568807/sys_random_h2_adapter.o
 .debug_info    0x000000000005cefd      0x3da build/FreeRTOS/production/_ext/161576091/tasks.o
 .debug_info    0x000000000005d2d7      0x223 build/FreeRTOS/production/_ext/161576091/freertos_hooks.o
 .debug_info    0x000000000005d4fa      0x55b build/FreeRTOS/production/_ext/161576091/startup_xc32.o
 .debug_info    0x000000000005da55     0x3c2c build/FreeRTOS/production/_ext/161576091/initialization.o
 .debug_info    0x0000000000061681      0xab6 build/FreeRTOS/production/_ext/161576091/interrupts.o
 .debug_info    0x0000000000062137      0x116 build/FreeRTOS/production/_ext/161576091/exceptions.o
 .debug_info    0x000000000006224d      0x3c6 build/FreeRTOS/production/_ext/246609638/port.o
 .debug_info    0x0000000000062613      0x204 build/FreeRTOS/production/_ext/1665200909/heap_1.o
 .debug_info    0x0000000000062817      0x304 build/FreeRTOS/production/_ext/404212886/list.o
 .debug_info    0x0000000000062b1b     0x267a build/FreeRTOS/production/_ext/404212886/FreeRTOS_tasks.o
 .debug_info    0x0000000000065195     0x1b80 build/FreeRTOS/production/_ext/404212886/queue.o
 .debug_info    0x0000000000066d15     0x19d5 build/FreeRTOS/production/_ext/172253694/crypt_wolfcryptcb.o
 .debug_info    0x00000000000686ea     0x1ac1 build/FreeRTOS/production/_ext/1664057780/md5.o
 .debug_info    0x000000000006a1ab     0x2c34 build/FreeRTOS/production/_ext/1664057780/sha256.o
 .debug_info    0x000000000006cddf     0x2b19 build/FreeRTOS/production/_ext/1664057780/random.o
 .debug_info    0x000000000006f8f8     0x3a56 build/FreeRTOS/production/_ext/1664057780/cryptocb.o
 .debug_info    0x000000000007334e      0x520 build/FreeRTOS/production/_ext/1360937237/app.o
 .debug_info    0x000000000007386e       0xe4 build/FreeRTOS/production/_ext/1360937237/main.o
 .debug_info    0x0000000000073952       0x54 c:/program files/microchip/xc32/v4.45/bin/bin/../../lib/gcc/pic32c/8.3.1/../../../../pic32c/lib/thumb/v7e-m+fp/hard\libpic32c.a(data_init.o)
 .debug_info    0x00000000000739a6       0xe0 c:/program files/microchip/xc32/v4.45/bin/bin/../../lib/gcc/pic32c/8.3.1/../../../../pic32c/lib/thumb/v7e-m+fp/hard\libc-size-musl.a(memcmp.o)
 .debug_info    0x0000000000073a86       0xf3 c:/program files/microchip/xc32/v4.45/bin/bin/../../lib/gcc/pic32c/8.3.1/../../../../pic32c/lib/thumb/v7e-m+fp/hard\libc-size-musl.a(memcpy.o)
 .debug_info    0x0000000000073b79       0xbb c:/program files/microchip/xc32/v4.45/bin/bin/../../lib/gcc/pic32c/8.3.1/../../../../pic32c/lib/thumb/v7e-m+fp/hard\libc-size-musl.a(memset.o)
 .debug_info    0x0000000000073c34       0xa4 c:/program files/microchip/xc32/v4.45/bin/bin/../../lib/gcc/pic32c/8.3.1/../../../../pic32c/lib/thumb/v7e-m+fp/hard\libc-size-musl.a(strlen.o)
 .debug_info    0x0000000000073cd8       0xd2 c:/program files/microchip/xc32/v4.45/bin/bin/../../lib/gcc/pic32c/8.3.1/../../../../pic32c/lib/thumb/v7e-m+fp/hard\libc-size-musl.a(strchr.o)
 .debug_info    0x0000000000073daa      0x12c c:/program files/microchip/xc32/v4.45/bin/bin/../../lib/gcc/pic32c/8.3.1/../../../../pic32c/lib/thumb/v7e-m+fp/hard\libc-size-musl.a(strchrnul.o)
 .debug_info    0x0000000000073ed6       0x95 c:/program files/microchip/xc32/v4.45/bin/bin/../../lib/gcc/pic32c/8.3.1/../../../../pic32c/lib/thumb/v7e-m+fp/hard\libc-size-musl.a(strcmp.o)
 .debug_info    0x0000000000073f6b       0xbd c:/program files/microchip/xc32/v4.45/bin/bin/../../lib/gcc/pic32c/8.3.1/../../../../pic32c/lib/thumb/v7e-m+fp/hard\libc-size-musl.a(strcpy.o)
 .debug_info    0x0000000000074028       0xeb c:/program files/microchip/xc32/v4.45/bin/bin/../../lib/gcc/pic32c/8.3.1/../../../../pic32c/lib/thumb/v7e-m+fp/hard\libc-size-musl.a(strncmp.o)
 .debug_info    0x0000000000074113       0xde c:/program files/microchip/xc32/v4.45/bin/bin/../../lib/gcc/pic32c/8.3.1/../../../../pic32c/lib/thumb/v7e-m+fp/hard\libc-size-musl.a(strncpy.o)
 .debug_info    0x00000000000741f1       0xe4 c:/program files/microchip/xc32/v4.45/bin/bin/../../lib/gcc/pic32c/8.3.1/../../../../pic32c/lib/thumb/v7e-m+fp/hard\libc-size-musl.a(strrchr.o)
 .debug_info    0x00000000000742d5       0xf2 c:/program files/microchip/xc32/v4.45/bin/bin/../../lib/gcc/pic32c/8.3.1/../../../../pic32c/lib/thumb/v7e-m+fp/hard\libc-size-musl.a(strtok.o)
 .debug_info    0x00000000000743c7       0xe3 c:/program files/microchip/xc32/v4.45/bin/bin/../../lib/gcc/pic32c/8.3.1/../../../../pic32c/lib/thumb/v7e-m+fp/hard\libc-size-musl.a(memrchr.o)
 .debug_info    0x00000000000744aa       0xac c:/program files/microchip/xc32/v4.45/bin/bin/../../lib/gcc/pic32c/8.3.1/../../../../pic32c/lib/thumb/v7e-m+fp/hard\libc-size-musl.a(stpcpy.o)
 .debug_info    0x0000000000074556       0xe1 c:/program files/microchip/xc32/v4.45/bin/bin/../../lib/gcc/pic32c/8.3.1/../../../../pic32c/lib/thumb/v7e-m+fp/hard\libc-size-musl.a(stpncpy.o)
 .debug_info    0x0000000000074637      0x116 c:/program files/microchip/xc32/v4.45/bin/bin/../../lib/gcc/pic32c/8.3.1/../../../../pic32c/lib/thumb/v7e-m+fp/hard\libc-size-musl.a(strcspn.o)
 .debug_info    0x000000000007474d       0xf3 c:/program files/microchip/xc32/v4.45/bin/bin/../../lib/gcc/pic32c/8.3.1/../../../../pic32c/lib/thumb/v7e-m+fp/hard\libc-size-musl.a(strspn.o)
 .debug_info    0x0000000000074840      0x26f c:/program files/microchip/xc32/v4.45/bin/bin/../../lib/gcc/pic32c/8.3.1/../../../../pic32c/lib/thumb/v7e-m+fp/hard\liblmalloc-musl.a(lite_free.o)
 .debug_info    0x0000000000074aaf      0x1bd c:/program files/microchip/xc32/v4.45/bin/bin/../../lib/gcc/pic32c/8.3.1/../../../../pic32c/lib/thumb/v7e-m+fp/hard\liblmalloc-musl.a(lite_malloc.o)
 .debug_info    0x0000000000074c6c      0x12b c:/program files/microchip/xc32/v4.45/bin/bin/../../lib/gcc/pic32c/8.3.1/../../../../pic32c/lib/thumb/v7e-m+fp/hard\libc-musl.a(isxdigit.o)
 .debug_info    0x0000000000074d97      0x12b c:/program files/microchip/xc32/v4.45/bin/bin/../../lib/gcc/pic32c/8.3.1/../../../../pic32c/lib/thumb/v7e-m+fp/hard\libc-musl.a(tolower.o)
 .debug_info    0x0000000000074ec2      0x12b c:/program files/microchip/xc32/v4.45/bin/bin/../../lib/gcc/pic32c/8.3.1/../../../../pic32c/lib/thumb/v7e-m+fp/hard\libc-musl.a(toupper.o)
 .debug_info    0x0000000000074fed      0x2fb c:/program files/microchip/xc32/v4.45/bin/bin/../../lib/gcc/pic32c/8.3.1/../../../../pic32c/lib/thumb/v7e-m+fp/hard\libc-musl.a(__libc_start_main.o)
 .debug_info    0x00000000000752e8       0x5b c:/program files/microchip/xc32/v4.45/bin/bin/../../lib/gcc/pic32c/8.3.1/../../../../pic32c/lib/thumb/v7e-m+fp/hard\libc-musl.a(__errno_location.o)
 .debug_info    0x0000000000075343      0x276 c:/program files/microchip/xc32/v4.45/bin/bin/../../lib/gcc/pic32c/8.3.1/../../../../pic32c/lib/thumb/v7e-m+fp/hard\libc-musl.a(libc.o)
 .debug_info    0x00000000000755b9      0x10e c:/program files/microchip/xc32/v4.45/bin/bin/../../lib/gcc/pic32c/8.3.1/../../../../pic32c/lib/thumb/v7e-m+fp/hard\libc-musl.a(expand_heap.o)
 .debug_info    0x00000000000756c7       0xd9 c:/program files/microchip/xc32/v4.45/bin/bin/../../lib/gcc/pic32c/8.3.1/../../../../pic32c/lib/thumb/v7e-m+fp/hard\libc-musl.a(rand.o)
 .debug_info    0x00000000000757a0      0x43a c:/program files/microchip/xc32/v4.45/bin/bin/../../lib/gcc/pic32c/8.3.1/../../../../pic32c/lib/thumb/v7e-m+fp/hard\libc-musl.a(vsnprintf.o)
 .debug_info    0x0000000000075bda      0x13b c:/program files/microchip/xc32/v4.45/bin/bin/../../lib/gcc/pic32c/8.3.1/../../../../pic32c/lib/thumb/v7e-m+fp/hard\libc-musl.a(snprintf.o)
 .debug_info    0x0000000000075d15      0x116 c:/program files/microchip/xc32/v4.45/bin/bin/../../lib/gcc/pic32c/8.3.1/../../../../pic32c/lib/thumb/v7e-m+fp/hard\libc-musl.a(sprintf.o)
 .debug_info    0x0000000000075e2b      0x10e c:/program files/microchip/xc32/v4.45/bin/bin/../../lib/gcc/pic32c/8.3.1/../../../../pic32c/lib/thumb/v7e-m+fp/hard\libc-musl.a(vsprintf.o)
 .debug_info    0x0000000000075f39       0xf4 c:/program files/microchip/xc32/v4.45/bin/bin/../../lib/gcc/pic32c/8.3.1/../../../../pic32c/lib/thumb/v7e-m+fp/hard\libc-musl.a(atoi.o)
 .debug_info    0x000000000007602d      0x722 c:/program files/microchip/xc32/v4.45/bin/bin/../../lib/gcc/pic32c/8.3.1/../../../../pic32c/lib/thumb/v7e-m+fp/hard\libc-musl.a(strtol.o)
 .debug_info    0x000000000007674f       0x97 c:/program files/microchip/xc32/v4.45/bin/bin/../../lib/gcc/pic32c/8.3.1/../../../../pic32c/lib/thumb/v7e-m+fp/hard\libc-musl.a(__environ.o)
 .debug_info    0x00000000000767e6      0x595 c:/program files/microchip/xc32/v4.45/bin/bin/../../lib/gcc/pic32c/8.3.1/../../../../pic32c/lib/thumb/v7e-m+fp/hard\libc-musl.a(intscan.o)
 .debug_info    0x0000000000076d7b      0x39c c:/program files/microchip/xc32/v4.45/bin/bin/../../lib/gcc/pic32c/8.3.1/../../../../pic32c/lib/thumb/v7e-m+fp/hard\libc-musl.a(shgetc.o)
 .debug_info    0x0000000000077117      0x37c c:/program files/microchip/xc32/v4.45/bin/bin/../../lib/gcc/pic32c/8.3.1/../../../../pic32c/lib/thumb/v7e-m+fp/hard\libc-musl.a(__uflow.o)
 .debug_info    0x0000000000077493      0x406 c:/program files/microchip/xc32/v4.45/bin/bin/../../lib/gcc/pic32c/8.3.1/../../../../pic32c/lib/thumb/v7e-m+fp/hard\libc-musl.a(vfprintf.o)
 .debug_info    0x0000000000077899      0x37e c:/program files/microchip/xc32/v4.45/bin/bin/../../lib/gcc/pic32c/8.3.1/../../../../pic32c/lib/thumb/v7e-m+fp/hard\libc-musl.a(__toread.o)
 .debug_info    0x0000000000077c17      0x162 c:/program files/microchip/xc32/v4.45/bin/bin/../../lib/gcc/pic32c/8.3.1/../../../../pic32c/lib/thumb/v7e-m+fp/hard\libc-musl.a(__pop_float.o)
 .debug_info    0x0000000000077d79      0x183 c:/program files/microchip/xc32/v4.45/bin/bin/../../lib/gcc/pic32c/8.3.1/../../../../pic32c/lib/thumb/v7e-m+fp/hard\libc-musl.a(__pop_int.o)
 .debug_info    0x0000000000077efc      0x187 c:/program files/microchip/xc32/v4.45/bin/bin/../../lib/gcc/pic32c/8.3.1/../../../../pic32c/lib/thumb/v7e-m+fp/hard\libc-musl.a(__pop_ptr.o)
 .debug_info    0x0000000000078083      0xa5d c:/program files/microchip/xc32/v4.45/bin/bin/../../lib/gcc/pic32c/8.3.1/../../../../pic32c/lib/thumb/v7e-m+fp/hard\libc-musl.a(__printf_core.o)
 .debug_info    0x0000000000078ae0      0x646 c:/program files/microchip/xc32/v4.45/bin/bin/../../lib/gcc/pic32c/8.3.1/../../../../pic32c/lib/thumb/v7e-m+fp/hard\libc-musl.a(__fmt_a.o)
 .debug_info    0x0000000000079126      0x330 c:/program files/microchip/xc32/v4.45/bin/bin/../../lib/gcc/pic32c/8.3.1/../../../../pic32c/lib/thumb/v7e-m+fp/hard\libc-musl.a(__fmt_d.o)
 .debug_info    0x0000000000079456      0x673 c:/program files/microchip/xc32/v4.45/bin/bin/../../lib/gcc/pic32c/8.3.1/../../../../pic32c/lib/thumb/v7e-m+fp/hard\libc-musl.a(__fmt_fp.o)
 .debug_info    0x0000000000079ac9      0x301 c:/program files/microchip/xc32/v4.45/bin/bin/../../lib/gcc/pic32c/8.3.1/../../../../pic32c/lib/thumb/v7e-m+fp/hard\libc-musl.a(__fmt_o.o)
 .debug_info    0x0000000000079dca      0x2b2 c:/program files/microchip/xc32/v4.45/bin/bin/../../lib/gcc/pic32c/8.3.1/../../../../pic32c/lib/thumb/v7e-m+fp/hard\libc-musl.a(__fmt_s.o)
 .debug_info    0x000000000007a07c      0x301 c:/program files/microchip/xc32/v4.45/bin/bin/../../lib/gcc/pic32c/8.3.1/../../../../pic32c/lib/thumb/v7e-m+fp/hard\libc-musl.a(__fmt_u.o)
 .debug_info    0x000000000007a37d      0x331 c:/program files/microchip/xc32/v4.45/bin/bin/../../lib/gcc/pic32c/8.3.1/../../../../pic32c/lib/thumb/v7e-m+fp/hard\libc-musl.a(__fmt_x.o)
 .debug_info    0x000000000007a6ae      0x1d9 c:/program files/microchip/xc32/v4.45/bin/bin/../../lib/gcc/pic32c/8.3.1/../../../../pic32c/lib/thumb/v7e-m+fp/hard\libc-musl.a(__cvt_u.o)
 .debug_info    0x000000000007a887       0x26 c:/program files/microchip/xc32/v4.45/bin/bin/../../lib/gcc/pic32c/8.3.1/thumb/v7e-m+fp/hard\libgcc.a(_aeabi_uldivmod.o)
 .debug_info    0x000000000007a8ad      0x52a c:/program files/microchip/xc32/v4.45/bin/bin/../../lib/gcc/pic32c/8.3.1/thumb/v7e-m+fp/hard\libgcc.a(_udivmoddi4.o)
 .debug_info    0x000000000007add7       0x26 c:/program files/microchip/xc32/v4.45/bin/bin/../../lib/gcc/pic32c/8.3.1/thumb/v7e-m+fp/hard\libgcc.a(_dvmd_tls.o)
 .debug_info    0x000000000007adfd       0x6a c:/program files/microchip/xc32/v4.45/bin/bin/../../lib/gcc/pic32c/8.3.1/../../../../pic32c/lib/thumb/v7e-m+fp/hard\libpic32c.a(sbrk.o)
 .debug_info    0x000000000007ae67       0x3f c:/program files/microchip/xc32/v4.45/bin/bin/../../lib/gcc/pic32c/8.3.1/../../../../pic32c/lib/thumb/v7e-m+fp/hard\libpic32c.a(pic32_data_init_clear.o)
 .debug_info    0x000000000007aea6       0x40 c:/program files/microchip/xc32/v4.45/bin/bin/../../lib/gcc/pic32c/8.3.1/../../../../pic32c/lib/thumb/v7e-m+fp/hard\libpic32c.a(pic32_data_init_copy.o)

.debug_abbrev   0x0000000000000000     0xee10
 .debug_abbrev  0x0000000000000000      0x373 build/FreeRTOS/production/_ext/1609394304/crypto.o
 .debug_abbrev  0x0000000000000373      0x588 build/FreeRTOS/production/_ext/1785105562/tc6.o
 .debug_abbrev  0x00000000000008fb      0x6bf build/FreeRTOS/production/_ext/585597058/drv_lan865x_api.o
 .debug_abbrev  0x0000000000000fba      0x4d0 build/FreeRTOS/production/_ext/1348046844/drv_spi.o
 .debug_abbrev  0x000000000000148a      0x205 build/FreeRTOS/production/_ext/540595297/helpers.o
 .debug_abbrev  0x000000000000168f      0x4c3 build/FreeRTOS/production/_ext/540595297/tcpip_commands.o
 .debug_abbrev  0x0000000000001b52      0x4eb build/FreeRTOS/production/_ext/540595297/tcpip_packet.o
 .debug_abbrev  0x000000000000203d      0x4f3 build/FreeRTOS/production/_ext/540595297/tcpip_helpers.o
 .debug_abbrev  0x0000000000002530      0x369 build/FreeRTOS/production/_ext/540595297/tcpip_heap_internal.o
 .debug_abbrev  0x0000000000002899      0x252 build/FreeRTOS/production/_ext/540595297/tcpip_notify.o
 .debug_abbrev  0x0000000000002aeb      0x57b build/FreeRTOS/production/_ext/540595297/iperf.o
 .debug_abbrev  0x0000000000003066      0x6ae build/FreeRTOS/production/_ext/540595297/tcp.o
 .debug_abbrev  0x0000000000003714      0x60a build/FreeRTOS/production/_ext/540595297/udp.o
 .debug_abbrev  0x0000000000003d1e      0x714 build/FreeRTOS/production/_ext/540595297/tcpip_manager.o
 .debug_abbrev  0x0000000000004432      0x193 build/FreeRTOS/production/_ext/540595297/tcpip_heap_alloc.o
 .debug_abbrev  0x00000000000045c5       0xfa build/FreeRTOS/production/_ext/540595297/hash_fnv.o
 .debug_abbrev  0x00000000000046bf      0x612 build/FreeRTOS/production/_ext/540595297/arp.o
 .debug_abbrev  0x0000000000004cd1      0x511 build/FreeRTOS/production/_ext/540595297/icmp.o
 .debug_abbrev  0x00000000000051e2      0x562 build/FreeRTOS/production/_ext/540595297/ipv4.o
 .debug_abbrev  0x0000000000005744      0x2f0 build/FreeRTOS/production/_ext/540595297/oahash.o
 .debug_abbrev  0x0000000000005a34      0x5c1 build/FreeRTOS/production/_ext/540595297/dns.o
 .debug_abbrev  0x0000000000005ff5      0x1be build/FreeRTOS/production/_ext/891571577/osal_freertos.o
 .debug_abbrev  0x00000000000061b3      0x10b build/FreeRTOS/production/_ext/892004133/plib_clock.o
 .debug_abbrev  0x00000000000062be      0x35b build/FreeRTOS/production/_ext/1495216012/plib_dmac.o
 .debug_abbrev  0x0000000000006619       0x46 build/FreeRTOS/production/_ext/894153619/plib_evsys.o
 .debug_abbrev  0x000000000000665f      0x1fe build/FreeRTOS/production/_ext/1494909205/plib_nvic.o
 .debug_abbrev  0x000000000000685d      0x23c build/FreeRTOS/production/_ext/320424729/plib_nvmctrl.o
 .debug_abbrev  0x0000000000006a99      0x1cd build/FreeRTOS/production/_ext/1494856054/plib_port.o
 .debug_abbrev  0x0000000000006c66      0x276 build/FreeRTOS/production/_ext/1428073114/plib_sercom0_spi_master.o
 .debug_abbrev  0x0000000000006edc      0x428 build/FreeRTOS/production/_ext/2092608928/plib_sercom1_usart.o
 .debug_abbrev  0x0000000000007304      0x1be build/FreeRTOS/production/_ext/579449528/plib_tc0.o
 .debug_abbrev  0x00000000000074c2      0x487 build/FreeRTOS/production/_ext/1005353002/sys_command.o
 .debug_abbrev  0x0000000000007949      0x366 build/FreeRTOS/production/_ext/548640822/sys_console.o
 .debug_abbrev  0x0000000000007caf      0x2e8 build/FreeRTOS/production/_ext/548640822/sys_console_uart.o
 .debug_abbrev  0x0000000000007f97      0x196 build/FreeRTOS/production/_ext/147610190/sys_debug.o
 .debug_abbrev  0x000000000000812d       0xfd build/FreeRTOS/production/_ext/50312702/sys_dma.o
 .debug_abbrev  0x000000000000822a      0x25c build/FreeRTOS/production/_ext/1690414130/sys_int.o
 .debug_abbrev  0x0000000000008486      0x10b build/FreeRTOS/production/_ext/1093154855/sys_reset.o
 .debug_abbrev  0x0000000000008591      0x4f8 build/FreeRTOS/production/_ext/832704728/sys_time.o
 .debug_abbrev  0x0000000000008a89      0x15b build/FreeRTOS/production/_ext/2072568807/sys_time_h2_adapter.o
 .debug_abbrev  0x0000000000008be4      0x205 build/FreeRTOS/production/_ext/2072568807/sys_random_h2_adapter.o
 .debug_abbrev  0x0000000000008de9      0x17b build/FreeRTOS/production/_ext/161576091/tasks.o
 .debug_abbrev  0x0000000000008f64      0x159 build/FreeRTOS/production/_ext/161576091/freertos_hooks.o
 .debug_abbrev  0x00000000000090bd      0x1e3 build/FreeRTOS/production/_ext/161576091/startup_xc32.o
 .debug_abbrev  0x00000000000092a0      0x36b build/FreeRTOS/production/_ext/161576091/initialization.o
 .debug_abbrev  0x000000000000960b       0xe5 build/FreeRTOS/production/_ext/161576091/interrupts.o
 .debug_abbrev  0x00000000000096f0       0x49 build/FreeRTOS/production/_ext/161576091/exceptions.o
 .debug_abbrev  0x0000000000009739      0x231 build/FreeRTOS/production/_ext/246609638/port.o
 .debug_abbrev  0x000000000000996a      0x159 build/FreeRTOS/production/_ext/1665200909/heap_1.o
 .debug_abbrev  0x0000000000009ac3      0x133 build/FreeRTOS/production/_ext/404212886/list.o
 .debug_abbrev  0x0000000000009bf6      0x415 build/FreeRTOS/production/_ext/404212886/FreeRTOS_tasks.o
 .debug_abbrev  0x000000000000a00b      0x31b build/FreeRTOS/production/_ext/404212886/queue.o
 .debug_abbrev  0x000000000000a326      0x289 build/FreeRTOS/production/_ext/172253694/crypt_wolfcryptcb.o
 .debug_abbrev  0x000000000000a5af      0x355 build/FreeRTOS/production/_ext/1664057780/md5.o
 .debug_abbrev  0x000000000000a904      0x420 build/FreeRTOS/production/_ext/1664057780/sha256.o
 .debug_abbrev  0x000000000000ad24      0x40b build/FreeRTOS/production/_ext/1664057780/random.o
 .debug_abbrev  0x000000000000b12f      0x429 build/FreeRTOS/production/_ext/1664057780/cryptocb.o
 .debug_abbrev  0x000000000000b558      0x1b6 build/FreeRTOS/production/_ext/1360937237/app.o
 .debug_abbrev  0x000000000000b70e       0x82 build/FreeRTOS/production/_ext/1360937237/main.o
 .debug_abbrev  0x000000000000b790       0x44 c:/program files/microchip/xc32/v4.45/bin/bin/../../lib/gcc/pic32c/8.3.1/../../../../pic32c/lib/thumb/v7e-m+fp/hard\libpic32c.a(data_init.o)
 .debug_abbrev  0x000000000000b7d4       0x96 c:/program files/microchip/xc32/v4.45/bin/bin/../../lib/gcc/pic32c/8.3.1/../../../../pic32c/lib/thumb/v7e-m+fp/hard\libc-size-musl.a(memcmp.o)
 .debug_abbrev  0x000000000000b86a       0xbb c:/program files/microchip/xc32/v4.45/bin/bin/../../lib/gcc/pic32c/8.3.1/../../../../pic32c/lib/thumb/v7e-m+fp/hard\libc-size-musl.a(memcpy.o)
 .debug_abbrev  0x000000000000b925       0xa2 c:/program files/microchip/xc32/v4.45/bin/bin/../../lib/gcc/pic32c/8.3.1/../../../../pic32c/lib/thumb/v7e-m+fp/hard\libc-size-musl.a(memset.o)
 .debug_abbrev  0x000000000000b9c7       0x91 c:/program files/microchip/xc32/v4.45/bin/bin/../../lib/gcc/pic32c/8.3.1/../../../../pic32c/lib/thumb/v7e-m+fp/hard\libc-size-musl.a(strlen.o)
 .debug_abbrev  0x000000000000ba58       0xad c:/program files/microchip/xc32/v4.45/bin/bin/../../lib/gcc/pic32c/8.3.1/../../../../pic32c/lib/thumb/v7e-m+fp/hard\libc-size-musl.a(strchr.o)
 .debug_abbrev  0x000000000000bb05       0xb0 c:/program files/microchip/xc32/v4.45/bin/bin/../../lib/gcc/pic32c/8.3.1/../../../../pic32c/lib/thumb/v7e-m+fp/hard\libc-size-musl.a(strchrnul.o)
 .debug_abbrev  0x000000000000bbb5       0x6e c:/program files/microchip/xc32/v4.45/bin/bin/../../lib/gcc/pic32c/8.3.1/../../../../pic32c/lib/thumb/v7e-m+fp/hard\libc-size-musl.a(strcmp.o)
 .debug_abbrev  0x000000000000bc23       0xa2 c:/program files/microchip/xc32/v4.45/bin/bin/../../lib/gcc/pic32c/8.3.1/../../../../pic32c/lib/thumb/v7e-m+fp/hard\libc-size-musl.a(strcpy.o)
 .debug_abbrev  0x000000000000bcc5       0x91 c:/program files/microchip/xc32/v4.45/bin/bin/../../lib/gcc/pic32c/8.3.1/../../../../pic32c/lib/thumb/v7e-m+fp/hard\libc-size-musl.a(strncmp.o)
 .debug_abbrev  0x000000000000bd56       0x9d c:/program files/microchip/xc32/v4.45/bin/bin/../../lib/gcc/pic32c/8.3.1/../../../../pic32c/lib/thumb/v7e-m+fp/hard\libc-size-musl.a(strncpy.o)
 .debug_abbrev  0x000000000000bdf3       0xa9 c:/program files/microchip/xc32/v4.45/bin/bin/../../lib/gcc/pic32c/8.3.1/../../../../pic32c/lib/thumb/v7e-m+fp/hard\libc-size-musl.a(strrchr.o)
 .debug_abbrev  0x000000000000be9c       0xac c:/program files/microchip/xc32/v4.45/bin/bin/../../lib/gcc/pic32c/8.3.1/../../../../pic32c/lib/thumb/v7e-m+fp/hard\libc-size-musl.a(strtok.o)
 .debug_abbrev  0x000000000000bf48       0x9d c:/program files/microchip/xc32/v4.45/bin/bin/../../lib/gcc/pic32c/8.3.1/../../../../pic32c/lib/thumb/v7e-m+fp/hard\libc-size-musl.a(memrchr.o)
 .debug_abbrev  0x000000000000bfe5       0x6e c:/program files/microchip/xc32/v4.45/bin/bin/../../lib/gcc/pic32c/8.3.1/../../../../pic32c/lib/thumb/v7e-m+fp/hard\libc-size-musl.a(stpcpy.o)
 .debug_abbrev  0x000000000000c053       0xa5 c:/program files/microchip/xc32/v4.45/bin/bin/../../lib/gcc/pic32c/8.3.1/../../../../pic32c/lib/thumb/v7e-m+fp/hard\libc-size-musl.a(stpncpy.o)
 .debug_abbrev  0x000000000000c0f8       0xe1 c:/program files/microchip/xc32/v4.45/bin/bin/../../lib/gcc/pic32c/8.3.1/../../../../pic32c/lib/thumb/v7e-m+fp/hard\libc-size-musl.a(strcspn.o)
 .debug_abbrev  0x000000000000c1d9       0xd2 c:/program files/microchip/xc32/v4.45/bin/bin/../../lib/gcc/pic32c/8.3.1/../../../../pic32c/lib/thumb/v7e-m+fp/hard\libc-size-musl.a(strspn.o)
 .debug_abbrev  0x000000000000c2ab      0x195 c:/program files/microchip/xc32/v4.45/bin/bin/../../lib/gcc/pic32c/8.3.1/../../../../pic32c/lib/thumb/v7e-m+fp/hard\liblmalloc-musl.a(lite_free.o)
 .debug_abbrev  0x000000000000c440      0x117 c:/program files/microchip/xc32/v4.45/bin/bin/../../lib/gcc/pic32c/8.3.1/../../../../pic32c/lib/thumb/v7e-m+fp/hard\liblmalloc-musl.a(lite_malloc.o)
 .debug_abbrev  0x000000000000c557      0x108 c:/program files/microchip/xc32/v4.45/bin/bin/../../lib/gcc/pic32c/8.3.1/../../../../pic32c/lib/thumb/v7e-m+fp/hard\libc-musl.a(isxdigit.o)
 .debug_abbrev  0x000000000000c65f      0x108 c:/program files/microchip/xc32/v4.45/bin/bin/../../lib/gcc/pic32c/8.3.1/../../../../pic32c/lib/thumb/v7e-m+fp/hard\libc-musl.a(tolower.o)
 .debug_abbrev  0x000000000000c767      0x108 c:/program files/microchip/xc32/v4.45/bin/bin/../../lib/gcc/pic32c/8.3.1/../../../../pic32c/lib/thumb/v7e-m+fp/hard\libc-musl.a(toupper.o)
 .debug_abbrev  0x000000000000c86f      0x133 c:/program files/microchip/xc32/v4.45/bin/bin/../../lib/gcc/pic32c/8.3.1/../../../../pic32c/lib/thumb/v7e-m+fp/hard\libc-musl.a(__libc_start_main.o)
 .debug_abbrev  0x000000000000c9a2       0x39 c:/program files/microchip/xc32/v4.45/bin/bin/../../lib/gcc/pic32c/8.3.1/../../../../pic32c/lib/thumb/v7e-m+fp/hard\libc-musl.a(__errno_location.o)
 .debug_abbrev  0x000000000000c9db       0xd4 c:/program files/microchip/xc32/v4.45/bin/bin/../../lib/gcc/pic32c/8.3.1/../../../../pic32c/lib/thumb/v7e-m+fp/hard\libc-musl.a(libc.o)
 .debug_abbrev  0x000000000000caaf       0xc4 c:/program files/microchip/xc32/v4.45/bin/bin/../../lib/gcc/pic32c/8.3.1/../../../../pic32c/lib/thumb/v7e-m+fp/hard\libc-musl.a(expand_heap.o)
 .debug_abbrev  0x000000000000cb73       0x96 c:/program files/microchip/xc32/v4.45/bin/bin/../../lib/gcc/pic32c/8.3.1/../../../../pic32c/lib/thumb/v7e-m+fp/hard\libc-musl.a(rand.o)
 .debug_abbrev  0x000000000000cc09      0x195 c:/program files/microchip/xc32/v4.45/bin/bin/../../lib/gcc/pic32c/8.3.1/../../../../pic32c/lib/thumb/v7e-m+fp/hard\libc-musl.a(vsnprintf.o)
 .debug_abbrev  0x000000000000cd9e      0x106 c:/program files/microchip/xc32/v4.45/bin/bin/../../lib/gcc/pic32c/8.3.1/../../../../pic32c/lib/thumb/v7e-m+fp/hard\libc-musl.a(snprintf.o)
 .debug_abbrev  0x000000000000cea4      0x106 c:/program files/microchip/xc32/v4.45/bin/bin/../../lib/gcc/pic32c/8.3.1/../../../../pic32c/lib/thumb/v7e-m+fp/hard\libc-musl.a(sprintf.o)
 .debug_abbrev  0x000000000000cfaa       0xce c:/program files/microchip/xc32/v4.45/bin/bin/../../lib/gcc/pic32c/8.3.1/../../../../pic32c/lib/thumb/v7e-m+fp/hard\libc-musl.a(vsprintf.o)
 .debug_abbrev  0x000000000000d078       0xc6 c:/program files/microchip/xc32/v4.45/bin/bin/../../lib/gcc/pic32c/8.3.1/../../../../pic32c/lib/thumb/v7e-m+fp/hard\libc-musl.a(atoi.o)
 .debug_abbrev  0x000000000000d13e      0x1cf c:/program files/microchip/xc32/v4.45/bin/bin/../../lib/gcc/pic32c/8.3.1/../../../../pic32c/lib/thumb/v7e-m+fp/hard\libc-musl.a(strtol.o)
 .debug_abbrev  0x000000000000d30d       0x62 c:/program files/microchip/xc32/v4.45/bin/bin/../../lib/gcc/pic32c/8.3.1/../../../../pic32c/lib/thumb/v7e-m+fp/hard\libc-musl.a(__environ.o)
 .debug_abbrev  0x000000000000d36f      0x1f8 c:/program files/microchip/xc32/v4.45/bin/bin/../../lib/gcc/pic32c/8.3.1/../../../../pic32c/lib/thumb/v7e-m+fp/hard\libc-musl.a(intscan.o)
 .debug_abbrev  0x000000000000d567      0x166 c:/program files/microchip/xc32/v4.45/bin/bin/../../lib/gcc/pic32c/8.3.1/../../../../pic32c/lib/thumb/v7e-m+fp/hard\libc-musl.a(shgetc.o)
 .debug_abbrev  0x000000000000d6cd      0x141 c:/program files/microchip/xc32/v4.45/bin/bin/../../lib/gcc/pic32c/8.3.1/../../../../pic32c/lib/thumb/v7e-m+fp/hard\libc-musl.a(__uflow.o)
 .debug_abbrev  0x000000000000d80e      0x189 c:/program files/microchip/xc32/v4.45/bin/bin/../../lib/gcc/pic32c/8.3.1/../../../../pic32c/lib/thumb/v7e-m+fp/hard\libc-musl.a(vfprintf.o)
 .debug_abbrev  0x000000000000d997      0x14b c:/program files/microchip/xc32/v4.45/bin/bin/../../lib/gcc/pic32c/8.3.1/../../../../pic32c/lib/thumb/v7e-m+fp/hard\libc-musl.a(__toread.o)
 .debug_abbrev  0x000000000000dae2       0xdc c:/program files/microchip/xc32/v4.45/bin/bin/../../lib/gcc/pic32c/8.3.1/../../../../pic32c/lib/thumb/v7e-m+fp/hard\libc-musl.a(__pop_float.o)
 .debug_abbrev  0x000000000000dbbe       0xdc c:/program files/microchip/xc32/v4.45/bin/bin/../../lib/gcc/pic32c/8.3.1/../../../../pic32c/lib/thumb/v7e-m+fp/hard\libc-musl.a(__pop_int.o)
 .debug_abbrev  0x000000000000dc9a       0xed c:/program files/microchip/xc32/v4.45/bin/bin/../../lib/gcc/pic32c/8.3.1/../../../../pic32c/lib/thumb/v7e-m+fp/hard\libc-musl.a(__pop_ptr.o)
 .debug_abbrev  0x000000000000dd87      0x332 c:/program files/microchip/xc32/v4.45/bin/bin/../../lib/gcc/pic32c/8.3.1/../../../../pic32c/lib/thumb/v7e-m+fp/hard\libc-musl.a(__printf_core.o)
 .debug_abbrev  0x000000000000e0b9      0x1d5 c:/program files/microchip/xc32/v4.45/bin/bin/../../lib/gcc/pic32c/8.3.1/../../../../pic32c/lib/thumb/v7e-m+fp/hard\libc-musl.a(__fmt_a.o)
 .debug_abbrev  0x000000000000e28e      0x161 c:/program files/microchip/xc32/v4.45/bin/bin/../../lib/gcc/pic32c/8.3.1/../../../../pic32c/lib/thumb/v7e-m+fp/hard\libc-musl.a(__fmt_d.o)
 .debug_abbrev  0x000000000000e3ef      0x1f4 c:/program files/microchip/xc32/v4.45/bin/bin/../../lib/gcc/pic32c/8.3.1/../../../../pic32c/lib/thumb/v7e-m+fp/hard\libc-musl.a(__fmt_fp.o)
 .debug_abbrev  0x000000000000e5e3      0x161 c:/program files/microchip/xc32/v4.45/bin/bin/../../lib/gcc/pic32c/8.3.1/../../../../pic32c/lib/thumb/v7e-m+fp/hard\libc-musl.a(__fmt_o.o)
 .debug_abbrev  0x000000000000e744      0x14c c:/program files/microchip/xc32/v4.45/bin/bin/../../lib/gcc/pic32c/8.3.1/../../../../pic32c/lib/thumb/v7e-m+fp/hard\libc-musl.a(__fmt_s.o)
 .debug_abbrev  0x000000000000e890      0x161 c:/program files/microchip/xc32/v4.45/bin/bin/../../lib/gcc/pic32c/8.3.1/../../../../pic32c/lib/thumb/v7e-m+fp/hard\libc-musl.a(__fmt_u.o)
 .debug_abbrev  0x000000000000e9f1      0x150 c:/program files/microchip/xc32/v4.45/bin/bin/../../lib/gcc/pic32c/8.3.1/../../../../pic32c/lib/thumb/v7e-m+fp/hard\libc-musl.a(__fmt_x.o)
 .debug_abbrev  0x000000000000eb41       0xe5 c:/program files/microchip/xc32/v4.45/bin/bin/../../lib/gcc/pic32c/8.3.1/../../../../pic32c/lib/thumb/v7e-m+fp/hard\libc-musl.a(__cvt_u.o)
 .debug_abbrev  0x000000000000ec26       0x14 c:/program files/microchip/xc32/v4.45/bin/bin/../../lib/gcc/pic32c/8.3.1/thumb/v7e-m+fp/hard\libgcc.a(_aeabi_uldivmod.o)
 .debug_abbrev  0x000000000000ec3a      0x122 c:/program files/microchip/xc32/v4.45/bin/bin/../../lib/gcc/pic32c/8.3.1/thumb/v7e-m+fp/hard\libgcc.a(_udivmoddi4.o)
 .debug_abbrev  0x000000000000ed5c       0x14 c:/program files/microchip/xc32/v4.45/bin/bin/../../lib/gcc/pic32c/8.3.1/thumb/v7e-m+fp/hard\libgcc.a(_dvmd_tls.o)
 .debug_abbrev  0x000000000000ed70       0x44 c:/program files/microchip/xc32/v4.45/bin/bin/../../lib/gcc/pic32c/8.3.1/../../../../pic32c/lib/thumb/v7e-m+fp/hard\libpic32c.a(sbrk.o)
 .debug_abbrev  0x000000000000edb4       0x2e c:/program files/microchip/xc32/v4.45/bin/bin/../../lib/gcc/pic32c/8.3.1/../../../../pic32c/lib/thumb/v7e-m+fp/hard\libpic32c.a(pic32_data_init_clear.o)
 .debug_abbrev  0x000000000000ede2       0x2e c:/program files/microchip/xc32/v4.45/bin/bin/../../lib/gcc/pic32c/8.3.1/../../../../pic32c/lib/thumb/v7e-m+fp/hard\libpic32c.a(pic32_data_init_copy.o)

.debug_loc      0x0000000000000000    0x5894c
 .debug_loc     0x0000000000000000     0x334c build/FreeRTOS/production/_ext/1609394304/crypto.o
 .debug_loc     0x000000000000334c     0x4f3f build/FreeRTOS/production/_ext/1785105562/tc6.o
 .debug_loc     0x000000000000828b     0x43c6 build/FreeRTOS/production/_ext/585597058/drv_lan865x_api.o
 .debug_loc     0x000000000000c651     0x1e9b build/FreeRTOS/production/_ext/1348046844/drv_spi.o
 .debug_loc     0x000000000000e4ec      0x566 build/FreeRTOS/production/_ext/540595297/helpers.o
 .debug_loc     0x000000000000ea52     0x2850 build/FreeRTOS/production/_ext/540595297/tcpip_commands.o
 .debug_loc     0x00000000000112a2      0xbf3 build/FreeRTOS/production/_ext/540595297/tcpip_packet.o
 .debug_loc     0x0000000000011e95     0x3aa9 build/FreeRTOS/production/_ext/540595297/tcpip_helpers.o
 .debug_loc     0x000000000001593e     0x1006 build/FreeRTOS/production/_ext/540595297/tcpip_heap_internal.o
 .debug_loc     0x0000000000016944      0x458 build/FreeRTOS/production/_ext/540595297/tcpip_notify.o
 .debug_loc     0x0000000000016d9c     0x234a build/FreeRTOS/production/_ext/540595297/iperf.o
 .debug_loc     0x00000000000190e6     0x8305 build/FreeRTOS/production/_ext/540595297/tcp.o
 .debug_loc     0x00000000000213eb     0x4eef build/FreeRTOS/production/_ext/540595297/udp.o
 .debug_loc     0x00000000000262da     0x7bcb build/FreeRTOS/production/_ext/540595297/tcpip_manager.o
 .debug_loc     0x000000000002dea5      0x24c build/FreeRTOS/production/_ext/540595297/tcpip_heap_alloc.o
 .debug_loc     0x000000000002e0f1      0x21b build/FreeRTOS/production/_ext/540595297/hash_fnv.o
 .debug_loc     0x000000000002e30c     0x3bec build/FreeRTOS/production/_ext/540595297/arp.o
 .debug_loc     0x0000000000031ef8      0xc96 build/FreeRTOS/production/_ext/540595297/icmp.o
 .debug_loc     0x0000000000032b8e     0x30b3 build/FreeRTOS/production/_ext/540595297/ipv4.o
 .debug_loc     0x0000000000035c41      0x5f3 build/FreeRTOS/production/_ext/540595297/oahash.o
 .debug_loc     0x0000000000036234     0x4085 build/FreeRTOS/production/_ext/540595297/dns.o
 .debug_loc     0x000000000003a2b9      0x727 build/FreeRTOS/production/_ext/891571577/osal_freertos.o
 .debug_loc     0x000000000003a9e0      0x921 build/FreeRTOS/production/_ext/1495216012/plib_dmac.o
 .debug_loc     0x000000000003b301      0x38a build/FreeRTOS/production/_ext/1494909205/plib_nvic.o
 .debug_loc     0x000000000003b68b      0x83e build/FreeRTOS/production/_ext/320424729/plib_nvmctrl.o
 .debug_loc     0x000000000003bec9      0x1bc build/FreeRTOS/production/_ext/1494856054/plib_port.o
 .debug_loc     0x000000000003c085      0x6ae build/FreeRTOS/production/_ext/1428073114/plib_sercom0_spi_master.o
 .debug_loc     0x000000000003c733      0xcc6 build/FreeRTOS/production/_ext/2092608928/plib_sercom1_usart.o
 .debug_loc     0x000000000003d3f9       0x74 build/FreeRTOS/production/_ext/579449528/plib_tc0.o
 .debug_loc     0x000000000003d46d     0x2179 build/FreeRTOS/production/_ext/1005353002/sys_command.o
 .debug_loc     0x000000000003f5e6      0xc76 build/FreeRTOS/production/_ext/548640822/sys_console.o
 .debug_loc     0x000000000004025c      0x852 build/FreeRTOS/production/_ext/548640822/sys_console_uart.o
 .debug_loc     0x0000000000040aae       0xe0 build/FreeRTOS/production/_ext/147610190/sys_debug.o
 .debug_loc     0x0000000000040b8e      0x180 build/FreeRTOS/production/_ext/50312702/sys_dma.o
 .debug_loc     0x0000000000040d0e      0x182 build/FreeRTOS/production/_ext/1690414130/sys_int.o
 .debug_loc     0x0000000000040e90     0x230e build/FreeRTOS/production/_ext/832704728/sys_time.o
 .debug_loc     0x000000000004319e      0x152 build/FreeRTOS/production/_ext/2072568807/sys_time_h2_adapter.o
 .debug_loc     0x00000000000432f0      0x4c3 build/FreeRTOS/production/_ext/2072568807/sys_random_h2_adapter.o
 .debug_loc     0x00000000000437b3      0x107 build/FreeRTOS/production/_ext/161576091/tasks.o
 .debug_loc     0x00000000000438ba       0x82 build/FreeRTOS/production/_ext/161576091/freertos_hooks.o
 .debug_loc     0x000000000004393c       0x4a build/FreeRTOS/production/_ext/161576091/startup_xc32.o
 .debug_loc     0x0000000000043986       0x7d build/FreeRTOS/production/_ext/161576091/initialization.o
 .debug_loc     0x0000000000043a03      0x13a build/FreeRTOS/production/_ext/246609638/port.o
 .debug_loc     0x0000000000043b3d       0x8f build/FreeRTOS/production/_ext/1665200909/heap_1.o
 .debug_loc     0x0000000000043bcc       0xb2 build/FreeRTOS/production/_ext/404212886/list.o
 .debug_loc     0x0000000000043c7e     0x2565 build/FreeRTOS/production/_ext/404212886/FreeRTOS_tasks.o
 .debug_loc     0x00000000000461e3     0x191e build/FreeRTOS/production/_ext/404212886/queue.o
 .debug_loc     0x0000000000047b01       0x45 build/FreeRTOS/production/_ext/172253694/crypt_wolfcryptcb.o
 .debug_loc     0x0000000000047b46     0x2df9 build/FreeRTOS/production/_ext/1664057780/md5.o
 .debug_loc     0x000000000004a93f     0x28f9 build/FreeRTOS/production/_ext/1664057780/sha256.o
 .debug_loc     0x000000000004d238     0x2997 build/FreeRTOS/production/_ext/1664057780/random.o
 .debug_loc     0x000000000004fbcf     0x30a8 build/FreeRTOS/production/_ext/1664057780/cryptocb.o
 .debug_loc     0x0000000000052c77       0xb3 build/FreeRTOS/production/_ext/1360937237/app.o
 .debug_loc     0x0000000000052d2a       0x20 build/FreeRTOS/production/_ext/1360937237/main.o
 .debug_loc     0x0000000000052d4a       0x14 c:/program files/microchip/xc32/v4.45/bin/bin/../../lib/gcc/pic32c/8.3.1/../../../../pic32c/lib/thumb/v7e-m+fp/hard\libpic32c.a(data_init.o)
 .debug_loc     0x0000000000052d5e      0x10c c:/program files/microchip/xc32/v4.45/bin/bin/../../lib/gcc/pic32c/8.3.1/../../../../pic32c/lib/thumb/v7e-m+fp/hard\libc-size-musl.a(memcmp.o)
 .debug_loc     0x0000000000052e6a      0x10b c:/program files/microchip/xc32/v4.45/bin/bin/../../lib/gcc/pic32c/8.3.1/../../../../pic32c/lib/thumb/v7e-m+fp/hard\libc-size-musl.a(memcpy.o)
 .debug_loc     0x0000000000052f75       0x7d c:/program files/microchip/xc32/v4.45/bin/bin/../../lib/gcc/pic32c/8.3.1/../../../../pic32c/lib/thumb/v7e-m+fp/hard\libc-size-musl.a(memset.o)
 .debug_loc     0x0000000000052ff2       0x90 c:/program files/microchip/xc32/v4.45/bin/bin/../../lib/gcc/pic32c/8.3.1/../../../../pic32c/lib/thumb/v7e-m+fp/hard\libc-size-musl.a(strlen.o)
 .debug_loc     0x0000000000053082       0x8c c:/program files/microchip/xc32/v4.45/bin/bin/../../lib/gcc/pic32c/8.3.1/../../../../pic32c/lib/thumb/v7e-m+fp/hard\libc-size-musl.a(strchr.o)
 .debug_loc     0x000000000005310e      0x11a c:/program files/microchip/xc32/v4.45/bin/bin/../../lib/gcc/pic32c/8.3.1/../../../../pic32c/lib/thumb/v7e-m+fp/hard\libc-size-musl.a(strchrnul.o)
 .debug_loc     0x0000000000053228       0x96 c:/program files/microchip/xc32/v4.45/bin/bin/../../lib/gcc/pic32c/8.3.1/../../../../pic32c/lib/thumb/v7e-m+fp/hard\libc-size-musl.a(strcmp.o)
 .debug_loc     0x00000000000532be       0x67 c:/program files/microchip/xc32/v4.45/bin/bin/../../lib/gcc/pic32c/8.3.1/../../../../pic32c/lib/thumb/v7e-m+fp/hard\libc-size-musl.a(strcpy.o)
 .debug_loc     0x0000000000053325      0x1b1 c:/program files/microchip/xc32/v4.45/bin/bin/../../lib/gcc/pic32c/8.3.1/../../../../pic32c/lib/thumb/v7e-m+fp/hard\libc-size-musl.a(strncmp.o)
 .debug_loc     0x00000000000534d6       0x8c c:/program files/microchip/xc32/v4.45/bin/bin/../../lib/gcc/pic32c/8.3.1/../../../../pic32c/lib/thumb/v7e-m+fp/hard\libc-size-musl.a(strncpy.o)
 .debug_loc     0x0000000000053562       0xaa c:/program files/microchip/xc32/v4.45/bin/bin/../../lib/gcc/pic32c/8.3.1/../../../../pic32c/lib/thumb/v7e-m+fp/hard\libc-size-musl.a(strrchr.o)
 .debug_loc     0x000000000005360c       0x71 c:/program files/microchip/xc32/v4.45/bin/bin/../../lib/gcc/pic32c/8.3.1/../../../../pic32c/lib/thumb/v7e-m+fp/hard\libc-size-musl.a(strtok.o)
 .debug_loc     0x000000000005367d       0xc6 c:/program files/microchip/xc32/v4.45/bin/bin/../../lib/gcc/pic32c/8.3.1/../../../../pic32c/lib/thumb/v7e-m+fp/hard\libc-size-musl.a(memrchr.o)
 .debug_loc     0x0000000000053743       0x60 c:/program files/microchip/xc32/v4.45/bin/bin/../../lib/gcc/pic32c/8.3.1/../../../../pic32c/lib/thumb/v7e-m+fp/hard\libc-size-musl.a(stpcpy.o)
 .debug_loc     0x00000000000537a3      0x13f c:/program files/microchip/xc32/v4.45/bin/bin/../../lib/gcc/pic32c/8.3.1/../../../../pic32c/lib/thumb/v7e-m+fp/hard\libc-size-musl.a(stpncpy.o)
 .debug_loc     0x00000000000538e2      0x13d c:/program files/microchip/xc32/v4.45/bin/bin/../../lib/gcc/pic32c/8.3.1/../../../../pic32c/lib/thumb/v7e-m+fp/hard\libc-size-musl.a(strcspn.o)
 .debug_loc     0x0000000000053a1f      0x13f c:/program files/microchip/xc32/v4.45/bin/bin/../../lib/gcc/pic32c/8.3.1/../../../../pic32c/lib/thumb/v7e-m+fp/hard\libc-size-musl.a(strspn.o)
 .debug_loc     0x0000000000053b5e      0x2ed c:/program files/microchip/xc32/v4.45/bin/bin/../../lib/gcc/pic32c/8.3.1/../../../../pic32c/lib/thumb/v7e-m+fp/hard\liblmalloc-musl.a(lite_free.o)
 .debug_loc     0x0000000000053e4b       0xf3 c:/program files/microchip/xc32/v4.45/bin/bin/../../lib/gcc/pic32c/8.3.1/../../../../pic32c/lib/thumb/v7e-m+fp/hard\liblmalloc-musl.a(lite_malloc.o)
 .debug_loc     0x0000000000053f3e       0x65 c:/program files/microchip/xc32/v4.45/bin/bin/../../lib/gcc/pic32c/8.3.1/../../../../pic32c/lib/thumb/v7e-m+fp/hard\libc-musl.a(isxdigit.o)
 .debug_loc     0x0000000000053fa3       0x4a c:/program files/microchip/xc32/v4.45/bin/bin/../../lib/gcc/pic32c/8.3.1/../../../../pic32c/lib/thumb/v7e-m+fp/hard\libc-musl.a(tolower.o)
 .debug_loc     0x0000000000053fed       0x4a c:/program files/microchip/xc32/v4.45/bin/bin/../../lib/gcc/pic32c/8.3.1/../../../../pic32c/lib/thumb/v7e-m+fp/hard\libc-musl.a(toupper.o)
 .debug_loc     0x0000000000054037       0x51 c:/program files/microchip/xc32/v4.45/bin/bin/../../lib/gcc/pic32c/8.3.1/../../../../pic32c/lib/thumb/v7e-m+fp/hard\libc-musl.a(__libc_start_main.o)
 .debug_loc     0x0000000000054088       0x7c c:/program files/microchip/xc32/v4.45/bin/bin/../../lib/gcc/pic32c/8.3.1/../../../../pic32c/lib/thumb/v7e-m+fp/hard\libc-musl.a(expand_heap.o)
 .debug_loc     0x0000000000054104       0x24 c:/program files/microchip/xc32/v4.45/bin/bin/../../lib/gcc/pic32c/8.3.1/../../../../pic32c/lib/thumb/v7e-m+fp/hard\libc-musl.a(rand.o)
 .debug_loc     0x0000000000054128       0xeb c:/program files/microchip/xc32/v4.45/bin/bin/../../lib/gcc/pic32c/8.3.1/../../../../pic32c/lib/thumb/v7e-m+fp/hard\libc-musl.a(vsnprintf.o)
 .debug_loc     0x0000000000054213       0xaf c:/program files/microchip/xc32/v4.45/bin/bin/../../lib/gcc/pic32c/8.3.1/../../../../pic32c/lib/thumb/v7e-m+fp/hard\libc-musl.a(snprintf.o)
 .debug_loc     0x00000000000542c2       0x8a c:/program files/microchip/xc32/v4.45/bin/bin/../../lib/gcc/pic32c/8.3.1/../../../../pic32c/lib/thumb/v7e-m+fp/hard\libc-musl.a(sprintf.o)
 .debug_loc     0x000000000005434c       0x6c c:/program files/microchip/xc32/v4.45/bin/bin/../../lib/gcc/pic32c/8.3.1/../../../../pic32c/lib/thumb/v7e-m+fp/hard\libc-musl.a(vsprintf.o)
 .debug_loc     0x00000000000543b8       0xd8 c:/program files/microchip/xc32/v4.45/bin/bin/../../lib/gcc/pic32c/8.3.1/../../../../pic32c/lib/thumb/v7e-m+fp/hard\libc-musl.a(atoi.o)
 .debug_loc     0x0000000000054490      0x440 c:/program files/microchip/xc32/v4.45/bin/bin/../../lib/gcc/pic32c/8.3.1/../../../../pic32c/lib/thumb/v7e-m+fp/hard\libc-musl.a(strtol.o)
 .debug_loc     0x00000000000548d0      0x5df c:/program files/microchip/xc32/v4.45/bin/bin/../../lib/gcc/pic32c/8.3.1/../../../../pic32c/lib/thumb/v7e-m+fp/hard\libc-musl.a(intscan.o)
 .debug_loc     0x0000000000054eaf       0x91 c:/program files/microchip/xc32/v4.45/bin/bin/../../lib/gcc/pic32c/8.3.1/../../../../pic32c/lib/thumb/v7e-m+fp/hard\libc-musl.a(shgetc.o)
 .debug_loc     0x0000000000054f40       0x5a c:/program files/microchip/xc32/v4.45/bin/bin/../../lib/gcc/pic32c/8.3.1/../../../../pic32c/lib/thumb/v7e-m+fp/hard\libc-musl.a(__uflow.o)
 .debug_loc     0x0000000000054f9a       0x88 c:/program files/microchip/xc32/v4.45/bin/bin/../../lib/gcc/pic32c/8.3.1/../../../../pic32c/lib/thumb/v7e-m+fp/hard\libc-musl.a(vfprintf.o)
 .debug_loc     0x0000000000055022       0x42 c:/program files/microchip/xc32/v4.45/bin/bin/../../lib/gcc/pic32c/8.3.1/../../../../pic32c/lib/thumb/v7e-m+fp/hard\libc-musl.a(__toread.o)
 .debug_loc     0x0000000000055064       0xa6 c:/program files/microchip/xc32/v4.45/bin/bin/../../lib/gcc/pic32c/8.3.1/../../../../pic32c/lib/thumb/v7e-m+fp/hard\libc-musl.a(__pop_float.o)
 .debug_loc     0x000000000005510a      0x2f5 c:/program files/microchip/xc32/v4.45/bin/bin/../../lib/gcc/pic32c/8.3.1/../../../../pic32c/lib/thumb/v7e-m+fp/hard\libc-musl.a(__pop_int.o)
 .debug_loc     0x00000000000553ff      0x1db c:/program files/microchip/xc32/v4.45/bin/bin/../../lib/gcc/pic32c/8.3.1/../../../../pic32c/lib/thumb/v7e-m+fp/hard\libc-musl.a(__pop_ptr.o)
 .debug_loc     0x00000000000555da      0x5e9 c:/program files/microchip/xc32/v4.45/bin/bin/../../lib/gcc/pic32c/8.3.1/../../../../pic32c/lib/thumb/v7e-m+fp/hard\libc-musl.a(__printf_core.o)
 .debug_loc     0x0000000000055bc3      0xb29 c:/program files/microchip/xc32/v4.45/bin/bin/../../lib/gcc/pic32c/8.3.1/../../../../pic32c/lib/thumb/v7e-m+fp/hard\libc-musl.a(__fmt_a.o)
 .debug_loc     0x00000000000566ec      0x1ef c:/program files/microchip/xc32/v4.45/bin/bin/../../lib/gcc/pic32c/8.3.1/../../../../pic32c/lib/thumb/v7e-m+fp/hard\libc-musl.a(__fmt_d.o)
 .debug_loc     0x00000000000568db      0xa5d c:/program files/microchip/xc32/v4.45/bin/bin/../../lib/gcc/pic32c/8.3.1/../../../../pic32c/lib/thumb/v7e-m+fp/hard\libc-musl.a(__fmt_fp.o)
 .debug_loc     0x0000000000057338      0x10a c:/program files/microchip/xc32/v4.45/bin/bin/../../lib/gcc/pic32c/8.3.1/../../../../pic32c/lib/thumb/v7e-m+fp/hard\libc-musl.a(__fmt_o.o)
 .debug_loc     0x0000000000057442      0x157 c:/program files/microchip/xc32/v4.45/bin/bin/../../lib/gcc/pic32c/8.3.1/../../../../pic32c/lib/thumb/v7e-m+fp/hard\libc-musl.a(__fmt_s.o)
 .debug_loc     0x0000000000057599      0x10a c:/program files/microchip/xc32/v4.45/bin/bin/../../lib/gcc/pic32c/8.3.1/../../../../pic32c/lib/thumb/v7e-m+fp/hard\libc-musl.a(__fmt_u.o)
 .debug_loc     0x00000000000576a3      0x26d c:/program files/microchip/xc32/v4.45/bin/bin/../../lib/gcc/pic32c/8.3.1/../../../../pic32c/lib/thumb/v7e-m+fp/hard\libc-musl.a(__fmt_x.o)
 .debug_loc     0x0000000000057910      0x197 c:/program files/microchip/xc32/v4.45/bin/bin/../../lib/gcc/pic32c/8.3.1/../../../../pic32c/lib/thumb/v7e-m+fp/hard\libc-musl.a(__cvt_u.o)
 .debug_loc     0x0000000000057aa7      0xe69 c:/program files/microchip/xc32/v4.45/bin/bin/../../lib/gcc/pic32c/8.3.1/thumb/v7e-m+fp/hard\libgcc.a(_udivmoddi4.o)
 .debug_loc     0x0000000000058910       0x28 c:/program files/microchip/xc32/v4.45/bin/bin/../../lib/gcc/pic32c/8.3.1/../../../../pic32c/lib/thumb/v7e-m+fp/hard\libpic32c.a(sbrk.o)
 .debug_loc     0x0000000000058938       0x14 c:/program files/microchip/xc32/v4.45/bin/bin/../../lib/gcc/pic32c/8.3.1/../../../../pic32c/lib/thumb/v7e-m+fp/hard\libpic32c.a(pic32_data_init_copy.o)

.debug_aranges  0x0000000000000000     0x2ea8
 .debug_aranges
                0x0000000000000000      0x1d0 build/FreeRTOS/production/_ext/1609394304/crypto.o
 .debug_aranges
                0x00000000000001d0       0xd0 build/FreeRTOS/production/_ext/1785105562/tc6.o
 .debug_aranges
                0x00000000000002a0      0x190 build/FreeRTOS/production/_ext/585597058/drv_lan865x_api.o
 .debug_aranges
                0x0000000000000430       0xb8 build/FreeRTOS/production/_ext/1348046844/drv_spi.o
 .debug_aranges
                0x00000000000004e8       0x48 build/FreeRTOS/production/_ext/540595297/helpers.o
 .debug_aranges
                0x0000000000000530       0xb0 build/FreeRTOS/production/_ext/540595297/tcpip_commands.o
 .debug_aranges
                0x00000000000005e0       0x88 build/FreeRTOS/production/_ext/540595297/tcpip_packet.o
 .debug_aranges
                0x0000000000000668      0x220 build/FreeRTOS/production/_ext/540595297/tcpip_helpers.o
 .debug_aranges
                0x0000000000000888       0x68 build/FreeRTOS/production/_ext/540595297/tcpip_heap_internal.o
 .debug_aranges
                0x00000000000008f0       0x48 build/FreeRTOS/production/_ext/540595297/tcpip_notify.o
 .debug_aranges
                0x0000000000000938       0x98 build/FreeRTOS/production/_ext/540595297/iperf.o
 .debug_aranges
                0x00000000000009d0      0x230 build/FreeRTOS/production/_ext/540595297/tcp.o
 .debug_aranges
                0x0000000000000c00      0x1c8 build/FreeRTOS/production/_ext/540595297/udp.o
 .debug_aranges
                0x0000000000000dc8      0x3c8 build/FreeRTOS/production/_ext/540595297/tcpip_manager.o
 .debug_aranges
                0x0000000000001190       0x50 build/FreeRTOS/production/_ext/540595297/tcpip_heap_alloc.o
 .debug_aranges
                0x00000000000011e0       0x28 build/FreeRTOS/production/_ext/540595297/hash_fnv.o
 .debug_aranges
                0x0000000000001208      0x110 build/FreeRTOS/production/_ext/540595297/arp.o
 .debug_aranges
                0x0000000000001318       0x50 build/FreeRTOS/production/_ext/540595297/icmp.o
 .debug_aranges
                0x0000000000001368       0xf0 build/FreeRTOS/production/_ext/540595297/ipv4.o
 .debug_aranges
                0x0000000000001458       0x58 build/FreeRTOS/production/_ext/540595297/oahash.o
 .debug_aranges
                0x00000000000014b0      0x130 build/FreeRTOS/production/_ext/540595297/dns.o
 .debug_aranges
                0x00000000000015e0       0x90 build/FreeRTOS/production/_ext/891571577/osal_freertos.o
 .debug_aranges
                0x0000000000001670       0x20 build/FreeRTOS/production/_ext/892004133/plib_clock.o
 .debug_aranges
                0x0000000000001690       0xa8 build/FreeRTOS/production/_ext/1495216012/plib_dmac.o
 .debug_aranges
                0x0000000000001738       0x20 build/FreeRTOS/production/_ext/894153619/plib_evsys.o
 .debug_aranges
                0x0000000000001758       0x38 build/FreeRTOS/production/_ext/1494909205/plib_nvic.o
 .debug_aranges
                0x0000000000001790       0xd8 build/FreeRTOS/production/_ext/320424729/plib_nvmctrl.o
 .debug_aranges
                0x0000000000001868       0x70 build/FreeRTOS/production/_ext/1494856054/plib_port.o
 .debug_aranges
                0x00000000000018d8       0x60 build/FreeRTOS/production/_ext/1428073114/plib_sercom0_spi_master.o
 .debug_aranges
                0x0000000000001938       0xe8 build/FreeRTOS/production/_ext/2092608928/plib_sercom1_usart.o
 .debug_aranges
                0x0000000000001a20       0x78 build/FreeRTOS/production/_ext/579449528/plib_tc0.o
 .debug_aranges
                0x0000000000001a98       0xf0 build/FreeRTOS/production/_ext/1005353002/sys_command.o
 .debug_aranges
                0x0000000000001b88       0x88 build/FreeRTOS/production/_ext/548640822/sys_console.o
 .debug_aranges
                0x0000000000001c10       0x70 build/FreeRTOS/production/_ext/548640822/sys_console_uart.o
 .debug_aranges
                0x0000000000001c80       0x48 build/FreeRTOS/production/_ext/147610190/sys_debug.o
 .debug_aranges
                0x0000000000001cc8       0x28 build/FreeRTOS/production/_ext/50312702/sys_dma.o
 .debug_aranges
                0x0000000000001cf0       0x40 build/FreeRTOS/production/_ext/1690414130/sys_int.o
 .debug_aranges
                0x0000000000001d30       0x20 build/FreeRTOS/production/_ext/1093154855/sys_reset.o
 .debug_aranges
                0x0000000000001d50      0x128 build/FreeRTOS/production/_ext/832704728/sys_time.o
 .debug_aranges
                0x0000000000001e78       0x40 build/FreeRTOS/production/_ext/2072568807/sys_time_h2_adapter.o
 .debug_aranges
                0x0000000000001eb8       0x50 build/FreeRTOS/production/_ext/2072568807/sys_random_h2_adapter.o
 .debug_aranges
                0x0000000000001f08       0x38 build/FreeRTOS/production/_ext/161576091/tasks.o
 .debug_aranges
                0x0000000000001f40       0x40 build/FreeRTOS/production/_ext/161576091/freertos_hooks.o
 .debug_aranges
                0x0000000000001f80       0x28 build/FreeRTOS/production/_ext/161576091/startup_xc32.o
 .debug_aranges
                0x0000000000001fa8       0x28 build/FreeRTOS/production/_ext/161576091/initialization.o
 .debug_aranges
                0x0000000000001fd0       0x20 build/FreeRTOS/production/_ext/161576091/interrupts.o
 .debug_aranges
                0x0000000000001ff0       0x48 build/FreeRTOS/production/_ext/161576091/exceptions.o
 .debug_aranges
                0x0000000000002038       0x78 build/FreeRTOS/production/_ext/246609638/port.o
 .debug_aranges
                0x00000000000020b0       0x38 build/FreeRTOS/production/_ext/1665200909/heap_1.o
 .debug_aranges
                0x00000000000020e8       0x40 build/FreeRTOS/production/_ext/404212886/list.o
 .debug_aranges
                0x0000000000002128      0x178 build/FreeRTOS/production/_ext/404212886/FreeRTOS_tasks.o
 .debug_aranges
                0x00000000000022a0       0xc8 build/FreeRTOS/production/_ext/404212886/queue.o
 .debug_aranges
                0x0000000000002368       0x28 build/FreeRTOS/production/_ext/172253694/crypt_wolfcryptcb.o
 .debug_aranges
                0x0000000000002390       0x68 build/FreeRTOS/production/_ext/1664057780/md5.o
 .debug_aranges
                0x00000000000023f8       0xb8 build/FreeRTOS/production/_ext/1664057780/sha256.o
 .debug_aranges
                0x00000000000024b0       0xb8 build/FreeRTOS/production/_ext/1664057780/random.o
 .debug_aranges
                0x0000000000002568      0x108 build/FreeRTOS/production/_ext/1664057780/cryptocb.o
 .debug_aranges
                0x0000000000002670       0x28 build/FreeRTOS/production/_ext/1360937237/app.o
 .debug_aranges
                0x0000000000002698       0x20 build/FreeRTOS/production/_ext/1360937237/main.o
 .debug_aranges
                0x00000000000026b8       0x28 c:/program files/microchip/xc32/v4.45/bin/bin/../../lib/gcc/pic32c/8.3.1/../../../../pic32c/lib/thumb/v7e-m+fp/hard\libpic32c.a(data_init.o)
 .debug_aranges
                0x00000000000026e0       0x20 c:/program files/microchip/xc32/v4.45/bin/bin/../../lib/gcc/pic32c/8.3.1/../../../../pic32c/lib/thumb/v7e-m+fp/hard\libc-size-musl.a(memcmp.o)
 .debug_aranges
                0x0000000000002700       0x20 c:/program files/microchip/xc32/v4.45/bin/bin/../../lib/gcc/pic32c/8.3.1/../../../../pic32c/lib/thumb/v7e-m+fp/hard\libc-size-musl.a(memcpy.o)
 .debug_aranges
                0x0000000000002720       0x20 c:/program files/microchip/xc32/v4.45/bin/bin/../../lib/gcc/pic32c/8.3.1/../../../../pic32c/lib/thumb/v7e-m+fp/hard\libc-size-musl.a(memset.o)
 .debug_aranges
                0x0000000000002740       0x20 c:/program files/microchip/xc32/v4.45/bin/bin/../../lib/gcc/pic32c/8.3.1/../../../../pic32c/lib/thumb/v7e-m+fp/hard\libc-size-musl.a(strlen.o)
 .debug_aranges
                0x0000000000002760       0x20 c:/program files/microchip/xc32/v4.45/bin/bin/../../lib/gcc/pic32c/8.3.1/../../../../pic32c/lib/thumb/v7e-m+fp/hard\libc-size-musl.a(strchr.o)
 .debug_aranges
                0x0000000000002780       0x20 c:/program files/microchip/xc32/v4.45/bin/bin/../../lib/gcc/pic32c/8.3.1/../../../../pic32c/lib/thumb/v7e-m+fp/hard\libc-size-musl.a(strchrnul.o)
 .debug_aranges
                0x00000000000027a0       0x20 c:/program files/microchip/xc32/v4.45/bin/bin/../../lib/gcc/pic32c/8.3.1/../../../../pic32c/lib/thumb/v7e-m+fp/hard\libc-size-musl.a(strcmp.o)
 .debug_aranges
                0x00000000000027c0       0x20 c:/program files/microchip/xc32/v4.45/bin/bin/../../lib/gcc/pic32c/8.3.1/../../../../pic32c/lib/thumb/v7e-m+fp/hard\libc-size-musl.a(strcpy.o)
 .debug_aranges
                0x00000000000027e0       0x20 c:/program files/microchip/xc32/v4.45/bin/bin/../../lib/gcc/pic32c/8.3.1/../../../../pic32c/lib/thumb/v7e-m+fp/hard\libc-size-musl.a(strncmp.o)
 .debug_aranges
                0x0000000000002800       0x20 c:/program files/microchip/xc32/v4.45/bin/bin/../../lib/gcc/pic32c/8.3.1/../../../../pic32c/lib/thumb/v7e-m+fp/hard\libc-size-musl.a(strncpy.o)
 .debug_aranges
                0x0000000000002820       0x20 c:/program files/microchip/xc32/v4.45/bin/bin/../../lib/gcc/pic32c/8.3.1/../../../../pic32c/lib/thumb/v7e-m+fp/hard\libc-size-musl.a(strrchr.o)
 .debug_aranges
                0x0000000000002840       0x20 c:/program files/microchip/xc32/v4.45/bin/bin/../../lib/gcc/pic32c/8.3.1/../../../../pic32c/lib/thumb/v7e-m+fp/hard\libc-size-musl.a(strtok.o)
 .debug_aranges
                0x0000000000002860       0x20 c:/program files/microchip/xc32/v4.45/bin/bin/../../lib/gcc/pic32c/8.3.1/../../../../pic32c/lib/thumb/v7e-m+fp/hard\libc-size-musl.a(memrchr.o)
 .debug_aranges
                0x0000000000002880       0x20 c:/program files/microchip/xc32/v4.45/bin/bin/../../lib/gcc/pic32c/8.3.1/../../../../pic32c/lib/thumb/v7e-m+fp/hard\libc-size-musl.a(stpcpy.o)
 .debug_aranges
                0x00000000000028a0       0x20 c:/program files/microchip/xc32/v4.45/bin/bin/../../lib/gcc/pic32c/8.3.1/../../../../pic32c/lib/thumb/v7e-m+fp/hard\libc-size-musl.a(stpncpy.o)
 .debug_aranges
                0x00000000000028c0       0x20 c:/program files/microchip/xc32/v4.45/bin/bin/../../lib/gcc/pic32c/8.3.1/../../../../pic32c/lib/thumb/v7e-m+fp/hard\libc-size-musl.a(strcspn.o)
 .debug_aranges
                0x00000000000028e0       0x20 c:/program files/microchip/xc32/v4.45/bin/bin/../../lib/gcc/pic32c/8.3.1/../../../../pic32c/lib/thumb/v7e-m+fp/hard\libc-size-musl.a(strspn.o)
 .debug_aranges
                0x0000000000002900       0x30 c:/program files/microchip/xc32/v4.45/bin/bin/../../lib/gcc/pic32c/8.3.1/../../../../pic32c/lib/thumb/v7e-m+fp/hard\liblmalloc-musl.a(lite_free.o)
 .debug_aranges
                0x0000000000002930       0x20 c:/program files/microchip/xc32/v4.45/bin/bin/../../lib/gcc/pic32c/8.3.1/../../../../pic32c/lib/thumb/v7e-m+fp/hard\liblmalloc-musl.a(lite_malloc.o)
 .debug_aranges
                0x0000000000002950       0x28 c:/program files/microchip/xc32/v4.45/bin/bin/../../lib/gcc/pic32c/8.3.1/../../../../pic32c/lib/thumb/v7e-m+fp/hard\libc-musl.a(isxdigit.o)
 .debug_aranges
                0x0000000000002978       0x28 c:/program files/microchip/xc32/v4.45/bin/bin/../../lib/gcc/pic32c/8.3.1/../../../../pic32c/lib/thumb/v7e-m+fp/hard\libc-musl.a(tolower.o)
 .debug_aranges
                0x00000000000029a0       0x28 c:/program files/microchip/xc32/v4.45/bin/bin/../../lib/gcc/pic32c/8.3.1/../../../../pic32c/lib/thumb/v7e-m+fp/hard\libc-musl.a(toupper.o)
 .debug_aranges
                0x00000000000029c8       0x28 c:/program files/microchip/xc32/v4.45/bin/bin/../../lib/gcc/pic32c/8.3.1/../../../../pic32c/lib/thumb/v7e-m+fp/hard\libc-musl.a(__libc_start_main.o)
 .debug_aranges
                0x00000000000029f0       0x18 c:/program files/microchip/xc32/v4.45/bin/bin/../../lib/gcc/pic32c/8.3.1/../../../../pic32c/lib/thumb/v7e-m+fp/hard\libc-musl.a(__errno_location.o)
 .debug_aranges
                0x0000000000002a08       0x18 c:/program files/microchip/xc32/v4.45/bin/bin/../../lib/gcc/pic32c/8.3.1/../../../../pic32c/lib/thumb/v7e-m+fp/hard\libc-musl.a(libc.o)
 .debug_aranges
                0x0000000000002a20       0x20 c:/program files/microchip/xc32/v4.45/bin/bin/../../lib/gcc/pic32c/8.3.1/../../../../pic32c/lib/thumb/v7e-m+fp/hard\libc-musl.a(expand_heap.o)
 .debug_aranges
                0x0000000000002a40       0x28 c:/program files/microchip/xc32/v4.45/bin/bin/../../lib/gcc/pic32c/8.3.1/../../../../pic32c/lib/thumb/v7e-m+fp/hard\libc-musl.a(rand.o)
 .debug_aranges
                0x0000000000002a68       0x20 c:/program files/microchip/xc32/v4.45/bin/bin/../../lib/gcc/pic32c/8.3.1/../../../../pic32c/lib/thumb/v7e-m+fp/hard\libc-musl.a(vsnprintf.o)
 .debug_aranges
                0x0000000000002a88       0x20 c:/program files/microchip/xc32/v4.45/bin/bin/../../lib/gcc/pic32c/8.3.1/../../../../pic32c/lib/thumb/v7e-m+fp/hard\libc-musl.a(snprintf.o)
 .debug_aranges
                0x0000000000002aa8       0x20 c:/program files/microchip/xc32/v4.45/bin/bin/../../lib/gcc/pic32c/8.3.1/../../../../pic32c/lib/thumb/v7e-m+fp/hard\libc-musl.a(sprintf.o)
 .debug_aranges
                0x0000000000002ac8       0x20 c:/program files/microchip/xc32/v4.45/bin/bin/../../lib/gcc/pic32c/8.3.1/../../../../pic32c/lib/thumb/v7e-m+fp/hard\libc-musl.a(vsprintf.o)
 .debug_aranges
                0x0000000000002ae8       0x20 c:/program files/microchip/xc32/v4.45/bin/bin/../../lib/gcc/pic32c/8.3.1/../../../../pic32c/lib/thumb/v7e-m+fp/hard\libc-musl.a(atoi.o)
 .debug_aranges
                0x0000000000002b08       0x50 c:/program files/microchip/xc32/v4.45/bin/bin/../../lib/gcc/pic32c/8.3.1/../../../../pic32c/lib/thumb/v7e-m+fp/hard\libc-musl.a(strtol.o)
 .debug_aranges
                0x0000000000002b58       0x18 c:/program files/microchip/xc32/v4.45/bin/bin/../../lib/gcc/pic32c/8.3.1/../../../../pic32c/lib/thumb/v7e-m+fp/hard\libc-musl.a(__environ.o)
 .debug_aranges
                0x0000000000002b70       0x20 c:/program files/microchip/xc32/v4.45/bin/bin/../../lib/gcc/pic32c/8.3.1/../../../../pic32c/lib/thumb/v7e-m+fp/hard\libc-musl.a(intscan.o)
 .debug_aranges
                0x0000000000002b90       0x28 c:/program files/microchip/xc32/v4.45/bin/bin/../../lib/gcc/pic32c/8.3.1/../../../../pic32c/lib/thumb/v7e-m+fp/hard\libc-musl.a(shgetc.o)
 .debug_aranges
                0x0000000000002bb8       0x20 c:/program files/microchip/xc32/v4.45/bin/bin/../../lib/gcc/pic32c/8.3.1/../../../../pic32c/lib/thumb/v7e-m+fp/hard\libc-musl.a(__uflow.o)
 .debug_aranges
                0x0000000000002bd8       0x28 c:/program files/microchip/xc32/v4.45/bin/bin/../../lib/gcc/pic32c/8.3.1/../../../../pic32c/lib/thumb/v7e-m+fp/hard\libc-musl.a(vfprintf.o)
 .debug_aranges
                0x0000000000002c00       0x28 c:/program files/microchip/xc32/v4.45/bin/bin/../../lib/gcc/pic32c/8.3.1/../../../../pic32c/lib/thumb/v7e-m+fp/hard\libc-musl.a(__toread.o)
 .debug_aranges
                0x0000000000002c28       0x20 c:/program files/microchip/xc32/v4.45/bin/bin/../../lib/gcc/pic32c/8.3.1/../../../../pic32c/lib/thumb/v7e-m+fp/hard\libc-musl.a(__pop_float.o)
 .debug_aranges
                0x0000000000002c48       0x20 c:/program files/microchip/xc32/v4.45/bin/bin/../../lib/gcc/pic32c/8.3.1/../../../../pic32c/lib/thumb/v7e-m+fp/hard\libc-musl.a(__pop_int.o)
 .debug_aranges
                0x0000000000002c68       0x20 c:/program files/microchip/xc32/v4.45/bin/bin/../../lib/gcc/pic32c/8.3.1/../../../../pic32c/lib/thumb/v7e-m+fp/hard\libc-musl.a(__pop_ptr.o)
 .debug_aranges
                0x0000000000002c88       0x50 c:/program files/microchip/xc32/v4.45/bin/bin/../../lib/gcc/pic32c/8.3.1/../../../../pic32c/lib/thumb/v7e-m+fp/hard\libc-musl.a(__printf_core.o)
 .debug_aranges
                0x0000000000002cd8       0x20 c:/program files/microchip/xc32/v4.45/bin/bin/../../lib/gcc/pic32c/8.3.1/../../../../pic32c/lib/thumb/v7e-m+fp/hard\libc-musl.a(__fmt_a.o)
 .debug_aranges
                0x0000000000002cf8       0x20 c:/program files/microchip/xc32/v4.45/bin/bin/../../lib/gcc/pic32c/8.3.1/../../../../pic32c/lib/thumb/v7e-m+fp/hard\libc-musl.a(__fmt_d.o)
 .debug_aranges
                0x0000000000002d18       0x20 c:/program files/microchip/xc32/v4.45/bin/bin/../../lib/gcc/pic32c/8.3.1/../../../../pic32c/lib/thumb/v7e-m+fp/hard\libc-musl.a(__fmt_fp.o)
 .debug_aranges
                0x0000000000002d38       0x20 c:/program files/microchip/xc32/v4.45/bin/bin/../../lib/gcc/pic32c/8.3.1/../../../../pic32c/lib/thumb/v7e-m+fp/hard\libc-musl.a(__fmt_o.o)
 .debug_aranges
                0x0000000000002d58       0x20 c:/program files/microchip/xc32/v4.45/bin/bin/../../lib/gcc/pic32c/8.3.1/../../../../pic32c/lib/thumb/v7e-m+fp/hard\libc-musl.a(__fmt_s.o)
 .debug_aranges
                0x0000000000002d78       0x20 c:/program files/microchip/xc32/v4.45/bin/bin/../../lib/gcc/pic32c/8.3.1/../../../../pic32c/lib/thumb/v7e-m+fp/hard\libc-musl.a(__fmt_u.o)
 .debug_aranges
                0x0000000000002d98       0x20 c:/program files/microchip/xc32/v4.45/bin/bin/../../lib/gcc/pic32c/8.3.1/../../../../pic32c/lib/thumb/v7e-m+fp/hard\libc-musl.a(__fmt_x.o)
 .debug_aranges
                0x0000000000002db8       0x20 c:/program files/microchip/xc32/v4.45/bin/bin/../../lib/gcc/pic32c/8.3.1/../../../../pic32c/lib/thumb/v7e-m+fp/hard\libc-musl.a(__cvt_u.o)
 .debug_aranges
                0x0000000000002dd8       0x20 c:/program files/microchip/xc32/v4.45/bin/bin/../../lib/gcc/pic32c/8.3.1/thumb/v7e-m+fp/hard\libgcc.a(_aeabi_uldivmod.o)
 .debug_aranges
                0x0000000000002df8       0x20 c:/program files/microchip/xc32/v4.45/bin/bin/../../lib/gcc/pic32c/8.3.1/thumb/v7e-m+fp/hard\libgcc.a(_udivmoddi4.o)
 .debug_aranges
                0x0000000000002e18       0x20 c:/program files/microchip/xc32/v4.45/bin/bin/../../lib/gcc/pic32c/8.3.1/thumb/v7e-m+fp/hard\libgcc.a(_dvmd_tls.o)
 .debug_aranges
                0x0000000000002e38       0x30 c:/program files/microchip/xc32/v4.45/bin/bin/../../lib/gcc/pic32c/8.3.1/../../../../pic32c/lib/thumb/v7e-m+fp/hard\libpic32c.a(sbrk.o)
 .debug_aranges
                0x0000000000002e68       0x20 c:/program files/microchip/xc32/v4.45/bin/bin/../../lib/gcc/pic32c/8.3.1/../../../../pic32c/lib/thumb/v7e-m+fp/hard\libpic32c.a(pic32_data_init_clear.o)
 .debug_aranges
                0x0000000000002e88       0x20 c:/program files/microchip/xc32/v4.45/bin/bin/../../lib/gcc/pic32c/8.3.1/../../../../pic32c/lib/thumb/v7e-m+fp/hard\libpic32c.a(pic32_data_init_copy.o)

.debug_ranges   0x0000000000000000     0x5358
 .debug_ranges  0x0000000000000000      0x1c0 build/FreeRTOS/production/_ext/1609394304/crypto.o
 .debug_ranges  0x00000000000001c0      0x558 build/FreeRTOS/production/_ext/1785105562/tc6.o
 .debug_ranges  0x0000000000000718      0x3d0 build/FreeRTOS/production/_ext/585597058/drv_lan865x_api.o
 .debug_ranges  0x0000000000000ae8      0x160 build/FreeRTOS/production/_ext/1348046844/drv_spi.o
 .debug_ranges  0x0000000000000c48       0x38 build/FreeRTOS/production/_ext/540595297/helpers.o
 .debug_ranges  0x0000000000000c80      0x140 build/FreeRTOS/production/_ext/540595297/tcpip_commands.o
 .debug_ranges  0x0000000000000dc0       0xd8 build/FreeRTOS/production/_ext/540595297/tcpip_packet.o
 .debug_ranges  0x0000000000000e98      0x288 build/FreeRTOS/production/_ext/540595297/tcpip_helpers.o
 .debug_ranges  0x0000000000001120      0x100 build/FreeRTOS/production/_ext/540595297/tcpip_heap_internal.o
 .debug_ranges  0x0000000000001220       0x38 build/FreeRTOS/production/_ext/540595297/tcpip_notify.o
 .debug_ranges  0x0000000000001258      0x240 build/FreeRTOS/production/_ext/540595297/iperf.o
 .debug_ranges  0x0000000000001498      0x6a8 build/FreeRTOS/production/_ext/540595297/tcp.o
 .debug_ranges  0x0000000000001b40      0x438 build/FreeRTOS/production/_ext/540595297/udp.o
 .debug_ranges  0x0000000000001f78      0xa40 build/FreeRTOS/production/_ext/540595297/tcpip_manager.o
 .debug_ranges  0x00000000000029b8       0x40 build/FreeRTOS/production/_ext/540595297/tcpip_heap_alloc.o
 .debug_ranges  0x00000000000029f8       0x18 build/FreeRTOS/production/_ext/540595297/hash_fnv.o
 .debug_ranges  0x0000000000002a10      0x498 build/FreeRTOS/production/_ext/540595297/arp.o
 .debug_ranges  0x0000000000002ea8      0x120 build/FreeRTOS/production/_ext/540595297/icmp.o
 .debug_ranges  0x0000000000002fc8      0x290 build/FreeRTOS/production/_ext/540595297/ipv4.o
 .debug_ranges  0x0000000000003258       0x48 build/FreeRTOS/production/_ext/540595297/oahash.o
 .debug_ranges  0x00000000000032a0      0x308 build/FreeRTOS/production/_ext/540595297/dns.o
 .debug_ranges  0x00000000000035a8       0x80 build/FreeRTOS/production/_ext/891571577/osal_freertos.o
 .debug_ranges  0x0000000000003628       0x10 build/FreeRTOS/production/_ext/892004133/plib_clock.o
 .debug_ranges  0x0000000000003638       0xd0 build/FreeRTOS/production/_ext/1495216012/plib_dmac.o
 .debug_ranges  0x0000000000003708       0x10 build/FreeRTOS/production/_ext/894153619/plib_evsys.o
 .debug_ranges  0x0000000000003718       0x28 build/FreeRTOS/production/_ext/1494909205/plib_nvic.o
 .debug_ranges  0x0000000000003740       0xc8 build/FreeRTOS/production/_ext/320424729/plib_nvmctrl.o
 .debug_ranges  0x0000000000003808       0x60 build/FreeRTOS/production/_ext/1494856054/plib_port.o
 .debug_ranges  0x0000000000003868       0x68 build/FreeRTOS/production/_ext/1428073114/plib_sercom0_spi_master.o
 .debug_ranges  0x00000000000038d0      0x1d0 build/FreeRTOS/production/_ext/2092608928/plib_sercom1_usart.o
 .debug_ranges  0x0000000000003aa0       0x68 build/FreeRTOS/production/_ext/579449528/plib_tc0.o
 .debug_ranges  0x0000000000003b08      0x1a8 build/FreeRTOS/production/_ext/1005353002/sys_command.o
 .debug_ranges  0x0000000000003cb0       0x78 build/FreeRTOS/production/_ext/548640822/sys_console.o
 .debug_ranges  0x0000000000003d28       0x60 build/FreeRTOS/production/_ext/548640822/sys_console_uart.o
 .debug_ranges  0x0000000000003d88       0x38 build/FreeRTOS/production/_ext/147610190/sys_debug.o
 .debug_ranges  0x0000000000003dc0       0x18 build/FreeRTOS/production/_ext/50312702/sys_dma.o
 .debug_ranges  0x0000000000003dd8       0x30 build/FreeRTOS/production/_ext/1690414130/sys_int.o
 .debug_ranges  0x0000000000003e08       0x10 build/FreeRTOS/production/_ext/1093154855/sys_reset.o
 .debug_ranges  0x0000000000003e18      0x160 build/FreeRTOS/production/_ext/832704728/sys_time.o
 .debug_ranges  0x0000000000003f78       0x30 build/FreeRTOS/production/_ext/2072568807/sys_time_h2_adapter.o
 .debug_ranges  0x0000000000003fa8       0x40 build/FreeRTOS/production/_ext/2072568807/sys_random_h2_adapter.o
 .debug_ranges  0x0000000000003fe8       0x28 build/FreeRTOS/production/_ext/161576091/tasks.o
 .debug_ranges  0x0000000000004010       0x30 build/FreeRTOS/production/_ext/161576091/freertos_hooks.o
 .debug_ranges  0x0000000000004040       0x18 build/FreeRTOS/production/_ext/161576091/startup_xc32.o
 .debug_ranges  0x0000000000004058       0x18 build/FreeRTOS/production/_ext/161576091/initialization.o
 .debug_ranges  0x0000000000004070       0x10 build/FreeRTOS/production/_ext/161576091/interrupts.o
 .debug_ranges  0x0000000000004080       0x38 build/FreeRTOS/production/_ext/161576091/exceptions.o
 .debug_ranges  0x00000000000040b8       0x68 build/FreeRTOS/production/_ext/246609638/port.o
 .debug_ranges  0x0000000000004120       0x28 build/FreeRTOS/production/_ext/1665200909/heap_1.o
 .debug_ranges  0x0000000000004148       0x30 build/FreeRTOS/production/_ext/404212886/list.o
 .debug_ranges  0x0000000000004178      0x2c0 build/FreeRTOS/production/_ext/404212886/FreeRTOS_tasks.o
 .debug_ranges  0x0000000000004438      0x178 build/FreeRTOS/production/_ext/404212886/queue.o
 .debug_ranges  0x00000000000045b0       0x18 build/FreeRTOS/production/_ext/172253694/crypt_wolfcryptcb.o
 .debug_ranges  0x00000000000045c8       0x70 build/FreeRTOS/production/_ext/1664057780/md5.o
 .debug_ranges  0x0000000000004638      0x400 build/FreeRTOS/production/_ext/1664057780/sha256.o
 .debug_ranges  0x0000000000004a38      0x188 build/FreeRTOS/production/_ext/1664057780/random.o
 .debug_ranges  0x0000000000004bc0      0x260 build/FreeRTOS/production/_ext/1664057780/cryptocb.o
 .debug_ranges  0x0000000000004e20       0x18 build/FreeRTOS/production/_ext/1360937237/app.o
 .debug_ranges  0x0000000000004e38       0x10 build/FreeRTOS/production/_ext/1360937237/main.o
 .debug_ranges  0x0000000000004e48       0x18 c:/program files/microchip/xc32/v4.45/bin/bin/../../lib/gcc/pic32c/8.3.1/../../../../pic32c/lib/thumb/v7e-m+fp/hard\libpic32c.a(data_init.o)
 .debug_ranges  0x0000000000004e60       0x10 c:/program files/microchip/xc32/v4.45/bin/bin/../../lib/gcc/pic32c/8.3.1/../../../../pic32c/lib/thumb/v7e-m+fp/hard\libc-size-musl.a(memcmp.o)
 .debug_ranges  0x0000000000004e70       0x10 c:/program files/microchip/xc32/v4.45/bin/bin/../../lib/gcc/pic32c/8.3.1/../../../../pic32c/lib/thumb/v7e-m+fp/hard\libc-size-musl.a(memcpy.o)
 .debug_ranges  0x0000000000004e80       0x10 c:/program files/microchip/xc32/v4.45/bin/bin/../../lib/gcc/pic32c/8.3.1/../../../../pic32c/lib/thumb/v7e-m+fp/hard\libc-size-musl.a(memset.o)
 .debug_ranges  0x0000000000004e90       0x10 c:/program files/microchip/xc32/v4.45/bin/bin/../../lib/gcc/pic32c/8.3.1/../../../../pic32c/lib/thumb/v7e-m+fp/hard\libc-size-musl.a(strlen.o)
 .debug_ranges  0x0000000000004ea0       0x10 c:/program files/microchip/xc32/v4.45/bin/bin/../../lib/gcc/pic32c/8.3.1/../../../../pic32c/lib/thumb/v7e-m+fp/hard\libc-size-musl.a(strchr.o)
 .debug_ranges  0x0000000000004eb0       0x10 c:/program files/microchip/xc32/v4.45/bin/bin/../../lib/gcc/pic32c/8.3.1/../../../../pic32c/lib/thumb/v7e-m+fp/hard\libc-size-musl.a(strchrnul.o)
 .debug_ranges  0x0000000000004ec0       0x10 c:/program files/microchip/xc32/v4.45/bin/bin/../../lib/gcc/pic32c/8.3.1/../../../../pic32c/lib/thumb/v7e-m+fp/hard\libc-size-musl.a(strcmp.o)
 .debug_ranges  0x0000000000004ed0       0x10 c:/program files/microchip/xc32/v4.45/bin/bin/../../lib/gcc/pic32c/8.3.1/../../../../pic32c/lib/thumb/v7e-m+fp/hard\libc-size-musl.a(strcpy.o)
 .debug_ranges  0x0000000000004ee0       0x10 c:/program files/microchip/xc32/v4.45/bin/bin/../../lib/gcc/pic32c/8.3.1/../../../../pic32c/lib/thumb/v7e-m+fp/hard\libc-size-musl.a(strncmp.o)
 .debug_ranges  0x0000000000004ef0       0x10 c:/program files/microchip/xc32/v4.45/bin/bin/../../lib/gcc/pic32c/8.3.1/../../../../pic32c/lib/thumb/v7e-m+fp/hard\libc-size-musl.a(strncpy.o)
 .debug_ranges  0x0000000000004f00       0x10 c:/program files/microchip/xc32/v4.45/bin/bin/../../lib/gcc/pic32c/8.3.1/../../../../pic32c/lib/thumb/v7e-m+fp/hard\libc-size-musl.a(strrchr.o)
 .debug_ranges  0x0000000000004f10       0x10 c:/program files/microchip/xc32/v4.45/bin/bin/../../lib/gcc/pic32c/8.3.1/../../../../pic32c/lib/thumb/v7e-m+fp/hard\libc-size-musl.a(strtok.o)
 .debug_ranges  0x0000000000004f20       0x10 c:/program files/microchip/xc32/v4.45/bin/bin/../../lib/gcc/pic32c/8.3.1/../../../../pic32c/lib/thumb/v7e-m+fp/hard\libc-size-musl.a(memrchr.o)
 .debug_ranges  0x0000000000004f30       0x10 c:/program files/microchip/xc32/v4.45/bin/bin/../../lib/gcc/pic32c/8.3.1/../../../../pic32c/lib/thumb/v7e-m+fp/hard\libc-size-musl.a(stpcpy.o)
 .debug_ranges  0x0000000000004f40       0x10 c:/program files/microchip/xc32/v4.45/bin/bin/../../lib/gcc/pic32c/8.3.1/../../../../pic32c/lib/thumb/v7e-m+fp/hard\libc-size-musl.a(stpncpy.o)
 .debug_ranges  0x0000000000004f50       0x10 c:/program files/microchip/xc32/v4.45/bin/bin/../../lib/gcc/pic32c/8.3.1/../../../../pic32c/lib/thumb/v7e-m+fp/hard\libc-size-musl.a(strcspn.o)
 .debug_ranges  0x0000000000004f60       0x10 c:/program files/microchip/xc32/v4.45/bin/bin/../../lib/gcc/pic32c/8.3.1/../../../../pic32c/lib/thumb/v7e-m+fp/hard\libc-size-musl.a(strspn.o)
 .debug_ranges  0x0000000000004f70       0x20 c:/program files/microchip/xc32/v4.45/bin/bin/../../lib/gcc/pic32c/8.3.1/../../../../pic32c/lib/thumb/v7e-m+fp/hard\liblmalloc-musl.a(lite_free.o)
 .debug_ranges  0x0000000000004f90       0x10 c:/program files/microchip/xc32/v4.45/bin/bin/../../lib/gcc/pic32c/8.3.1/../../../../pic32c/lib/thumb/v7e-m+fp/hard\liblmalloc-musl.a(lite_malloc.o)
 .debug_ranges  0x0000000000004fa0       0x18 c:/program files/microchip/xc32/v4.45/bin/bin/../../lib/gcc/pic32c/8.3.1/../../../../pic32c/lib/thumb/v7e-m+fp/hard\libc-musl.a(isxdigit.o)
 .debug_ranges  0x0000000000004fb8       0x18 c:/program files/microchip/xc32/v4.45/bin/bin/../../lib/gcc/pic32c/8.3.1/../../../../pic32c/lib/thumb/v7e-m+fp/hard\libc-musl.a(tolower.o)
 .debug_ranges  0x0000000000004fd0       0x18 c:/program files/microchip/xc32/v4.45/bin/bin/../../lib/gcc/pic32c/8.3.1/../../../../pic32c/lib/thumb/v7e-m+fp/hard\libc-musl.a(toupper.o)
 .debug_ranges  0x0000000000004fe8       0x40 c:/program files/microchip/xc32/v4.45/bin/bin/../../lib/gcc/pic32c/8.3.1/../../../../pic32c/lib/thumb/v7e-m+fp/hard\libc-musl.a(__libc_start_main.o)
 .debug_ranges  0x0000000000005028       0x10 c:/program files/microchip/xc32/v4.45/bin/bin/../../lib/gcc/pic32c/8.3.1/../../../../pic32c/lib/thumb/v7e-m+fp/hard\libc-musl.a(expand_heap.o)
 .debug_ranges  0x0000000000005038       0x18 c:/program files/microchip/xc32/v4.45/bin/bin/../../lib/gcc/pic32c/8.3.1/../../../../pic32c/lib/thumb/v7e-m+fp/hard\libc-musl.a(rand.o)
 .debug_ranges  0x0000000000005050       0x10 c:/program files/microchip/xc32/v4.45/bin/bin/../../lib/gcc/pic32c/8.3.1/../../../../pic32c/lib/thumb/v7e-m+fp/hard\libc-musl.a(vsnprintf.o)
 .debug_ranges  0x0000000000005060       0x10 c:/program files/microchip/xc32/v4.45/bin/bin/../../lib/gcc/pic32c/8.3.1/../../../../pic32c/lib/thumb/v7e-m+fp/hard\libc-musl.a(snprintf.o)
 .debug_ranges  0x0000000000005070       0x10 c:/program files/microchip/xc32/v4.45/bin/bin/../../lib/gcc/pic32c/8.3.1/../../../../pic32c/lib/thumb/v7e-m+fp/hard\libc-musl.a(sprintf.o)
 .debug_ranges  0x0000000000005080       0x10 c:/program files/microchip/xc32/v4.45/bin/bin/../../lib/gcc/pic32c/8.3.1/../../../../pic32c/lib/thumb/v7e-m+fp/hard\libc-musl.a(vsprintf.o)
 .debug_ranges  0x0000000000005090       0x10 c:/program files/microchip/xc32/v4.45/bin/bin/../../lib/gcc/pic32c/8.3.1/../../../../pic32c/lib/thumb/v7e-m+fp/hard\libc-musl.a(atoi.o)
 .debug_ranges  0x00000000000050a0       0x40 c:/program files/microchip/xc32/v4.45/bin/bin/../../lib/gcc/pic32c/8.3.1/../../../../pic32c/lib/thumb/v7e-m+fp/hard\libc-musl.a(strtol.o)
 .debug_ranges  0x00000000000050e0       0x28 c:/program files/microchip/xc32/v4.45/bin/bin/../../lib/gcc/pic32c/8.3.1/../../../../pic32c/lib/thumb/v7e-m+fp/hard\libc-musl.a(intscan.o)
 .debug_ranges  0x0000000000005108       0x18 c:/program files/microchip/xc32/v4.45/bin/bin/../../lib/gcc/pic32c/8.3.1/../../../../pic32c/lib/thumb/v7e-m+fp/hard\libc-musl.a(shgetc.o)
 .debug_ranges  0x0000000000005120       0x10 c:/program files/microchip/xc32/v4.45/bin/bin/../../lib/gcc/pic32c/8.3.1/../../../../pic32c/lib/thumb/v7e-m+fp/hard\libc-musl.a(__uflow.o)
 .debug_ranges  0x0000000000005130       0x18 c:/program files/microchip/xc32/v4.45/bin/bin/../../lib/gcc/pic32c/8.3.1/../../../../pic32c/lib/thumb/v7e-m+fp/hard\libc-musl.a(vfprintf.o)
 .debug_ranges  0x0000000000005148       0x18 c:/program files/microchip/xc32/v4.45/bin/bin/../../lib/gcc/pic32c/8.3.1/../../../../pic32c/lib/thumb/v7e-m+fp/hard\libc-musl.a(__toread.o)
 .debug_ranges  0x0000000000005160       0x10 c:/program files/microchip/xc32/v4.45/bin/bin/../../lib/gcc/pic32c/8.3.1/../../../../pic32c/lib/thumb/v7e-m+fp/hard\libc-musl.a(__pop_float.o)
 .debug_ranges  0x0000000000005170       0x10 c:/program files/microchip/xc32/v4.45/bin/bin/../../lib/gcc/pic32c/8.3.1/../../../../pic32c/lib/thumb/v7e-m+fp/hard\libc-musl.a(__pop_int.o)
 .debug_ranges  0x0000000000005180       0x10 c:/program files/microchip/xc32/v4.45/bin/bin/../../lib/gcc/pic32c/8.3.1/../../../../pic32c/lib/thumb/v7e-m+fp/hard\libc-musl.a(__pop_ptr.o)
 .debug_ranges  0x0000000000005190       0x58 c:/program files/microchip/xc32/v4.45/bin/bin/../../lib/gcc/pic32c/8.3.1/../../../../pic32c/lib/thumb/v7e-m+fp/hard\libc-musl.a(__printf_core.o)
 .debug_ranges  0x00000000000051e8       0x10 c:/program files/microchip/xc32/v4.45/bin/bin/../../lib/gcc/pic32c/8.3.1/../../../../pic32c/lib/thumb/v7e-m+fp/hard\libc-musl.a(__fmt_a.o)
 .debug_ranges  0x00000000000051f8       0x10 c:/program files/microchip/xc32/v4.45/bin/bin/../../lib/gcc/pic32c/8.3.1/../../../../pic32c/lib/thumb/v7e-m+fp/hard\libc-musl.a(__fmt_d.o)
 .debug_ranges  0x0000000000005208       0x10 c:/program files/microchip/xc32/v4.45/bin/bin/../../lib/gcc/pic32c/8.3.1/../../../../pic32c/lib/thumb/v7e-m+fp/hard\libc-musl.a(__fmt_fp.o)
 .debug_ranges  0x0000000000005218       0x10 c:/program files/microchip/xc32/v4.45/bin/bin/../../lib/gcc/pic32c/8.3.1/../../../../pic32c/lib/thumb/v7e-m+fp/hard\libc-musl.a(__fmt_o.o)
 .debug_ranges  0x0000000000005228       0x10 c:/program files/microchip/xc32/v4.45/bin/bin/../../lib/gcc/pic32c/8.3.1/../../../../pic32c/lib/thumb/v7e-m+fp/hard\libc-musl.a(__fmt_s.o)
 .debug_ranges  0x0000000000005238       0x10 c:/program files/microchip/xc32/v4.45/bin/bin/../../lib/gcc/pic32c/8.3.1/../../../../pic32c/lib/thumb/v7e-m+fp/hard\libc-musl.a(__fmt_u.o)
 .debug_ranges  0x0000000000005248       0x10 c:/program files/microchip/xc32/v4.45/bin/bin/../../lib/gcc/pic32c/8.3.1/../../../../pic32c/lib/thumb/v7e-m+fp/hard\libc-musl.a(__fmt_x.o)
 .debug_ranges  0x0000000000005258       0x10 c:/program files/microchip/xc32/v4.45/bin/bin/../../lib/gcc/pic32c/8.3.1/../../../../pic32c/lib/thumb/v7e-m+fp/hard\libc-musl.a(__cvt_u.o)
 .debug_ranges  0x0000000000005268       0xb0 c:/program files/microchip/xc32/v4.45/bin/bin/../../lib/gcc/pic32c/8.3.1/thumb/v7e-m+fp/hard\libgcc.a(_udivmoddi4.o)
 .debug_ranges  0x0000000000005318       0x20 c:/program files/microchip/xc32/v4.45/bin/bin/../../lib/gcc/pic32c/8.3.1/../../../../pic32c/lib/thumb/v7e-m+fp/hard\libpic32c.a(sbrk.o)
 .debug_ranges  0x0000000000005338       0x10 c:/program files/microchip/xc32/v4.45/bin/bin/../../lib/gcc/pic32c/8.3.1/../../../../pic32c/lib/thumb/v7e-m+fp/hard\libpic32c.a(pic32_data_init_clear.o)
 .debug_ranges  0x0000000000005348       0x10 c:/program files/microchip/xc32/v4.45/bin/bin/../../lib/gcc/pic32c/8.3.1/../../../../pic32c/lib/thumb/v7e-m+fp/hard\libpic32c.a(pic32_data_init_copy.o)

.debug_line     0x0000000000000000    0x33cbe
 .debug_line    0x0000000000000000      0xd34 build/FreeRTOS/production/_ext/1609394304/crypto.o
 .debug_line    0x0000000000000d34     0x2198 build/FreeRTOS/production/_ext/1785105562/tc6.o
 .debug_line    0x0000000000002ecc     0x21ab build/FreeRTOS/production/_ext/585597058/drv_lan865x_api.o
 .debug_line    0x0000000000005077     0x1464 build/FreeRTOS/production/_ext/1348046844/drv_spi.o
 .debug_line    0x00000000000064db      0x33b build/FreeRTOS/production/_ext/540595297/helpers.o
 .debug_line    0x0000000000006816     0x1a0f build/FreeRTOS/production/_ext/540595297/tcpip_commands.o
 .debug_line    0x0000000000008225      0x790 build/FreeRTOS/production/_ext/540595297/tcpip_packet.o
 .debug_line    0x00000000000089b5     0x1ec9 build/FreeRTOS/production/_ext/540595297/tcpip_helpers.o
 .debug_line    0x000000000000a87e      0x860 build/FreeRTOS/production/_ext/540595297/tcpip_heap_internal.o
 .debug_line    0x000000000000b0de      0x305 build/FreeRTOS/production/_ext/540595297/tcpip_notify.o
 .debug_line    0x000000000000b3e3     0x2206 build/FreeRTOS/production/_ext/540595297/iperf.o
 .debug_line    0x000000000000d5e9     0x4898 build/FreeRTOS/production/_ext/540595297/tcp.o
 .debug_line    0x0000000000011e81     0x2c5f build/FreeRTOS/production/_ext/540595297/udp.o
 .debug_line    0x0000000000014ae0     0x3a9e build/FreeRTOS/production/_ext/540595297/tcpip_manager.o
 .debug_line    0x000000000001857e      0x1d6 build/FreeRTOS/production/_ext/540595297/tcpip_heap_alloc.o
 .debug_line    0x0000000000018754      0x13d build/FreeRTOS/production/_ext/540595297/hash_fnv.o
 .debug_line    0x0000000000018891     0x1a05 build/FreeRTOS/production/_ext/540595297/arp.o
 .debug_line    0x000000000001a296      0x967 build/FreeRTOS/production/_ext/540595297/icmp.o
 .debug_line    0x000000000001abfd     0x193f build/FreeRTOS/production/_ext/540595297/ipv4.o
 .debug_line    0x000000000001c53c      0x440 build/FreeRTOS/production/_ext/540595297/oahash.o
 .debug_line    0x000000000001c97c     0x1e38 build/FreeRTOS/production/_ext/540595297/dns.o
 .debug_line    0x000000000001e7b4      0x420 build/FreeRTOS/production/_ext/891571577/osal_freertos.o
 .debug_line    0x000000000001ebd4      0x286 build/FreeRTOS/production/_ext/892004133/plib_clock.o
 .debug_line    0x000000000001ee5a      0x6a2 build/FreeRTOS/production/_ext/1495216012/plib_dmac.o
 .debug_line    0x000000000001f4fc       0x67 build/FreeRTOS/production/_ext/894153619/plib_evsys.o
 .debug_line    0x000000000001f563      0x54d build/FreeRTOS/production/_ext/1494909205/plib_nvic.o
 .debug_line    0x000000000001fab0      0x5ba build/FreeRTOS/production/_ext/320424729/plib_nvmctrl.o
 .debug_line    0x000000000002006a      0x2ea build/FreeRTOS/production/_ext/1494856054/plib_port.o
 .debug_line    0x0000000000020354      0x77b build/FreeRTOS/production/_ext/1428073114/plib_sercom0_spi_master.o
 .debug_line    0x0000000000020acf      0xcf3 build/FreeRTOS/production/_ext/2092608928/plib_sercom1_usart.o
 .debug_line    0x00000000000217c2      0x34c build/FreeRTOS/production/_ext/579449528/plib_tc0.o
 .debug_line    0x0000000000021b0e     0x1262 build/FreeRTOS/production/_ext/1005353002/sys_command.o
 .debug_line    0x0000000000022d70      0x654 build/FreeRTOS/production/_ext/548640822/sys_console.o
 .debug_line    0x00000000000233c4      0x4a2 build/FreeRTOS/production/_ext/548640822/sys_console_uart.o
 .debug_line    0x0000000000023866      0x1eb build/FreeRTOS/production/_ext/147610190/sys_debug.o
 .debug_line    0x0000000000023a51      0x148 build/FreeRTOS/production/_ext/50312702/sys_dma.o
 .debug_line    0x0000000000023b99      0x2c2 build/FreeRTOS/production/_ext/1690414130/sys_int.o
 .debug_line    0x0000000000023e5b      0x135 build/FreeRTOS/production/_ext/1093154855/sys_reset.o
 .debug_line    0x0000000000023f90     0x11c3 build/FreeRTOS/production/_ext/832704728/sys_time.o
 .debug_line    0x0000000000025153      0x1d0 build/FreeRTOS/production/_ext/2072568807/sys_time_h2_adapter.o
 .debug_line    0x0000000000025323      0x422 build/FreeRTOS/production/_ext/2072568807/sys_random_h2_adapter.o
 .debug_line    0x0000000000025745      0x2b2 build/FreeRTOS/production/_ext/161576091/tasks.o
 .debug_line    0x00000000000259f7      0x1dc build/FreeRTOS/production/_ext/161576091/freertos_hooks.o
 .debug_line    0x0000000000025bd3      0x247 build/FreeRTOS/production/_ext/161576091/startup_xc32.o
 .debug_line    0x0000000000025e1a      0x7bb build/FreeRTOS/production/_ext/161576091/initialization.o
 .debug_line    0x00000000000265d5       0xec build/FreeRTOS/production/_ext/161576091/interrupts.o
 .debug_line    0x00000000000266c1       0xc7 build/FreeRTOS/production/_ext/161576091/exceptions.o
 .debug_line    0x0000000000026788      0x366 build/FreeRTOS/production/_ext/246609638/port.o
 .debug_line    0x0000000000026aee      0x21e build/FreeRTOS/production/_ext/1665200909/heap_1.o
 .debug_line    0x0000000000026d0c      0x2e4 build/FreeRTOS/production/_ext/404212886/list.o
 .debug_line    0x0000000000026ff0     0x18c8 build/FreeRTOS/production/_ext/404212886/FreeRTOS_tasks.o
 .debug_line    0x00000000000288b8      0xef4 build/FreeRTOS/production/_ext/404212886/queue.o
 .debug_line    0x00000000000297ac      0x15f build/FreeRTOS/production/_ext/172253694/crypt_wolfcryptcb.o
 .debug_line    0x000000000002990b      0xb56 build/FreeRTOS/production/_ext/1664057780/md5.o
 .debug_line    0x000000000002a461     0x1255 build/FreeRTOS/production/_ext/1664057780/sha256.o
 .debug_line    0x000000000002b6b6     0x102e build/FreeRTOS/production/_ext/1664057780/random.o
 .debug_line    0x000000000002c6e4     0x126d build/FreeRTOS/production/_ext/1664057780/cryptocb.o
 .debug_line    0x000000000002d951      0x265 build/FreeRTOS/production/_ext/1360937237/app.o
 .debug_line    0x000000000002dbb6       0x6e build/FreeRTOS/production/_ext/1360937237/main.o
 .debug_line    0x000000000002dc24       0x92 c:/program files/microchip/xc32/v4.45/bin/bin/../../lib/gcc/pic32c/8.3.1/../../../../pic32c/lib/thumb/v7e-m+fp/hard\libpic32c.a(data_init.o)
 .debug_line    0x000000000002dcb6       0xdf c:/program files/microchip/xc32/v4.45/bin/bin/../../lib/gcc/pic32c/8.3.1/../../../../pic32c/lib/thumb/v7e-m+fp/hard\libc-size-musl.a(memcmp.o)
 .debug_line    0x000000000002dd95       0xf9 c:/program files/microchip/xc32/v4.45/bin/bin/../../lib/gcc/pic32c/8.3.1/../../../../pic32c/lib/thumb/v7e-m+fp/hard\libc-size-musl.a(memcpy.o)
 .debug_line    0x000000000002de8e       0xe3 c:/program files/microchip/xc32/v4.45/bin/bin/../../lib/gcc/pic32c/8.3.1/../../../../pic32c/lib/thumb/v7e-m+fp/hard\libc-size-musl.a(memset.o)
 .debug_line    0x000000000002df71       0xe6 c:/program files/microchip/xc32/v4.45/bin/bin/../../lib/gcc/pic32c/8.3.1/../../../../pic32c/lib/thumb/v7e-m+fp/hard\libc-size-musl.a(strlen.o)
 .debug_line    0x000000000002e057       0xb2 c:/program files/microchip/xc32/v4.45/bin/bin/../../lib/gcc/pic32c/8.3.1/../../../../pic32c/lib/thumb/v7e-m+fp/hard\libc-size-musl.a(strchr.o)
 .debug_line    0x000000000002e109      0x186 c:/program files/microchip/xc32/v4.45/bin/bin/../../lib/gcc/pic32c/8.3.1/../../../../pic32c/lib/thumb/v7e-m+fp/hard\libc-size-musl.a(strchrnul.o)
 .debug_line    0x000000000002e28f       0xba c:/program files/microchip/xc32/v4.45/bin/bin/../../lib/gcc/pic32c/8.3.1/../../../../pic32c/lib/thumb/v7e-m+fp/hard\libc-size-musl.a(strcmp.o)
 .debug_line    0x000000000002e349       0xad c:/program files/microchip/xc32/v4.45/bin/bin/../../lib/gcc/pic32c/8.3.1/../../../../pic32c/lib/thumb/v7e-m+fp/hard\libc-size-musl.a(strcpy.o)
 .debug_line    0x000000000002e3f6       0xeb c:/program files/microchip/xc32/v4.45/bin/bin/../../lib/gcc/pic32c/8.3.1/../../../../pic32c/lib/thumb/v7e-m+fp/hard\libc-size-musl.a(strncmp.o)
 .debug_line    0x000000000002e4e1       0xcd c:/program files/microchip/xc32/v4.45/bin/bin/../../lib/gcc/pic32c/8.3.1/../../../../pic32c/lib/thumb/v7e-m+fp/hard\libc-size-musl.a(strncpy.o)
 .debug_line    0x000000000002e5ae      0x11d c:/program files/microchip/xc32/v4.45/bin/bin/../../lib/gcc/pic32c/8.3.1/../../../../pic32c/lib/thumb/v7e-m+fp/hard\libc-size-musl.a(strrchr.o)
 .debug_line    0x000000000002e6cb      0x161 c:/program files/microchip/xc32/v4.45/bin/bin/../../lib/gcc/pic32c/8.3.1/../../../../pic32c/lib/thumb/v7e-m+fp/hard\libc-size-musl.a(strtok.o)
 .debug_line    0x000000000002e82c       0xde c:/program files/microchip/xc32/v4.45/bin/bin/../../lib/gcc/pic32c/8.3.1/../../../../pic32c/lib/thumb/v7e-m+fp/hard\libc-size-musl.a(memrchr.o)
 .debug_line    0x000000000002e90a       0xc1 c:/program files/microchip/xc32/v4.45/bin/bin/../../lib/gcc/pic32c/8.3.1/../../../../pic32c/lib/thumb/v7e-m+fp/hard\libc-size-musl.a(stpcpy.o)
 .debug_line    0x000000000002e9cb      0x138 c:/program files/microchip/xc32/v4.45/bin/bin/../../lib/gcc/pic32c/8.3.1/../../../../pic32c/lib/thumb/v7e-m+fp/hard\libc-size-musl.a(stpncpy.o)
 .debug_line    0x000000000002eb03      0x180 c:/program files/microchip/xc32/v4.45/bin/bin/../../lib/gcc/pic32c/8.3.1/../../../../pic32c/lib/thumb/v7e-m+fp/hard\libc-size-musl.a(strcspn.o)
 .debug_line    0x000000000002ec83      0x127 c:/program files/microchip/xc32/v4.45/bin/bin/../../lib/gcc/pic32c/8.3.1/../../../../pic32c/lib/thumb/v7e-m+fp/hard\libc-size-musl.a(strspn.o)
 .debug_line    0x000000000002edaa      0x269 c:/program files/microchip/xc32/v4.45/bin/bin/../../lib/gcc/pic32c/8.3.1/../../../../pic32c/lib/thumb/v7e-m+fp/hard\liblmalloc-musl.a(lite_free.o)
 .debug_line    0x000000000002f013      0x1ca c:/program files/microchip/xc32/v4.45/bin/bin/../../lib/gcc/pic32c/8.3.1/../../../../pic32c/lib/thumb/v7e-m+fp/hard\liblmalloc-musl.a(lite_malloc.o)
 .debug_line    0x000000000002f1dd      0x15a c:/program files/microchip/xc32/v4.45/bin/bin/../../lib/gcc/pic32c/8.3.1/../../../../pic32c/lib/thumb/v7e-m+fp/hard\libc-musl.a(isxdigit.o)
 .debug_line    0x000000000002f337      0x157 c:/program files/microchip/xc32/v4.45/bin/bin/../../lib/gcc/pic32c/8.3.1/../../../../pic32c/lib/thumb/v7e-m+fp/hard\libc-musl.a(tolower.o)
 .debug_line    0x000000000002f48e      0x157 c:/program files/microchip/xc32/v4.45/bin/bin/../../lib/gcc/pic32c/8.3.1/../../../../pic32c/lib/thumb/v7e-m+fp/hard\libc-musl.a(toupper.o)
 .debug_line    0x000000000002f5e5      0x1c7 c:/program files/microchip/xc32/v4.45/bin/bin/../../lib/gcc/pic32c/8.3.1/../../../../pic32c/lib/thumb/v7e-m+fp/hard\libc-musl.a(__libc_start_main.o)
 .debug_line    0x000000000002f7ac       0x9a c:/program files/microchip/xc32/v4.45/bin/bin/../../lib/gcc/pic32c/8.3.1/../../../../pic32c/lib/thumb/v7e-m+fp/hard\libc-musl.a(__errno_location.o)
 .debug_line    0x000000000002f846       0xb5 c:/program files/microchip/xc32/v4.45/bin/bin/../../lib/gcc/pic32c/8.3.1/../../../../pic32c/lib/thumb/v7e-m+fp/hard\libc-musl.a(libc.o)
 .debug_line    0x000000000002f8fb       0xef c:/program files/microchip/xc32/v4.45/bin/bin/../../lib/gcc/pic32c/8.3.1/../../../../pic32c/lib/thumb/v7e-m+fp/hard\libc-musl.a(expand_heap.o)
 .debug_line    0x000000000002f9ea       0xf1 c:/program files/microchip/xc32/v4.45/bin/bin/../../lib/gcc/pic32c/8.3.1/../../../../pic32c/lib/thumb/v7e-m+fp/hard\libc-musl.a(rand.o)
 .debug_line    0x000000000002fadb      0x22d c:/program files/microchip/xc32/v4.45/bin/bin/../../lib/gcc/pic32c/8.3.1/../../../../pic32c/lib/thumb/v7e-m+fp/hard\libc-musl.a(vsnprintf.o)
 .debug_line    0x000000000002fd08      0x152 c:/program files/microchip/xc32/v4.45/bin/bin/../../lib/gcc/pic32c/8.3.1/../../../../pic32c/lib/thumb/v7e-m+fp/hard\libc-musl.a(snprintf.o)
 .debug_line    0x000000000002fe5a      0x151 c:/program files/microchip/xc32/v4.45/bin/bin/../../lib/gcc/pic32c/8.3.1/../../../../pic32c/lib/thumb/v7e-m+fp/hard\libc-musl.a(sprintf.o)
 .debug_line    0x000000000002ffab      0x140 c:/program files/microchip/xc32/v4.45/bin/bin/../../lib/gcc/pic32c/8.3.1/../../../../pic32c/lib/thumb/v7e-m+fp/hard\libc-musl.a(vsprintf.o)
 .debug_line    0x00000000000300eb      0x167 c:/program files/microchip/xc32/v4.45/bin/bin/../../lib/gcc/pic32c/8.3.1/../../../../pic32c/lib/thumb/v7e-m+fp/hard\libc-musl.a(atoi.o)
 .debug_line    0x0000000000030252      0x2d4 c:/program files/microchip/xc32/v4.45/bin/bin/../../lib/gcc/pic32c/8.3.1/../../../../pic32c/lib/thumb/v7e-m+fp/hard\libc-musl.a(strtol.o)
 .debug_line    0x0000000000030526       0xfb c:/program files/microchip/xc32/v4.45/bin/bin/../../lib/gcc/pic32c/8.3.1/../../../../pic32c/lib/thumb/v7e-m+fp/hard\libc-musl.a(__environ.o)
 .debug_line    0x0000000000030621      0x4a0 c:/program files/microchip/xc32/v4.45/bin/bin/../../lib/gcc/pic32c/8.3.1/../../../../pic32c/lib/thumb/v7e-m+fp/hard\libc-musl.a(intscan.o)
 .debug_line    0x0000000000030ac1      0x1fa c:/program files/microchip/xc32/v4.45/bin/bin/../../lib/gcc/pic32c/8.3.1/../../../../pic32c/lib/thumb/v7e-m+fp/hard\libc-musl.a(shgetc.o)
 .debug_line    0x0000000000030cbb      0x1be c:/program files/microchip/xc32/v4.45/bin/bin/../../lib/gcc/pic32c/8.3.1/../../../../pic32c/lib/thumb/v7e-m+fp/hard\libc-musl.a(__uflow.o)
 .debug_line    0x0000000000030e79      0x1e6 c:/program files/microchip/xc32/v4.45/bin/bin/../../lib/gcc/pic32c/8.3.1/../../../../pic32c/lib/thumb/v7e-m+fp/hard\libc-musl.a(vfprintf.o)
 .debug_line    0x000000000003105f      0x20e c:/program files/microchip/xc32/v4.45/bin/bin/../../lib/gcc/pic32c/8.3.1/../../../../pic32c/lib/thumb/v7e-m+fp/hard\libc-musl.a(__toread.o)
 .debug_line    0x000000000003126d      0x165 c:/program files/microchip/xc32/v4.45/bin/bin/../../lib/gcc/pic32c/8.3.1/../../../../pic32c/lib/thumb/v7e-m+fp/hard\libc-musl.a(__pop_float.o)
 .debug_line    0x00000000000313d2      0x200 c:/program files/microchip/xc32/v4.45/bin/bin/../../lib/gcc/pic32c/8.3.1/../../../../pic32c/lib/thumb/v7e-m+fp/hard\libc-musl.a(__pop_int.o)
 .debug_line    0x00000000000315d2      0x1e0 c:/program files/microchip/xc32/v4.45/bin/bin/../../lib/gcc/pic32c/8.3.1/../../../../pic32c/lib/thumb/v7e-m+fp/hard\libc-musl.a(__pop_ptr.o)
 .debug_line    0x00000000000317b2      0x692 c:/program files/microchip/xc32/v4.45/bin/bin/../../lib/gcc/pic32c/8.3.1/../../../../pic32c/lib/thumb/v7e-m+fp/hard\libc-musl.a(__printf_core.o)
 .debug_line    0x0000000000031e44      0x630 c:/program files/microchip/xc32/v4.45/bin/bin/../../lib/gcc/pic32c/8.3.1/../../../../pic32c/lib/thumb/v7e-m+fp/hard\libc-musl.a(__fmt_a.o)
 .debug_line    0x0000000000032474      0x1ff c:/program files/microchip/xc32/v4.45/bin/bin/../../lib/gcc/pic32c/8.3.1/../../../../pic32c/lib/thumb/v7e-m+fp/hard\libc-musl.a(__fmt_d.o)
 .debug_line    0x0000000000032673      0x66b c:/program files/microchip/xc32/v4.45/bin/bin/../../lib/gcc/pic32c/8.3.1/../../../../pic32c/lib/thumb/v7e-m+fp/hard\libc-musl.a(__fmt_fp.o)
 .debug_line    0x0000000000032cde      0x1a9 c:/program files/microchip/xc32/v4.45/bin/bin/../../lib/gcc/pic32c/8.3.1/../../../../pic32c/lib/thumb/v7e-m+fp/hard\libc-musl.a(__fmt_o.o)
 .debug_line    0x0000000000032e87      0x1eb c:/program files/microchip/xc32/v4.45/bin/bin/../../lib/gcc/pic32c/8.3.1/../../../../pic32c/lib/thumb/v7e-m+fp/hard\libc-musl.a(__fmt_s.o)
 .debug_line    0x0000000000033072      0x188 c:/program files/microchip/xc32/v4.45/bin/bin/../../lib/gcc/pic32c/8.3.1/../../../../pic32c/lib/thumb/v7e-m+fp/hard\libc-musl.a(__fmt_u.o)
 .debug_line    0x00000000000331fa      0x2ca c:/program files/microchip/xc32/v4.45/bin/bin/../../lib/gcc/pic32c/8.3.1/../../../../pic32c/lib/thumb/v7e-m+fp/hard\libc-musl.a(__fmt_x.o)
 .debug_line    0x00000000000334c4      0x1cb c:/program files/microchip/xc32/v4.45/bin/bin/../../lib/gcc/pic32c/8.3.1/../../../../pic32c/lib/thumb/v7e-m+fp/hard\libc-musl.a(__cvt_u.o)
 .debug_line    0x000000000003368f       0x91 c:/program files/microchip/xc32/v4.45/bin/bin/../../lib/gcc/pic32c/8.3.1/thumb/v7e-m+fp/hard\libgcc.a(_aeabi_uldivmod.o)
 .debug_line    0x0000000000033720      0x360 c:/program files/microchip/xc32/v4.45/bin/bin/../../lib/gcc/pic32c/8.3.1/thumb/v7e-m+fp/hard\libgcc.a(_udivmoddi4.o)
 .debug_line    0x0000000000033a80       0x91 c:/program files/microchip/xc32/v4.45/bin/bin/../../lib/gcc/pic32c/8.3.1/thumb/v7e-m+fp/hard\libgcc.a(_dvmd_tls.o)
 .debug_line    0x0000000000033b11       0xc1 c:/program files/microchip/xc32/v4.45/bin/bin/../../lib/gcc/pic32c/8.3.1/../../../../pic32c/lib/thumb/v7e-m+fp/hard\libpic32c.a(sbrk.o)
 .debug_line    0x0000000000033bd2       0x72 c:/program files/microchip/xc32/v4.45/bin/bin/../../lib/gcc/pic32c/8.3.1/../../../../pic32c/lib/thumb/v7e-m+fp/hard\libpic32c.a(pic32_data_init_clear.o)
 .debug_line    0x0000000000033c44       0x7a c:/program files/microchip/xc32/v4.45/bin/bin/../../lib/gcc/pic32c/8.3.1/../../../../pic32c/lib/thumb/v7e-m+fp/hard\libpic32c.a(pic32_data_init_copy.o)

.debug_str      0x0000000000000000    0x56fb3
 .debug_str     0x0000000000000000     0x193b build/FreeRTOS/production/_ext/1609394304/crypto.o
 .debug_str     0x000000000000193b     0x117b build/FreeRTOS/production/_ext/1785105562/tc6.o
 .debug_str     0x0000000000002ab6     0x422e build/FreeRTOS/production/_ext/585597058/drv_lan865x_api.o
 .debug_str     0x0000000000006ce4     0x2ece build/FreeRTOS/production/_ext/1348046844/drv_spi.o
 .debug_str     0x0000000000009bb2      0x3ad build/FreeRTOS/production/_ext/540595297/helpers.o
 .debug_str     0x0000000000009f5f     0x38ae build/FreeRTOS/production/_ext/540595297/tcpip_commands.o
 .debug_str     0x000000000000d80d     0x237d build/FreeRTOS/production/_ext/540595297/tcpip_packet.o
 .debug_str     0x000000000000fb8a     0x186a build/FreeRTOS/production/_ext/540595297/tcpip_helpers.o
 .debug_str     0x00000000000113f4      0xff5 build/FreeRTOS/production/_ext/540595297/tcpip_heap_internal.o
 .debug_str     0x00000000000123e9      0x841 build/FreeRTOS/production/_ext/540595297/tcpip_notify.o
 .debug_str     0x0000000000012c2a     0x3535 build/FreeRTOS/production/_ext/540595297/iperf.o
 .debug_str     0x000000000001615f     0x48b7 build/FreeRTOS/production/_ext/540595297/tcp.o
 .debug_str     0x000000000001aa16     0x412e build/FreeRTOS/production/_ext/540595297/udp.o
 .debug_str     0x000000000001eb44     0x51a9 build/FreeRTOS/production/_ext/540595297/tcpip_manager.o
 .debug_str     0x0000000000023ced      0x8e6 build/FreeRTOS/production/_ext/540595297/tcpip_heap_alloc.o
 .debug_str     0x00000000000245d3      0x2fb build/FreeRTOS/production/_ext/540595297/hash_fnv.o
 .debug_str     0x00000000000248ce     0x33c2 build/FreeRTOS/production/_ext/540595297/arp.o
 .debug_str     0x0000000000027c90     0x28c5 build/FreeRTOS/production/_ext/540595297/icmp.o
 .debug_str     0x000000000002a555     0x3e83 build/FreeRTOS/production/_ext/540595297/ipv4.o
 .debug_str     0x000000000002e3d8      0x4fe build/FreeRTOS/production/_ext/540595297/oahash.o
 .debug_str     0x000000000002e8d6     0x39cd build/FreeRTOS/production/_ext/540595297/dns.o
 .debug_str     0x00000000000322a3      0x6b2 build/FreeRTOS/production/_ext/891571577/osal_freertos.o
 .debug_str     0x0000000000032955      0x685 build/FreeRTOS/production/_ext/892004133/plib_clock.o
 .debug_str     0x0000000000032fda      0x934 build/FreeRTOS/production/_ext/1495216012/plib_dmac.o
 .debug_str     0x000000000003390e      0x2e1 build/FreeRTOS/production/_ext/894153619/plib_evsys.o
 .debug_str     0x0000000000033bef      0xd01 build/FreeRTOS/production/_ext/1494909205/plib_nvic.o
 .debug_str     0x00000000000348f0      0x6e2 build/FreeRTOS/production/_ext/320424729/plib_nvmctrl.o
 .debug_str     0x0000000000034fd2      0xb93 build/FreeRTOS/production/_ext/1494856054/plib_port.o
 .debug_str     0x0000000000035b65      0x85c build/FreeRTOS/production/_ext/1428073114/plib_sercom0_spi_master.o
 .debug_str     0x00000000000363c1      0xdd1 build/FreeRTOS/production/_ext/2092608928/plib_sercom1_usart.o
 .debug_str     0x0000000000037192      0x61f build/FreeRTOS/production/_ext/579449528/plib_tc0.o
 .debug_str     0x00000000000377b1      0xc66 build/FreeRTOS/production/_ext/1005353002/sys_command.o
 .debug_str     0x0000000000038417      0xa8a build/FreeRTOS/production/_ext/548640822/sys_console.o
 .debug_str     0x0000000000038ea1      0xb36 build/FreeRTOS/production/_ext/548640822/sys_console_uart.o
 .debug_str     0x00000000000399d7      0x538 build/FreeRTOS/production/_ext/147610190/sys_debug.o
 .debug_str     0x0000000000039f0f      0x79d build/FreeRTOS/production/_ext/50312702/sys_dma.o
 .debug_str     0x000000000003a6ac      0xcb7 build/FreeRTOS/production/_ext/1690414130/sys_int.o
 .debug_str     0x000000000003b363      0x35f build/FreeRTOS/production/_ext/1093154855/sys_reset.o
 .debug_str     0x000000000003b6c2     0x15d7 build/FreeRTOS/production/_ext/832704728/sys_time.o
 .debug_str     0x000000000003cc99      0x45c build/FreeRTOS/production/_ext/2072568807/sys_time_h2_adapter.o
 .debug_str     0x000000000003d0f5      0x64f build/FreeRTOS/production/_ext/2072568807/sys_random_h2_adapter.o
 .debug_str     0x000000000003d744      0x4bf build/FreeRTOS/production/_ext/161576091/tasks.o
 .debug_str     0x000000000003dc03      0x3c3 build/FreeRTOS/production/_ext/161576091/freertos_hooks.o
 .debug_str     0x000000000003dfc6      0x47a build/FreeRTOS/production/_ext/161576091/startup_xc32.o
 .debug_str     0x000000000003e440     0x4603 build/FreeRTOS/production/_ext/161576091/initialization.o
 .debug_str     0x0000000000042a43      0xfdc build/FreeRTOS/production/_ext/161576091/interrupts.o
 .debug_str     0x0000000000043a1f      0x340 build/FreeRTOS/production/_ext/161576091/exceptions.o
 .debug_str     0x0000000000043d5f      0x4b0 build/FreeRTOS/production/_ext/246609638/port.o
 .debug_str     0x000000000004420f      0x3ac build/FreeRTOS/production/_ext/1665200909/heap_1.o
 .debug_str     0x00000000000445bb      0x40d build/FreeRTOS/production/_ext/404212886/list.o
 .debug_str     0x00000000000449c8     0x1092 build/FreeRTOS/production/_ext/404212886/FreeRTOS_tasks.o
 .debug_str     0x0000000000045a5a      0xad2 build/FreeRTOS/production/_ext/404212886/queue.o
 .debug_str     0x000000000004652c     0x1108 build/FreeRTOS/production/_ext/172253694/crypt_wolfcryptcb.o
 .debug_str     0x0000000000047634      0xeb0 build/FreeRTOS/production/_ext/1664057780/md5.o
 .debug_str     0x00000000000484e4     0x17c3 build/FreeRTOS/production/_ext/1664057780/sha256.o
 .debug_str     0x0000000000049ca7     0x1911 build/FreeRTOS/production/_ext/1664057780/random.o
 .debug_str     0x000000000004b5b8     0x1d00 build/FreeRTOS/production/_ext/1664057780/cryptocb.o
 .debug_str     0x000000000004d2b8      0x5fe build/FreeRTOS/production/_ext/1360937237/app.o
 .debug_str     0x000000000004d8b6      0x2cd build/FreeRTOS/production/_ext/1360937237/main.o
 .debug_str     0x000000000004db83      0x1f5 c:/program files/microchip/xc32/v4.45/bin/bin/../../lib/gcc/pic32c/8.3.1/../../../../pic32c/lib/thumb/v7e-m+fp/hard\libpic32c.a(data_init.o)
 .debug_str     0x000000000004dd78      0x219 c:/program files/microchip/xc32/v4.45/bin/bin/../../lib/gcc/pic32c/8.3.1/../../../../pic32c/lib/thumb/v7e-m+fp/hard\libc-size-musl.a(memcmp.o)
 .debug_str     0x000000000004df91      0x22f c:/program files/microchip/xc32/v4.45/bin/bin/../../lib/gcc/pic32c/8.3.1/../../../../pic32c/lib/thumb/v7e-m+fp/hard\libc-size-musl.a(memcpy.o)
 .debug_str     0x000000000004e1c0      0x21b c:/program files/microchip/xc32/v4.45/bin/bin/../../lib/gcc/pic32c/8.3.1/../../../../pic32c/lib/thumb/v7e-m+fp/hard\libc-size-musl.a(memset.o)
 .debug_str     0x000000000004e3db      0x221 c:/program files/microchip/xc32/v4.45/bin/bin/../../lib/gcc/pic32c/8.3.1/../../../../pic32c/lib/thumb/v7e-m+fp/hard\libc-size-musl.a(strlen.o)
 .debug_str     0x000000000004e5fc      0x215 c:/program files/microchip/xc32/v4.45/bin/bin/../../lib/gcc/pic32c/8.3.1/../../../../pic32c/lib/thumb/v7e-m+fp/hard\libc-size-musl.a(strchr.o)
 .debug_str     0x000000000004e811      0x2a0 c:/program files/microchip/xc32/v4.45/bin/bin/../../lib/gcc/pic32c/8.3.1/../../../../pic32c/lib/thumb/v7e-m+fp/hard\libc-size-musl.a(strchrnul.o)
 .debug_str     0x000000000004eab1      0x209 c:/program files/microchip/xc32/v4.45/bin/bin/../../lib/gcc/pic32c/8.3.1/../../../../pic32c/lib/thumb/v7e-m+fp/hard\libc-size-musl.a(strcmp.o)
 .debug_str     0x000000000004ecba      0x217 c:/program files/microchip/xc32/v4.45/bin/bin/../../lib/gcc/pic32c/8.3.1/../../../../pic32c/lib/thumb/v7e-m+fp/hard\libc-size-musl.a(strcpy.o)
 .debug_str     0x000000000004eed1      0x220 c:/program files/microchip/xc32/v4.45/bin/bin/../../lib/gcc/pic32c/8.3.1/../../../../pic32c/lib/thumb/v7e-m+fp/hard\libc-size-musl.a(strncmp.o)
 .debug_str     0x000000000004f0f1      0x21c c:/program files/microchip/xc32/v4.45/bin/bin/../../lib/gcc/pic32c/8.3.1/../../../../pic32c/lib/thumb/v7e-m+fp/hard\libc-size-musl.a(strncpy.o)
 .debug_str     0x000000000004f30d      0x21c c:/program files/microchip/xc32/v4.45/bin/bin/../../lib/gcc/pic32c/8.3.1/../../../../pic32c/lib/thumb/v7e-m+fp/hard\libc-size-musl.a(strrchr.o)
 .debug_str     0x000000000004f529      0x218 c:/program files/microchip/xc32/v4.45/bin/bin/../../lib/gcc/pic32c/8.3.1/../../../../pic32c/lib/thumb/v7e-m+fp/hard\libc-size-musl.a(strtok.o)
 .debug_str     0x000000000004f741      0x239 c:/program files/microchip/xc32/v4.45/bin/bin/../../lib/gcc/pic32c/8.3.1/../../../../pic32c/lib/thumb/v7e-m+fp/hard\libc-size-musl.a(memrchr.o)
 .debug_str     0x000000000004f97a      0x22b c:/program files/microchip/xc32/v4.45/bin/bin/../../lib/gcc/pic32c/8.3.1/../../../../pic32c/lib/thumb/v7e-m+fp/hard\libc-size-musl.a(stpcpy.o)
 .debug_str     0x000000000004fba5      0x23a c:/program files/microchip/xc32/v4.45/bin/bin/../../lib/gcc/pic32c/8.3.1/../../../../pic32c/lib/thumb/v7e-m+fp/hard\libc-size-musl.a(stpncpy.o)
 .debug_str     0x000000000004fddf      0x22d c:/program files/microchip/xc32/v4.45/bin/bin/../../lib/gcc/pic32c/8.3.1/../../../../pic32c/lib/thumb/v7e-m+fp/hard\libc-size-musl.a(strcspn.o)
 .debug_str     0x000000000005000c      0x230 c:/program files/microchip/xc32/v4.45/bin/bin/../../lib/gcc/pic32c/8.3.1/../../../../pic32c/lib/thumb/v7e-m+fp/hard\libc-size-musl.a(strspn.o)
 .debug_str     0x000000000005023c      0x30b c:/program files/microchip/xc32/v4.45/bin/bin/../../lib/gcc/pic32c/8.3.1/../../../../pic32c/lib/thumb/v7e-m+fp/hard\liblmalloc-musl.a(lite_free.o)
 .debug_str     0x0000000000050547      0x309 c:/program files/microchip/xc32/v4.45/bin/bin/../../lib/gcc/pic32c/8.3.1/../../../../pic32c/lib/thumb/v7e-m+fp/hard\liblmalloc-musl.a(lite_malloc.o)
 .debug_str     0x0000000000050850      0x256 c:/program files/microchip/xc32/v4.45/bin/bin/../../lib/gcc/pic32c/8.3.1/../../../../pic32c/lib/thumb/v7e-m+fp/hard\libc-musl.a(isxdigit.o)
 .debug_str     0x0000000000050aa6      0x253 c:/program files/microchip/xc32/v4.45/bin/bin/../../lib/gcc/pic32c/8.3.1/../../../../pic32c/lib/thumb/v7e-m+fp/hard\libc-musl.a(tolower.o)
 .debug_str     0x0000000000050cf9      0x253 c:/program files/microchip/xc32/v4.45/bin/bin/../../lib/gcc/pic32c/8.3.1/../../../../pic32c/lib/thumb/v7e-m+fp/hard\libc-musl.a(toupper.o)
 .debug_str     0x0000000000050f4c      0x3d4 c:/program files/microchip/xc32/v4.45/bin/bin/../../lib/gcc/pic32c/8.3.1/../../../../pic32c/lib/thumb/v7e-m+fp/hard\libc-musl.a(__libc_start_main.o)
 .debug_str     0x0000000000051320      0x233 c:/program files/microchip/xc32/v4.45/bin/bin/../../lib/gcc/pic32c/8.3.1/../../../../pic32c/lib/thumb/v7e-m+fp/hard\libc-musl.a(__errno_location.o)
 .debug_str     0x0000000000051553      0x33f c:/program files/microchip/xc32/v4.45/bin/bin/../../lib/gcc/pic32c/8.3.1/../../../../pic32c/lib/thumb/v7e-m+fp/hard\libc-musl.a(libc.o)
 .debug_str     0x0000000000051892      0x2af c:/program files/microchip/xc32/v4.45/bin/bin/../../lib/gcc/pic32c/8.3.1/../../../../pic32c/lib/thumb/v7e-m+fp/hard\libc-musl.a(expand_heap.o)
 .debug_str     0x0000000000051b41      0x28e c:/program files/microchip/xc32/v4.45/bin/bin/../../lib/gcc/pic32c/8.3.1/../../../../pic32c/lib/thumb/v7e-m+fp/hard\libc-musl.a(rand.o)
 .debug_str     0x0000000000051dcf      0x38b c:/program files/microchip/xc32/v4.45/bin/bin/../../lib/gcc/pic32c/8.3.1/../../../../pic32c/lib/thumb/v7e-m+fp/hard\libc-musl.a(vsnprintf.o)
 .debug_str     0x000000000005215a      0x23d c:/program files/microchip/xc32/v4.45/bin/bin/../../lib/gcc/pic32c/8.3.1/../../../../pic32c/lib/thumb/v7e-m+fp/hard\libc-musl.a(snprintf.o)
 .debug_str     0x0000000000052397      0x233 c:/program files/microchip/xc32/v4.45/bin/bin/../../lib/gcc/pic32c/8.3.1/../../../../pic32c/lib/thumb/v7e-m+fp/hard\libc-musl.a(sprintf.o)
 .debug_str     0x00000000000525ca      0x236 c:/program files/microchip/xc32/v4.45/bin/bin/../../lib/gcc/pic32c/8.3.1/../../../../pic32c/lib/thumb/v7e-m+fp/hard\libc-musl.a(vsprintf.o)
 .debug_str     0x0000000000052800      0x226 c:/program files/microchip/xc32/v4.45/bin/bin/../../lib/gcc/pic32c/8.3.1/../../../../pic32c/lib/thumb/v7e-m+fp/hard\libc-musl.a(atoi.o)
 .debug_str     0x0000000000052a26      0x39a c:/program files/microchip/xc32/v4.45/bin/bin/../../lib/gcc/pic32c/8.3.1/../../../../pic32c/lib/thumb/v7e-m+fp/hard\libc-musl.a(strtol.o)
 .debug_str     0x0000000000052dc0      0x23f c:/program files/microchip/xc32/v4.45/bin/bin/../../lib/gcc/pic32c/8.3.1/../../../../pic32c/lib/thumb/v7e-m+fp/hard\libc-musl.a(__environ.o)
 .debug_str     0x0000000000052fff      0x374 c:/program files/microchip/xc32/v4.45/bin/bin/../../lib/gcc/pic32c/8.3.1/../../../../pic32c/lib/thumb/v7e-m+fp/hard\libc-musl.a(intscan.o)
 .debug_str     0x0000000000053373      0x34b c:/program files/microchip/xc32/v4.45/bin/bin/../../lib/gcc/pic32c/8.3.1/../../../../pic32c/lib/thumb/v7e-m+fp/hard\libc-musl.a(shgetc.o)
 .debug_str     0x00000000000536be      0x341 c:/program files/microchip/xc32/v4.45/bin/bin/../../lib/gcc/pic32c/8.3.1/../../../../pic32c/lib/thumb/v7e-m+fp/hard\libc-musl.a(__uflow.o)
 .debug_str     0x00000000000539ff      0x389 c:/program files/microchip/xc32/v4.45/bin/bin/../../lib/gcc/pic32c/8.3.1/../../../../pic32c/lib/thumb/v7e-m+fp/hard\libc-musl.a(vfprintf.o)
 .debug_str     0x0000000000053d88      0x368 c:/program files/microchip/xc32/v4.45/bin/bin/../../lib/gcc/pic32c/8.3.1/../../../../pic32c/lib/thumb/v7e-m+fp/hard\libc-musl.a(__toread.o)
 .debug_str     0x00000000000540f0      0x2ca c:/program files/microchip/xc32/v4.45/bin/bin/../../lib/gcc/pic32c/8.3.1/../../../../pic32c/lib/thumb/v7e-m+fp/hard\libc-musl.a(__pop_float.o)
 .debug_str     0x00000000000543ba      0x2d5 c:/program files/microchip/xc32/v4.45/bin/bin/../../lib/gcc/pic32c/8.3.1/../../../../pic32c/lib/thumb/v7e-m+fp/hard\libc-musl.a(__pop_int.o)
 .debug_str     0x000000000005468f      0x2d7 c:/program files/microchip/xc32/v4.45/bin/bin/../../lib/gcc/pic32c/8.3.1/../../../../pic32c/lib/thumb/v7e-m+fp/hard\libc-musl.a(__pop_ptr.o)
 .debug_str     0x0000000000054966      0x3f1 c:/program files/microchip/xc32/v4.45/bin/bin/../../lib/gcc/pic32c/8.3.1/../../../../pic32c/lib/thumb/v7e-m+fp/hard\libc-musl.a(__printf_core.o)
 .debug_str     0x0000000000054d57      0x33d c:/program files/microchip/xc32/v4.45/bin/bin/../../lib/gcc/pic32c/8.3.1/../../../../pic32c/lib/thumb/v7e-m+fp/hard\libc-musl.a(__fmt_a.o)
 .debug_str     0x0000000000055094      0x2ff c:/program files/microchip/xc32/v4.45/bin/bin/../../lib/gcc/pic32c/8.3.1/../../../../pic32c/lib/thumb/v7e-m+fp/hard\libc-musl.a(__fmt_d.o)
 .debug_str     0x0000000000055393      0x35e c:/program files/microchip/xc32/v4.45/bin/bin/../../lib/gcc/pic32c/8.3.1/../../../../pic32c/lib/thumb/v7e-m+fp/hard\libc-musl.a(__fmt_fp.o)
 .debug_str     0x00000000000556f1      0x2ff c:/program files/microchip/xc32/v4.45/bin/bin/../../lib/gcc/pic32c/8.3.1/../../../../pic32c/lib/thumb/v7e-m+fp/hard\libc-musl.a(__fmt_o.o)
 .debug_str     0x00000000000559f0      0x2eb c:/program files/microchip/xc32/v4.45/bin/bin/../../lib/gcc/pic32c/8.3.1/../../../../pic32c/lib/thumb/v7e-m+fp/hard\libc-musl.a(__fmt_s.o)
 .debug_str     0x0000000000055cdb      0x2ff c:/program files/microchip/xc32/v4.45/bin/bin/../../lib/gcc/pic32c/8.3.1/../../../../pic32c/lib/thumb/v7e-m+fp/hard\libc-musl.a(__fmt_u.o)
 .debug_str     0x0000000000055fda      0x2ff c:/program files/microchip/xc32/v4.45/bin/bin/../../lib/gcc/pic32c/8.3.1/../../../../pic32c/lib/thumb/v7e-m+fp/hard\libc-musl.a(__fmt_x.o)
 .debug_str     0x00000000000562d9      0x2bb c:/program files/microchip/xc32/v4.45/bin/bin/../../lib/gcc/pic32c/8.3.1/../../../../pic32c/lib/thumb/v7e-m+fp/hard\libc-musl.a(__cvt_u.o)
 .debug_str     0x0000000000056594       0xd6 c:/program files/microchip/xc32/v4.45/bin/bin/../../lib/gcc/pic32c/8.3.1/thumb/v7e-m+fp/hard\libgcc.a(_aeabi_uldivmod.o)
 .debug_str     0x000000000005666a      0x2cd c:/program files/microchip/xc32/v4.45/bin/bin/../../lib/gcc/pic32c/8.3.1/thumb/v7e-m+fp/hard\libgcc.a(_udivmoddi4.o)
 .debug_str     0x0000000000056937       0xda c:/program files/microchip/xc32/v4.45/bin/bin/../../lib/gcc/pic32c/8.3.1/thumb/v7e-m+fp/hard\libgcc.a(_dvmd_tls.o)
 .debug_str     0x0000000000056a11      0x1e6 c:/program files/microchip/xc32/v4.45/bin/bin/../../lib/gcc/pic32c/8.3.1/../../../../pic32c/lib/thumb/v7e-m+fp/hard\libpic32c.a(sbrk.o)
 .debug_str     0x0000000000056bf7      0x1df c:/program files/microchip/xc32/v4.45/bin/bin/../../lib/gcc/pic32c/8.3.1/../../../../pic32c/lib/thumb/v7e-m+fp/hard\libpic32c.a(pic32_data_init_clear.o)
 .debug_str     0x0000000000056dd6      0x1dd c:/program files/microchip/xc32/v4.45/bin/bin/../../lib/gcc/pic32c/8.3.1/../../../../pic32c/lib/thumb/v7e-m+fp/hard\libpic32c.a(pic32_data_init_copy.o)

.debug_frame    0x0000000000000000     0x8364
 .debug_frame   0x0000000000000000      0x5f8 build/FreeRTOS/production/_ext/1609394304/crypto.o
 .debug_frame   0x00000000000005f8      0x2f0 build/FreeRTOS/production/_ext/1785105562/tc6.o
 .debug_frame   0x00000000000008e8      0x584 build/FreeRTOS/production/_ext/585597058/drv_lan865x_api.o
 .debug_frame   0x0000000000000e6c      0x268 build/FreeRTOS/production/_ext/1348046844/drv_spi.o
 .debug_frame   0x00000000000010d4       0xe8 build/FreeRTOS/production/_ext/540595297/helpers.o
 .debug_frame   0x00000000000011bc      0x2f4 build/FreeRTOS/production/_ext/540595297/tcpip_commands.o
 .debug_frame   0x00000000000014b0      0x168 build/FreeRTOS/production/_ext/540595297/tcpip_packet.o
 .debug_frame   0x0000000000001618      0x738 build/FreeRTOS/production/_ext/540595297/tcpip_helpers.o
 .debug_frame   0x0000000000001d50      0x12c build/FreeRTOS/production/_ext/540595297/tcpip_heap_internal.o
 .debug_frame   0x0000000000001e7c       0xb8 build/FreeRTOS/production/_ext/540595297/tcpip_notify.o
 .debug_frame   0x0000000000001f34      0x274 build/FreeRTOS/production/_ext/540595297/iperf.o
 .debug_frame   0x00000000000021a8      0x7a8 build/FreeRTOS/production/_ext/540595297/tcp.o
 .debug_frame   0x0000000000002950      0x654 build/FreeRTOS/production/_ext/540595297/udp.o
 .debug_frame   0x0000000000002fa4      0xb24 build/FreeRTOS/production/_ext/540595297/tcpip_manager.o
 .debug_frame   0x0000000000003ac8       0xa8 build/FreeRTOS/production/_ext/540595297/tcpip_heap_alloc.o
 .debug_frame   0x0000000000003b70       0x30 build/FreeRTOS/production/_ext/540595297/hash_fnv.o
 .debug_frame   0x0000000000003ba0      0x470 build/FreeRTOS/production/_ext/540595297/arp.o
 .debug_frame   0x0000000000004010      0x10c build/FreeRTOS/production/_ext/540595297/icmp.o
 .debug_frame   0x000000000000411c      0x348 build/FreeRTOS/production/_ext/540595297/ipv4.o
 .debug_frame   0x0000000000004464       0xd0 build/FreeRTOS/production/_ext/540595297/oahash.o
 .debug_frame   0x0000000000004534      0x448 build/FreeRTOS/production/_ext/540595297/dns.o
 .debug_frame   0x000000000000497c      0x180 build/FreeRTOS/production/_ext/891571577/osal_freertos.o
 .debug_frame   0x0000000000004afc       0x20 build/FreeRTOS/production/_ext/892004133/plib_clock.o
 .debug_frame   0x0000000000004b1c      0x194 build/FreeRTOS/production/_ext/1495216012/plib_dmac.o
 .debug_frame   0x0000000000004cb0       0x20 build/FreeRTOS/production/_ext/894153619/plib_evsys.o
 .debug_frame   0x0000000000004cd0       0x50 build/FreeRTOS/production/_ext/1494909205/plib_nvic.o
 .debug_frame   0x0000000000004d20      0x1d8 build/FreeRTOS/production/_ext/320424729/plib_nvmctrl.o
 .debug_frame   0x0000000000004ef8       0xcc build/FreeRTOS/production/_ext/1494856054/plib_port.o
 .debug_frame   0x0000000000004fc4       0xe0 build/FreeRTOS/production/_ext/1428073114/plib_sercom0_spi_master.o
 .debug_frame   0x00000000000050a4      0x240 build/FreeRTOS/production/_ext/2092608928/plib_sercom1_usart.o
 .debug_frame   0x00000000000052e4       0xd8 build/FreeRTOS/production/_ext/579449528/plib_tc0.o
 .debug_frame   0x00000000000053bc      0x348 build/FreeRTOS/production/_ext/1005353002/sys_command.o
 .debug_frame   0x0000000000005704      0x1d8 build/FreeRTOS/production/_ext/548640822/sys_console.o
 .debug_frame   0x00000000000058dc      0x11c build/FreeRTOS/production/_ext/548640822/sys_console_uart.o
 .debug_frame   0x00000000000059f8       0x70 build/FreeRTOS/production/_ext/147610190/sys_debug.o
 .debug_frame   0x0000000000005a68       0x48 build/FreeRTOS/production/_ext/50312702/sys_dma.o
 .debug_frame   0x0000000000005ab0       0x84 build/FreeRTOS/production/_ext/1690414130/sys_int.o
 .debug_frame   0x0000000000005b34       0x20 build/FreeRTOS/production/_ext/1093154855/sys_reset.o
 .debug_frame   0x0000000000005b54      0x400 build/FreeRTOS/production/_ext/832704728/sys_time.o
 .debug_frame   0x0000000000005f54       0x88 build/FreeRTOS/production/_ext/2072568807/sys_time_h2_adapter.o
 .debug_frame   0x0000000000005fdc       0xc4 build/FreeRTOS/production/_ext/2072568807/sys_random_h2_adapter.o
 .debug_frame   0x00000000000060a0       0x78 build/FreeRTOS/production/_ext/161576091/tasks.o
 .debug_frame   0x0000000000006118       0x6c build/FreeRTOS/production/_ext/161576091/freertos_hooks.o
 .debug_frame   0x0000000000006184       0x38 build/FreeRTOS/production/_ext/161576091/startup_xc32.o
 .debug_frame   0x00000000000061bc       0x44 build/FreeRTOS/production/_ext/161576091/initialization.o
 .debug_frame   0x0000000000006200       0x20 build/FreeRTOS/production/_ext/161576091/interrupts.o
 .debug_frame   0x0000000000006220       0x70 build/FreeRTOS/production/_ext/161576091/exceptions.o
 .debug_frame   0x0000000000006290       0xe8 build/FreeRTOS/production/_ext/246609638/port.o
 .debug_frame   0x0000000000006378       0x5c build/FreeRTOS/production/_ext/1665200909/heap_1.o
 .debug_frame   0x00000000000063d4       0x6c build/FreeRTOS/production/_ext/404212886/list.o
 .debug_frame   0x0000000000006440      0x4a0 build/FreeRTOS/production/_ext/404212886/FreeRTOS_tasks.o
 .debug_frame   0x00000000000068e0      0x29c build/FreeRTOS/production/_ext/404212886/queue.o
 .debug_frame   0x0000000000006b7c       0x38 build/FreeRTOS/production/_ext/172253694/crypt_wolfcryptcb.o
 .debug_frame   0x0000000000006bb4      0x138 build/FreeRTOS/production/_ext/1664057780/md5.o
 .debug_frame   0x0000000000006cec      0x278 build/FreeRTOS/production/_ext/1664057780/sha256.o
 .debug_frame   0x0000000000006f64      0x31c build/FreeRTOS/production/_ext/1664057780/random.o
 .debug_frame   0x0000000000007280      0x4b4 build/FreeRTOS/production/_ext/1664057780/cryptocb.o
 .debug_frame   0x0000000000007734       0x44 build/FreeRTOS/production/_ext/1360937237/app.o
 .debug_frame   0x0000000000007778       0x28 build/FreeRTOS/production/_ext/1360937237/main.o
 .debug_frame   0x00000000000077a0       0x3c c:/program files/microchip/xc32/v4.45/bin/bin/../../lib/gcc/pic32c/8.3.1/../../../../pic32c/lib/thumb/v7e-m+fp/hard\libpic32c.a(data_init.o)
 .debug_frame   0x00000000000077dc       0x2c c:/program files/microchip/xc32/v4.45/bin/bin/../../lib/gcc/pic32c/8.3.1/../../../../pic32c/lib/thumb/v7e-m+fp/hard\libc-size-musl.a(memcmp.o)
 .debug_frame   0x0000000000007808       0x2c c:/program files/microchip/xc32/v4.45/bin/bin/../../lib/gcc/pic32c/8.3.1/../../../../pic32c/lib/thumb/v7e-m+fp/hard\libc-size-musl.a(memcpy.o)
 .debug_frame   0x0000000000007834       0x20 c:/program files/microchip/xc32/v4.45/bin/bin/../../lib/gcc/pic32c/8.3.1/../../../../pic32c/lib/thumb/v7e-m+fp/hard\libc-size-musl.a(memset.o)
 .debug_frame   0x0000000000007854       0x20 c:/program files/microchip/xc32/v4.45/bin/bin/../../lib/gcc/pic32c/8.3.1/../../../../pic32c/lib/thumb/v7e-m+fp/hard\libc-size-musl.a(strlen.o)
 .debug_frame   0x0000000000007874       0x28 c:/program files/microchip/xc32/v4.45/bin/bin/../../lib/gcc/pic32c/8.3.1/../../../../pic32c/lib/thumb/v7e-m+fp/hard\libc-size-musl.a(strchr.o)
 .debug_frame   0x000000000000789c       0x30 c:/program files/microchip/xc32/v4.45/bin/bin/../../lib/gcc/pic32c/8.3.1/../../../../pic32c/lib/thumb/v7e-m+fp/hard\libc-size-musl.a(strchrnul.o)
 .debug_frame   0x00000000000078cc       0x28 c:/program files/microchip/xc32/v4.45/bin/bin/../../lib/gcc/pic32c/8.3.1/../../../../pic32c/lib/thumb/v7e-m+fp/hard\libc-size-musl.a(strcmp.o)
 .debug_frame   0x00000000000078f4       0x28 c:/program files/microchip/xc32/v4.45/bin/bin/../../lib/gcc/pic32c/8.3.1/../../../../pic32c/lib/thumb/v7e-m+fp/hard\libc-size-musl.a(strcpy.o)
 .debug_frame   0x000000000000791c       0x2c c:/program files/microchip/xc32/v4.45/bin/bin/../../lib/gcc/pic32c/8.3.1/../../../../pic32c/lib/thumb/v7e-m+fp/hard\libc-size-musl.a(strncmp.o)
 .debug_frame   0x0000000000007948       0x28 c:/program files/microchip/xc32/v4.45/bin/bin/../../lib/gcc/pic32c/8.3.1/../../../../pic32c/lib/thumb/v7e-m+fp/hard\libc-size-musl.a(strncpy.o)
 .debug_frame   0x0000000000007970       0x34 c:/program files/microchip/xc32/v4.45/bin/bin/../../lib/gcc/pic32c/8.3.1/../../../../pic32c/lib/thumb/v7e-m+fp/hard\libc-size-musl.a(strrchr.o)
 .debug_frame   0x00000000000079a4       0x2c c:/program files/microchip/xc32/v4.45/bin/bin/../../lib/gcc/pic32c/8.3.1/../../../../pic32c/lib/thumb/v7e-m+fp/hard\libc-size-musl.a(strtok.o)
 .debug_frame   0x00000000000079d0       0x28 c:/program files/microchip/xc32/v4.45/bin/bin/../../lib/gcc/pic32c/8.3.1/../../../../pic32c/lib/thumb/v7e-m+fp/hard\libc-size-musl.a(memrchr.o)
 .debug_frame   0x00000000000079f8       0x20 c:/program files/microchip/xc32/v4.45/bin/bin/../../lib/gcc/pic32c/8.3.1/../../../../pic32c/lib/thumb/v7e-m+fp/hard\libc-size-musl.a(stpcpy.o)
 .debug_frame   0x0000000000007a18       0x38 c:/program files/microchip/xc32/v4.45/bin/bin/../../lib/gcc/pic32c/8.3.1/../../../../pic32c/lib/thumb/v7e-m+fp/hard\libc-size-musl.a(stpncpy.o)
 .debug_frame   0x0000000000007a50       0x34 c:/program files/microchip/xc32/v4.45/bin/bin/../../lib/gcc/pic32c/8.3.1/../../../../pic32c/lib/thumb/v7e-m+fp/hard\libc-size-musl.a(strcspn.o)
 .debug_frame   0x0000000000007a84       0x34 c:/program files/microchip/xc32/v4.45/bin/bin/../../lib/gcc/pic32c/8.3.1/../../../../pic32c/lib/thumb/v7e-m+fp/hard\libc-size-musl.a(strspn.o)
 .debug_frame   0x0000000000007ab8       0x5c c:/program files/microchip/xc32/v4.45/bin/bin/../../lib/gcc/pic32c/8.3.1/../../../../pic32c/lib/thumb/v7e-m+fp/hard\liblmalloc-musl.a(lite_free.o)
 .debug_frame   0x0000000000007b14       0x30 c:/program files/microchip/xc32/v4.45/bin/bin/../../lib/gcc/pic32c/8.3.1/../../../../pic32c/lib/thumb/v7e-m+fp/hard\liblmalloc-musl.a(lite_malloc.o)
 .debug_frame   0x0000000000007b44       0x30 c:/program files/microchip/xc32/v4.45/bin/bin/../../lib/gcc/pic32c/8.3.1/../../../../pic32c/lib/thumb/v7e-m+fp/hard\libc-musl.a(isxdigit.o)
 .debug_frame   0x0000000000007b74       0x30 c:/program files/microchip/xc32/v4.45/bin/bin/../../lib/gcc/pic32c/8.3.1/../../../../pic32c/lib/thumb/v7e-m+fp/hard\libc-musl.a(tolower.o)
 .debug_frame   0x0000000000007ba4       0x30 c:/program files/microchip/xc32/v4.45/bin/bin/../../lib/gcc/pic32c/8.3.1/../../../../pic32c/lib/thumb/v7e-m+fp/hard\libc-musl.a(toupper.o)
 .debug_frame   0x0000000000007bd4       0x3c c:/program files/microchip/xc32/v4.45/bin/bin/../../lib/gcc/pic32c/8.3.1/../../../../pic32c/lib/thumb/v7e-m+fp/hard\libc-musl.a(__libc_start_main.o)
 .debug_frame   0x0000000000007c10       0x28 c:/program files/microchip/xc32/v4.45/bin/bin/../../lib/gcc/pic32c/8.3.1/../../../../pic32c/lib/thumb/v7e-m+fp/hard\libc-musl.a(expand_heap.o)
 .debug_frame   0x0000000000007c38       0x30 c:/program files/microchip/xc32/v4.45/bin/bin/../../lib/gcc/pic32c/8.3.1/../../../../pic32c/lib/thumb/v7e-m+fp/hard\libc-musl.a(rand.o)
 .debug_frame   0x0000000000007c68       0x38 c:/program files/microchip/xc32/v4.45/bin/bin/../../lib/gcc/pic32c/8.3.1/../../../../pic32c/lib/thumb/v7e-m+fp/hard\libc-musl.a(vsnprintf.o)
 .debug_frame   0x0000000000007ca0       0x38 c:/program files/microchip/xc32/v4.45/bin/bin/../../lib/gcc/pic32c/8.3.1/../../../../pic32c/lib/thumb/v7e-m+fp/hard\libc-musl.a(snprintf.o)
 .debug_frame   0x0000000000007cd8       0x3c c:/program files/microchip/xc32/v4.45/bin/bin/../../lib/gcc/pic32c/8.3.1/../../../../pic32c/lib/thumb/v7e-m+fp/hard\libc-musl.a(sprintf.o)
 .debug_frame   0x0000000000007d14       0x20 c:/program files/microchip/xc32/v4.45/bin/bin/../../lib/gcc/pic32c/8.3.1/../../../../pic32c/lib/thumb/v7e-m+fp/hard\libc-musl.a(vsprintf.o)
 .debug_frame   0x0000000000007d34       0x28 c:/program files/microchip/xc32/v4.45/bin/bin/../../lib/gcc/pic32c/8.3.1/../../../../pic32c/lib/thumb/v7e-m+fp/hard\libc-musl.a(atoi.o)
 .debug_frame   0x0000000000007d5c       0xc4 c:/program files/microchip/xc32/v4.45/bin/bin/../../lib/gcc/pic32c/8.3.1/../../../../pic32c/lib/thumb/v7e-m+fp/hard\libc-musl.a(strtol.o)
 .debug_frame   0x0000000000007e20       0x40 c:/program files/microchip/xc32/v4.45/bin/bin/../../lib/gcc/pic32c/8.3.1/../../../../pic32c/lib/thumb/v7e-m+fp/hard\libc-musl.a(intscan.o)
 .debug_frame   0x0000000000007e60       0x44 c:/program files/microchip/xc32/v4.45/bin/bin/../../lib/gcc/pic32c/8.3.1/../../../../pic32c/lib/thumb/v7e-m+fp/hard\libc-musl.a(shgetc.o)
 .debug_frame   0x0000000000007ea4       0x30 c:/program files/microchip/xc32/v4.45/bin/bin/../../lib/gcc/pic32c/8.3.1/../../../../pic32c/lib/thumb/v7e-m+fp/hard\libc-musl.a(__uflow.o)
 .debug_frame   0x0000000000007ed4       0x3c c:/program files/microchip/xc32/v4.45/bin/bin/../../lib/gcc/pic32c/8.3.1/../../../../pic32c/lib/thumb/v7e-m+fp/hard\libc-musl.a(vfprintf.o)
 .debug_frame   0x0000000000007f10       0x38 c:/program files/microchip/xc32/v4.45/bin/bin/../../lib/gcc/pic32c/8.3.1/../../../../pic32c/lib/thumb/v7e-m+fp/hard\libc-musl.a(__toread.o)
 .debug_frame   0x0000000000007f48       0x20 c:/program files/microchip/xc32/v4.45/bin/bin/../../lib/gcc/pic32c/8.3.1/../../../../pic32c/lib/thumb/v7e-m+fp/hard\libc-musl.a(__pop_float.o)
 .debug_frame   0x0000000000007f68       0x28 c:/program files/microchip/xc32/v4.45/bin/bin/../../lib/gcc/pic32c/8.3.1/../../../../pic32c/lib/thumb/v7e-m+fp/hard\libc-musl.a(__pop_int.o)
 .debug_frame   0x0000000000007f90       0x28 c:/program files/microchip/xc32/v4.45/bin/bin/../../lib/gcc/pic32c/8.3.1/../../../../pic32c/lib/thumb/v7e-m+fp/hard\libc-musl.a(__pop_ptr.o)
 .debug_frame   0x0000000000007fb8       0xd0 c:/program files/microchip/xc32/v4.45/bin/bin/../../lib/gcc/pic32c/8.3.1/../../../../pic32c/lib/thumb/v7e-m+fp/hard\libc-musl.a(__printf_core.o)
 .debug_frame   0x0000000000008088       0x40 c:/program files/microchip/xc32/v4.45/bin/bin/../../lib/gcc/pic32c/8.3.1/../../../../pic32c/lib/thumb/v7e-m+fp/hard\libc-musl.a(__fmt_a.o)
 .debug_frame   0x00000000000080c8       0x3c c:/program files/microchip/xc32/v4.45/bin/bin/../../lib/gcc/pic32c/8.3.1/../../../../pic32c/lib/thumb/v7e-m+fp/hard\libc-musl.a(__fmt_d.o)
 .debug_frame   0x0000000000008104       0x50 c:/program files/microchip/xc32/v4.45/bin/bin/../../lib/gcc/pic32c/8.3.1/../../../../pic32c/lib/thumb/v7e-m+fp/hard\libc-musl.a(__fmt_fp.o)
 .debug_frame   0x0000000000008154       0x34 c:/program files/microchip/xc32/v4.45/bin/bin/../../lib/gcc/pic32c/8.3.1/../../../../pic32c/lib/thumb/v7e-m+fp/hard\libc-musl.a(__fmt_o.o)
 .debug_frame   0x0000000000008188       0x34 c:/program files/microchip/xc32/v4.45/bin/bin/../../lib/gcc/pic32c/8.3.1/../../../../pic32c/lib/thumb/v7e-m+fp/hard\libc-musl.a(__fmt_s.o)
 .debug_frame   0x00000000000081bc       0x34 c:/program files/microchip/xc32/v4.45/bin/bin/../../lib/gcc/pic32c/8.3.1/../../../../pic32c/lib/thumb/v7e-m+fp/hard\libc-musl.a(__fmt_u.o)
 .debug_frame   0x00000000000081f0       0x40 c:/program files/microchip/xc32/v4.45/bin/bin/../../lib/gcc/pic32c/8.3.1/../../../../pic32c/lib/thumb/v7e-m+fp/hard\libc-musl.a(__fmt_x.o)
 .debug_frame   0x0000000000008230       0x38 c:/program files/microchip/xc32/v4.45/bin/bin/../../lib/gcc/pic32c/8.3.1/../../../../pic32c/lib/thumb/v7e-m+fp/hard\libc-musl.a(__cvt_u.o)
 .debug_frame   0x0000000000008268       0x2c c:/program files/microchip/xc32/v4.45/bin/bin/../../lib/gcc/pic32c/8.3.1/thumb/v7e-m+fp/hard\libgcc.a(_aeabi_uldivmod.o)
 .debug_frame   0x0000000000008294       0x38 c:/program files/microchip/xc32/v4.45/bin/bin/../../lib/gcc/pic32c/8.3.1/thumb/v7e-m+fp/hard\libgcc.a(_udivmoddi4.o)
 .debug_frame   0x00000000000082cc       0x50 c:/program files/microchip/xc32/v4.45/bin/bin/../../lib/gcc/pic32c/8.3.1/../../../../pic32c/lib/thumb/v7e-m+fp/hard\libpic32c.a(sbrk.o)
 .debug_frame   0x000000000000831c       0x20 c:/program files/microchip/xc32/v4.45/bin/bin/../../lib/gcc/pic32c/8.3.1/../../../../pic32c/lib/thumb/v7e-m+fp/hard\libpic32c.a(pic32_data_init_clear.o)
 .debug_frame   0x000000000000833c       0x28 c:/program files/microchip/xc32/v4.45/bin/bin/../../lib/gcc/pic32c/8.3.1/../../../../pic32c/lib/thumb/v7e-m+fp/hard\libpic32c.a(pic32_data_init_copy.o)

.note.GNU-stack
                0x0000000000000000        0x0
 .note.GNU-stack
                0x0000000000000000        0x0 c:/program files/microchip/xc32/v4.45/bin/bin/../../lib/gcc/pic32c/8.3.1/../../../../pic32c/lib/thumb/v7e-m+fp/hard\libc-size-musl.a(memcmp.o)
 .note.GNU-stack
                0x0000000000000000        0x0 c:/program files/microchip/xc32/v4.45/bin/bin/../../lib/gcc/pic32c/8.3.1/../../../../pic32c/lib/thumb/v7e-m+fp/hard\libc-size-musl.a(memcpy.o)
 .note.GNU-stack
                0x0000000000000000        0x0 c:/program files/microchip/xc32/v4.45/bin/bin/../../lib/gcc/pic32c/8.3.1/../../../../pic32c/lib/thumb/v7e-m+fp/hard\libc-size-musl.a(memset.o)
 .note.GNU-stack
                0x0000000000000000        0x0 c:/program files/microchip/xc32/v4.45/bin/bin/../../lib/gcc/pic32c/8.3.1/../../../../pic32c/lib/thumb/v7e-m+fp/hard\libc-size-musl.a(strlen.o)
 .note.GNU-stack
                0x0000000000000000        0x0 c:/program files/microchip/xc32/v4.45/bin/bin/../../lib/gcc/pic32c/8.3.1/../../../../pic32c/lib/thumb/v7e-m+fp/hard\libc-size-musl.a(strchr.o)
 .note.GNU-stack
                0x0000000000000000        0x0 c:/program files/microchip/xc32/v4.45/bin/bin/../../lib/gcc/pic32c/8.3.1/../../../../pic32c/lib/thumb/v7e-m+fp/hard\libc-size-musl.a(strchrnul.o)
 .note.GNU-stack
                0x0000000000000000        0x0 c:/program files/microchip/xc32/v4.45/bin/bin/../../lib/gcc/pic32c/8.3.1/../../../../pic32c/lib/thumb/v7e-m+fp/hard\libc-size-musl.a(strcmp.o)
 .note.GNU-stack
                0x0000000000000000        0x0 c:/program files/microchip/xc32/v4.45/bin/bin/../../lib/gcc/pic32c/8.3.1/../../../../pic32c/lib/thumb/v7e-m+fp/hard\libc-size-musl.a(strcpy.o)
 .note.GNU-stack
                0x0000000000000000        0x0 c:/program files/microchip/xc32/v4.45/bin/bin/../../lib/gcc/pic32c/8.3.1/../../../../pic32c/lib/thumb/v7e-m+fp/hard\libc-size-musl.a(strncmp.o)
 .note.GNU-stack
                0x0000000000000000        0x0 c:/program files/microchip/xc32/v4.45/bin/bin/../../lib/gcc/pic32c/8.3.1/../../../../pic32c/lib/thumb/v7e-m+fp/hard\libc-size-musl.a(strncpy.o)
 .note.GNU-stack
                0x0000000000000000        0x0 c:/program files/microchip/xc32/v4.45/bin/bin/../../lib/gcc/pic32c/8.3.1/../../../../pic32c/lib/thumb/v7e-m+fp/hard\libc-size-musl.a(strrchr.o)
 .note.GNU-stack
                0x0000000000000000        0x0 c:/program files/microchip/xc32/v4.45/bin/bin/../../lib/gcc/pic32c/8.3.1/../../../../pic32c/lib/thumb/v7e-m+fp/hard\libc-size-musl.a(strtok.o)
 .note.GNU-stack
                0x0000000000000000        0x0 c:/program files/microchip/xc32/v4.45/bin/bin/../../lib/gcc/pic32c/8.3.1/../../../../pic32c/lib/thumb/v7e-m+fp/hard\libc-size-musl.a(memrchr.o)
 .note.GNU-stack
                0x0000000000000000        0x0 c:/program files/microchip/xc32/v4.45/bin/bin/../../lib/gcc/pic32c/8.3.1/../../../../pic32c/lib/thumb/v7e-m+fp/hard\libc-size-musl.a(stpcpy.o)
 .note.GNU-stack
                0x0000000000000000        0x0 c:/program files/microchip/xc32/v4.45/bin/bin/../../lib/gcc/pic32c/8.3.1/../../../../pic32c/lib/thumb/v7e-m+fp/hard\libc-size-musl.a(stpncpy.o)
 .note.GNU-stack
                0x0000000000000000        0x0 c:/program files/microchip/xc32/v4.45/bin/bin/../../lib/gcc/pic32c/8.3.1/../../../../pic32c/lib/thumb/v7e-m+fp/hard\libc-size-musl.a(strcspn.o)
 .note.GNU-stack
                0x0000000000000000        0x0 c:/program files/microchip/xc32/v4.45/bin/bin/../../lib/gcc/pic32c/8.3.1/../../../../pic32c/lib/thumb/v7e-m+fp/hard\libc-size-musl.a(strspn.o)
 .note.GNU-stack
                0x0000000000000000        0x0 c:/program files/microchip/xc32/v4.45/bin/bin/../../lib/gcc/pic32c/8.3.1/../../../../pic32c/lib/thumb/v7e-m+fp/hard\liblmalloc-musl.a(lite_free.o)
 .note.GNU-stack
                0x0000000000000000        0x0 c:/program files/microchip/xc32/v4.45/bin/bin/../../lib/gcc/pic32c/8.3.1/../../../../pic32c/lib/thumb/v7e-m+fp/hard\liblmalloc-musl.a(lite_malloc.o)
 .note.GNU-stack
                0x0000000000000000        0x0 c:/program files/microchip/xc32/v4.45/bin/bin/../../lib/gcc/pic32c/8.3.1/../../../../pic32c/lib/thumb/v7e-m+fp/hard\libc-musl.a(isxdigit.o)
 .note.GNU-stack
                0x0000000000000000        0x0 c:/program files/microchip/xc32/v4.45/bin/bin/../../lib/gcc/pic32c/8.3.1/../../../../pic32c/lib/thumb/v7e-m+fp/hard\libc-musl.a(tolower.o)
 .note.GNU-stack
                0x0000000000000000        0x0 c:/program files/microchip/xc32/v4.45/bin/bin/../../lib/gcc/pic32c/8.3.1/../../../../pic32c/lib/thumb/v7e-m+fp/hard\libc-musl.a(toupper.o)
 .note.GNU-stack
                0x0000000000000000        0x0 c:/program files/microchip/xc32/v4.45/bin/bin/../../lib/gcc/pic32c/8.3.1/../../../../pic32c/lib/thumb/v7e-m+fp/hard\libc-musl.a(__libc_start_main.o)
 .note.GNU-stack
                0x0000000000000000        0x0 c:/program files/microchip/xc32/v4.45/bin/bin/../../lib/gcc/pic32c/8.3.1/../../../../pic32c/lib/thumb/v7e-m+fp/hard\libc-musl.a(__errno_location.o)
 .note.GNU-stack
                0x0000000000000000        0x0 c:/program files/microchip/xc32/v4.45/bin/bin/../../lib/gcc/pic32c/8.3.1/../../../../pic32c/lib/thumb/v7e-m+fp/hard\libc-musl.a(libc.o)
 .note.GNU-stack
                0x0000000000000000        0x0 c:/program files/microchip/xc32/v4.45/bin/bin/../../lib/gcc/pic32c/8.3.1/../../../../pic32c/lib/thumb/v7e-m+fp/hard\libc-musl.a(expand_heap.o)
 .note.GNU-stack
                0x0000000000000000        0x0 c:/program files/microchip/xc32/v4.45/bin/bin/../../lib/gcc/pic32c/8.3.1/../../../../pic32c/lib/thumb/v7e-m+fp/hard\libc-musl.a(rand.o)
 .note.GNU-stack
                0x0000000000000000        0x0 c:/program files/microchip/xc32/v4.45/bin/bin/../../lib/gcc/pic32c/8.3.1/../../../../pic32c/lib/thumb/v7e-m+fp/hard\libc-musl.a(vsnprintf.o)
 .note.GNU-stack
                0x0000000000000000        0x0 c:/program files/microchip/xc32/v4.45/bin/bin/../../lib/gcc/pic32c/8.3.1/../../../../pic32c/lib/thumb/v7e-m+fp/hard\libc-musl.a(snprintf.o)
 .note.GNU-stack
                0x0000000000000000        0x0 c:/program files/microchip/xc32/v4.45/bin/bin/../../lib/gcc/pic32c/8.3.1/../../../../pic32c/lib/thumb/v7e-m+fp/hard\libc-musl.a(sprintf.o)
 .note.GNU-stack
                0x0000000000000000        0x0 c:/program files/microchip/xc32/v4.45/bin/bin/../../lib/gcc/pic32c/8.3.1/../../../../pic32c/lib/thumb/v7e-m+fp/hard\libc-musl.a(vsprintf.o)
 .note.GNU-stack
                0x0000000000000000        0x0 c:/program files/microchip/xc32/v4.45/bin/bin/../../lib/gcc/pic32c/8.3.1/../../../../pic32c/lib/thumb/v7e-m+fp/hard\libc-musl.a(atoi.o)
 .note.GNU-stack
                0x0000000000000000        0x0 c:/program files/microchip/xc32/v4.45/bin/bin/../../lib/gcc/pic32c/8.3.1/../../../../pic32c/lib/thumb/v7e-m+fp/hard\libc-musl.a(strtol.o)
 .note.GNU-stack
                0x0000000000000000        0x0 c:/program files/microchip/xc32/v4.45/bin/bin/../../lib/gcc/pic32c/8.3.1/../../../../pic32c/lib/thumb/v7e-m+fp/hard\libc-musl.a(__environ.o)
 .note.GNU-stack
                0x0000000000000000        0x0 c:/program files/microchip/xc32/v4.45/bin/bin/../../lib/gcc/pic32c/8.3.1/../../../../pic32c/lib/thumb/v7e-m+fp/hard\libc-musl.a(intscan.o)
 .note.GNU-stack
                0x0000000000000000        0x0 c:/program files/microchip/xc32/v4.45/bin/bin/../../lib/gcc/pic32c/8.3.1/../../../../pic32c/lib/thumb/v7e-m+fp/hard\libc-musl.a(shgetc.o)
 .note.GNU-stack
                0x0000000000000000        0x0 c:/program files/microchip/xc32/v4.45/bin/bin/../../lib/gcc/pic32c/8.3.1/../../../../pic32c/lib/thumb/v7e-m+fp/hard\libc-musl.a(__uflow.o)
 .note.GNU-stack
                0x0000000000000000        0x0 c:/program files/microchip/xc32/v4.45/bin/bin/../../lib/gcc/pic32c/8.3.1/../../../../pic32c/lib/thumb/v7e-m+fp/hard\libc-musl.a(vfprintf.o)
 .note.GNU-stack
                0x0000000000000000        0x0 c:/program files/microchip/xc32/v4.45/bin/bin/../../lib/gcc/pic32c/8.3.1/../../../../pic32c/lib/thumb/v7e-m+fp/hard\libc-musl.a(__toread.o)
 .note.GNU-stack
                0x0000000000000000        0x0 c:/program files/microchip/xc32/v4.45/bin/bin/../../lib/gcc/pic32c/8.3.1/../../../../pic32c/lib/thumb/v7e-m+fp/hard\libc-musl.a(__pop_float.o)
 .note.GNU-stack
                0x0000000000000000        0x0 c:/program files/microchip/xc32/v4.45/bin/bin/../../lib/gcc/pic32c/8.3.1/../../../../pic32c/lib/thumb/v7e-m+fp/hard\libc-musl.a(__pop_int.o)
 .note.GNU-stack
                0x0000000000000000        0x0 c:/program files/microchip/xc32/v4.45/bin/bin/../../lib/gcc/pic32c/8.3.1/../../../../pic32c/lib/thumb/v7e-m+fp/hard\libc-musl.a(__pop_ptr.o)
 .note.GNU-stack
                0x0000000000000000        0x0 c:/program files/microchip/xc32/v4.45/bin/bin/../../lib/gcc/pic32c/8.3.1/../../../../pic32c/lib/thumb/v7e-m+fp/hard\libc-musl.a(__printf_core.o)
 .note.GNU-stack
                0x0000000000000000        0x0 c:/program files/microchip/xc32/v4.45/bin/bin/../../lib/gcc/pic32c/8.3.1/../../../../pic32c/lib/thumb/v7e-m+fp/hard\libc-musl.a(__fmt_a.o)
 .note.GNU-stack
                0x0000000000000000        0x0 c:/program files/microchip/xc32/v4.45/bin/bin/../../lib/gcc/pic32c/8.3.1/../../../../pic32c/lib/thumb/v7e-m+fp/hard\libc-musl.a(__fmt_d.o)
 .note.GNU-stack
                0x0000000000000000        0x0 c:/program files/microchip/xc32/v4.45/bin/bin/../../lib/gcc/pic32c/8.3.1/../../../../pic32c/lib/thumb/v7e-m+fp/hard\libc-musl.a(__fmt_fp.o)
 .note.GNU-stack
                0x0000000000000000        0x0 c:/program files/microchip/xc32/v4.45/bin/bin/../../lib/gcc/pic32c/8.3.1/../../../../pic32c/lib/thumb/v7e-m+fp/hard\libc-musl.a(__fmt_o.o)
 .note.GNU-stack
                0x0000000000000000        0x0 c:/program files/microchip/xc32/v4.45/bin/bin/../../lib/gcc/pic32c/8.3.1/../../../../pic32c/lib/thumb/v7e-m+fp/hard\libc-musl.a(__fmt_s.o)
 .note.GNU-stack
                0x0000000000000000        0x0 c:/program files/microchip/xc32/v4.45/bin/bin/../../lib/gcc/pic32c/8.3.1/../../../../pic32c/lib/thumb/v7e-m+fp/hard\libc-musl.a(__fmt_u.o)
 .note.GNU-stack
                0x0000000000000000        0x0 c:/program files/microchip/xc32/v4.45/bin/bin/../../lib/gcc/pic32c/8.3.1/../../../../pic32c/lib/thumb/v7e-m+fp/hard\libc-musl.a(__fmt_x.o)
 .note.GNU-stack
                0x0000000000000000        0x0 c:/program files/microchip/xc32/v4.45/bin/bin/../../lib/gcc/pic32c/8.3.1/../../../../pic32c/lib/thumb/v7e-m+fp/hard\libc-musl.a(__cvt_u.o)

__xc_reference_data
                0x0000000000000000       0x5c
 __xc_reference_data
                0x0000000000000000        0x4 c:/program files/microchip/xc32/v4.45/bin/bin/../../lib/gcc/pic32c/8.3.1/../../../../pic32c/lib/thumb/v7e-m+fp/hard\libc-musl.a(vfprintf.o)
                0x0000000000000000                __vfprintf_needs_fmt
 __xc_reference_data
                0x0000000000000004       0x58 c:/program files/microchip/xc32/v4.45/bin/bin/../../lib/gcc/pic32c/8.3.1/../../../../pic32c/lib/thumb/v7e-m+fp/hard\libc-musl.a(__io_fmt_needed.o)
                0x0000000000000004                __io_fmt_needed

.stack          0x0000000020018ba0      0x100
 .stack         0x0000000020018ba0      0x100 stack

.bss.ucHeap%1   0x0000000020000000     0xa000
 .bss.ucHeap    0x0000000020000000     0xa000 build/FreeRTOS/production/_ext/1665200909/heap_1.o

.bss.m_tc6%2    0x000000002000a000     0x1190
 .bss.m_tc6     0x000000002000a000     0x1190 build/FreeRTOS/production/_ext/1785105562/tc6.o

.bss.icmpPingBuff%3
                0x000000002000b190      0x7d0
 .bss.icmpPingBuff
                0x000000002000b190      0x7d0 build/FreeRTOS/production/_ext/540595297/tcpip_commands.o

.bss.txfer_buffer%4
                0x000000002000b960      0x640
 .bss.txfer_buffer
                0x000000002000b960      0x640 build/FreeRTOS/production/_ext/540595297/iperf.o
                0x000000002000b960                txfer_buffer

.bss.SERCOM1_USART_ReadBuffer%5
                0x000000002000bfa0      0x400
 .bss.SERCOM1_USART_ReadBuffer
                0x000000002000bfa0      0x400 build/FreeRTOS/production/_ext/2092608928/plib_sercom1_usart.o

.bss.SERCOM1_USART_WriteBuffer%6
                0x000000002000c3a0      0x400
 .bss.SERCOM1_USART_WriteBuffer
                0x000000002000c3a0      0x400 build/FreeRTOS/production/_ext/2092608928/plib_sercom1_usart.o

.bss.printBuff%7
                0x000000002000c7a0      0x3e8
 .bss.printBuff
                0x000000002000c7a0      0x3e8 build/FreeRTOS/production/_ext/1005353002/sys_command.o

.bss.TCPIP_STACK_MODULE_SIGNAL_TBL%8
                0x000000002000cb88      0x280
 .bss.TCPIP_STACK_MODULE_SIGNAL_TBL
                0x000000002000cb88      0x280 build/FreeRTOS/production/_ext/540595297/tcpip_manager.o

.bss.drvLAN865XDrvInst%9
                0x000000002000ce08      0x114
 .bss.drvLAN865XDrvInst
                0x000000002000ce08      0x114 build/FreeRTOS/production/_ext/585597058/drv_lan865x_api.o

.bss.sysRandCtx%10
                0x000000002000cf1c      0x108
 .bss.sysRandCtx
                0x000000002000cf1c      0x108 build/FreeRTOS/production/_ext/2072568807/sys_random_h2_adapter.o

.bss.gIperfState%11
                0x000000002000d028       0xd8
 .bss.gIperfState
                0x000000002000d028       0xd8 build/FreeRTOS/production/_ext/540595297/iperf.o

.bss.consolePrintBuffer%12
                0x000000002000d100       0xc8
 .bss.consolePrintBuffer
                0x000000002000d100       0xc8 build/FreeRTOS/production/_ext/548640822/sys_console.o

.bss.usrCmdTbl%13
                0x000000002000d1c8       0xc0
 .bss.usrCmdTbl
                0x000000002000d1c8       0xc0 build/FreeRTOS/production/_ext/1005353002/sys_command.o

.bss.timers%14  0x000000002000d288       0xa0
 .bss.timers    0x000000002000d288       0xa0 build/FreeRTOS/production/_ext/832704728/sys_time.o

.bss.TCPIP_MODULES_QUEUE_TBL%15
                0x000000002000d328       0x90
 .bss.TCPIP_MODULES_QUEUE_TBL
                0x000000002000d328       0x90 build/FreeRTOS/production/_ext/540595297/tcpip_manager.o

.bss.echoRequestPool%16
                0x000000002000d3b8       0x90
 .bss.echoRequestPool
                0x000000002000d3b8       0x90 build/FreeRTOS/production/_ext/540595297/icmp.o

.bss.gDrvSPIObj%17
                0x000000002000d448       0x7c
 .bss.gDrvSPIObj
                0x000000002000d448       0x7c build/FreeRTOS/production/_ext/1348046844/drv_spi.o

.bss.pxReadyTasksLists%18
                0x000000002000d4c4       0x64
 .bss.pxReadyTasksLists
                0x000000002000d4c4       0x64 build/FreeRTOS/production/_ext/404212886/FreeRTOS_tasks.o

.bss.gCryptoDev%19
                0x000000002000d528       0x60
 .bss.gCryptoDev
                0x000000002000d528       0x60 build/FreeRTOS/production/_ext/1664057780/cryptocb.o

.bss.tmpBuf.15607%20
                0x000000002000d588       0x50
 .bss.tmpBuf.15607
                0x000000002000d588       0x50 build/FreeRTOS/production/_ext/585597058/drv_lan865x_api.o

.bss%21         0x000000002000d5d8       0x50
 .bss           0x000000002000d5d8       0x50 c:/program files/microchip/xc32/v4.45/bin/bin/../../lib/gcc/pic32c/8.3.1/../../../../pic32c/lib/thumb/v7e-m+fp/hard\libc-musl.a(libc.o)
                0x000000002000d5d8                __progname_full
                0x000000002000d5d8                program_invocation_name
                0x000000002000d5dc                program_invocation_short_name
                0x000000002000d5dc                __progname
                0x000000002000d5e0                __sysinfo
                0x000000002000d5e4                __hwcap
                0x000000002000d5e8                __libc

.bss.arpMod%22  0x000000002000d628       0x4c
 .bss.arpMod    0x000000002000d628       0x4c build/FreeRTOS/production/_ext/540595297/arp.o

.bss.dnslookupTargetHost%23
                0x000000002000d674       0x41
 .bss.dnslookupTargetHost
                0x000000002000d674       0x41 build/FreeRTOS/production/_ext/540595297/tcpip_commands.o

.bss.sercom1USARTObj%24
                0x000000002000d6b8       0x40
 .bss.sercom1USARTObj
                0x000000002000d6b8       0x40 build/FreeRTOS/production/_ext/2092608928/plib_sercom1_usart.o

.bss.gSystemCounterObj%25
                0x000000002000d6f8       0x40
 .bss.gSystemCounterObj
                0x000000002000d6f8       0x40 build/FreeRTOS/production/_ext/832704728/sys_time.o

.bss.g_bfr%26   0x000000002000d738       0x34
 .bss.g_bfr     0x000000002000d738       0x34 build/FreeRTOS/production/_ext/540595297/iperf.o
                0x000000002000d738                g_bfr

.bss.sercom0SPIObj%27
                0x000000002000d76c       0x2c
 .bss.sercom0SPIObj
                0x000000002000d76c       0x2c build/FreeRTOS/production/_ext/1428073114/plib_sercom0_spi_master.o

.bss.gDnsDcpt%28
                0x000000002000d798       0x28
 .bss.gDnsDcpt  0x000000002000d798       0x28 build/FreeRTOS/production/_ext/540595297/dns.o

.bss.drvSPI0ClientObjPool%29
                0x000000002000d7c0       0x28
 .bss.drvSPI0ClientObjPool
                0x000000002000d7c0       0x28 build/FreeRTOS/production/_ext/161576091/initialization.o

.bss.drvSPI0TransferObjPool%30
                0x000000002000d7e8       0x24
 .bss.drvSPI0TransferObjPool
                0x000000002000d7e8       0x24 build/FreeRTOS/production/_ext/161576091/initialization.o

.bss.descriptor_section%31
                0x000000002000d810       0x20
 .bss.descriptor_section
                0x000000002000d810       0x20 build/FreeRTOS/production/_ext/1495216012/plib_dmac.o

.bss.dmacChannelObj%32
                0x000000002000d830       0x20
 .bss.dmacChannelObj
                0x000000002000d830       0x20 build/FreeRTOS/production/_ext/1495216012/plib_dmac.o

.bss.write_back_section%33
                0x000000002000d850       0x20
 .bss.write_back_section
                0x000000002000d850       0x20 build/FreeRTOS/production/_ext/1495216012/plib_dmac.o

.bss.icmpTargetHost%34
                0x000000002000d870       0x1f
 .bss.icmpTargetHost
                0x000000002000d870       0x1f build/FreeRTOS/production/_ext/540595297/tcpip_commands.o

.bss%35         0x000000002000d890       0x1c
 .bss           0x000000002000d890       0x1c c:/program files/microchip/xc32/v4.45/bin/bin/../../lib/gcc/pic32c/8.3.1/thumb/v7e-m+fp/hard/crtbegin.o

.bss.tcpip_stack_ctrl_data%36
                0x000000002000d8ac       0x1c
 .bss.tcpip_stack_ctrl_data
                0x000000002000d8ac       0x1c build/FreeRTOS/production/_ext/540595297/tcpip_manager.o

.bss.cmdTcpipInitData%37
                0x000000002000d8c8       0x18
 .bss.cmdTcpipInitData
                0x000000002000d8c8       0x18 build/FreeRTOS/production/_ext/540595297/tcpip_commands.o

.bss.tcpip_init_data%38
                0x000000002000d8e0       0x18
 .bss.tcpip_init_data
                0x000000002000d8e0       0x18 build/FreeRTOS/production/_ext/540595297/tcpip_manager.o

.bss.sysObj%39  0x000000002000d8f8       0x18
 .bss.sysObj    0x000000002000d8f8       0x18 build/FreeRTOS/production/_ext/161576091/initialization.o
                0x000000002000d8f8                sysObj

.bss.ipv4ArpQueue%40
                0x000000002000d910       0x14
 .bss.ipv4ArpQueue
                0x000000002000d910       0x14 build/FreeRTOS/production/_ext/540595297/ipv4.o

.bss.ipv4PacketFilters%41
                0x000000002000d924       0x14
 .bss.ipv4PacketFilters
                0x000000002000d924       0x14 build/FreeRTOS/production/_ext/540595297/ipv4.o

.bss.xDelayedTaskList1%42
                0x000000002000d938       0x14
 .bss.xDelayedTaskList1
                0x000000002000d938       0x14 build/FreeRTOS/production/_ext/404212886/FreeRTOS_tasks.o

.bss.xDelayedTaskList2%43
                0x000000002000d94c       0x14
 .bss.xDelayedTaskList2
                0x000000002000d94c       0x14 build/FreeRTOS/production/_ext/404212886/FreeRTOS_tasks.o

.bss.xPendingReadyList%44
                0x000000002000d960       0x14
 .bss.xPendingReadyList
                0x000000002000d960       0x14 build/FreeRTOS/production/_ext/404212886/FreeRTOS_tasks.o

.bss.xSuspendedTaskList%45
                0x000000002000d974       0x14
 .bss.xSuspendedTaskList
                0x000000002000d974       0x14 build/FreeRTOS/production/_ext/404212886/FreeRTOS_tasks.o

.bss.xTasksWaitingTermination%46
                0x000000002000d988       0x14
 .bss.xTasksWaitingTermination
                0x000000002000d988       0x14 build/FreeRTOS/production/_ext/404212886/FreeRTOS_tasks.o

.bss.icmpTargetAddrStr%47
                0x000000002000d99c       0x11
 .bss.icmpTargetAddrStr
                0x000000002000d99c       0x11 build/FreeRTOS/production/_ext/540595297/tcpip_commands.o

.bss.txDummyData%48
                0x000000002000d9b0       0x10
 .bss.txDummyData
                0x000000002000d9b0       0x10 build/FreeRTOS/production/_ext/1348046844/drv_spi.o

.bss.appData%49
                0x000000002000d9c0       0x10
 .bss.appData   0x000000002000d9c0       0x10 build/FreeRTOS/production/_ext/1360937237/app.o
                0x000000002000d9c0                appData

.bss.tcpip_heap_config%50
                0x000000002000d9d0        0xc
 .bss.tcpip_heap_config
                0x000000002000d9d0        0xc build/FreeRTOS/production/_ext/540595297/tcpip_manager.o

.bss.echoRequestBusyList%51
                0x000000002000d9dc        0xc
 .bss.echoRequestBusyList
                0x000000002000d9dc        0xc build/FreeRTOS/production/_ext/540595297/icmp.o

.bss.echoRequestFreeList%52
                0x000000002000d9e8        0xc
 .bss.echoRequestFreeList
                0x000000002000d9e8        0xc build/FreeRTOS/production/_ext/540595297/icmp.o

.bss.ipv4ArpPool%53
                0x000000002000d9f4        0xc
 .bss.ipv4ArpPool
                0x000000002000d9f4        0xc build/FreeRTOS/production/_ext/540595297/ipv4.o

.bss.consoleDeviceInstance%54
                0x000000002000da00        0xc
 .bss.consoleDeviceInstance
                0x000000002000da00        0xc build/FreeRTOS/production/_ext/548640822/sys_console.o

.bss.gConsoleUartData%55
                0x000000002000da0c        0xc
 .bss.gConsoleUartData
                0x000000002000da0c        0xc build/FreeRTOS/production/_ext/548640822/sys_console_uart.o

.bss%56         0x000000002000da18        0xc
 .bss           0x000000002000da18        0xc c:/program files/microchip/xc32/v4.45/bin/bin/../../lib/gcc/pic32c/8.3.1/../../../../pic32c/lib/thumb/v7e-m+fp/hard\libpic32c.a(sbrk.o)
                0x000000002000da1c                _maxbrk
                0x000000002000da20                _minbrk

.bss.drvLAN865XClntInst.15392%57
                0x000000002000da24        0x8
 .bss.drvLAN865XClntInst.15392
                0x000000002000da24        0x8 build/FreeRTOS/production/_ext/585597058/drv_lan865x_api.o

.bss.TC0_CallbackObject%58
                0x000000002000da2c        0x8
 .bss.TC0_CallbackObject
                0x000000002000da2c        0x8 build/FreeRTOS/production/_ext/579449528/plib_tc0.o

.bss.cmdIODevList%59
                0x000000002000da34        0x8
 .bss.cmdIODevList
                0x000000002000da34        0x8 build/FreeRTOS/production/_ext/1005353002/sys_command.o

.bss.cnt_.15605%60
                0x000000002000d024        0x4
 .bss.cnt_.15605
                0x000000002000d024        0x4 build/FreeRTOS/production/_ext/585597058/drv_lan865x_api.o

.bss.t0_.15606%61
                0x000000002000d80c        0x4
 .bss.t0_.15606
                0x000000002000d80c        0x4 build/FreeRTOS/production/_ext/585597058/drv_lan865x_api.o

.bss.commandInitCount%62
                0x000000002000da3c        0x4
 .bss.commandInitCount
                0x000000002000da3c        0x4 build/FreeRTOS/production/_ext/540595297/tcpip_commands.o

.bss.dnsLookUpStartTick%63
                0x000000002000da40        0x4
 .bss.dnsLookUpStartTick
                0x000000002000da40        0x4 build/FreeRTOS/production/_ext/540595297/tcpip_commands.o

.bss.dnsLookupCmdIoParam%64
                0x000000002000da44        0x4
 .bss.dnsLookupCmdIoParam
                0x000000002000da44        0x4 build/FreeRTOS/production/_ext/540595297/tcpip_commands.o

.bss.icmpAckRecv%65
                0x000000002000da48        0x4
 .bss.icmpAckRecv
                0x000000002000da48        0x4 build/FreeRTOS/production/_ext/540595297/tcpip_commands.o

.bss.icmpCmdIoParam%66
                0x000000002000da4c        0x4
 .bss.icmpCmdIoParam
                0x000000002000da4c        0x4 build/FreeRTOS/production/_ext/540595297/tcpip_commands.o

.bss.icmpNetH%67
                0x000000002000da50        0x4
 .bss.icmpNetH  0x000000002000da50        0x4 build/FreeRTOS/production/_ext/540595297/tcpip_commands.o

.bss.icmpReqCount%68
                0x000000002000da54        0x4
 .bss.icmpReqCount
                0x000000002000da54        0x4 build/FreeRTOS/production/_ext/540595297/tcpip_commands.o

.bss.icmpReqDelay%69
                0x000000002000da58        0x4
 .bss.icmpReqDelay
                0x000000002000da58        0x4 build/FreeRTOS/production/_ext/540595297/tcpip_commands.o

.bss.icmpReqHandle%70
                0x000000002000da5c        0x4
 .bss.icmpReqHandle
                0x000000002000da5c        0x4 build/FreeRTOS/production/_ext/540595297/tcpip_commands.o

.bss.icmpReqNo%71
                0x000000002000da60        0x4
 .bss.icmpReqNo
                0x000000002000da60        0x4 build/FreeRTOS/production/_ext/540595297/tcpip_commands.o

.bss.icmpStartTick%72
                0x000000002000da64        0x4
 .bss.icmpStartTick
                0x000000002000da64        0x4 build/FreeRTOS/production/_ext/540595297/tcpip_commands.o
                0x000000002000da64                icmpStartTick

.bss.icmpTargetAddr%73
                0x000000002000da68        0x4
 .bss.icmpTargetAddr
                0x000000002000da68        0x4 build/FreeRTOS/production/_ext/540595297/tcpip_commands.o

.bss.initialNetIfs%74
                0x000000002000da6c        0x4
 .bss.initialNetIfs
                0x000000002000da6c        0x4 build/FreeRTOS/production/_ext/540595297/tcpip_commands.o

.bss.pCmdTcpipInitData%75
                0x000000002000da70        0x4
 .bss.pCmdTcpipInitData
                0x000000002000da70        0x4 build/FreeRTOS/production/_ext/540595297/tcpip_commands.o

.bss.pTcpipCmdDevice%76
                0x000000002000da74        0x4
 .bss.pTcpipCmdDevice
                0x000000002000da74        0x4 build/FreeRTOS/production/_ext/540595297/tcpip_commands.o

.bss.tcpipCmdSignalHandle%77
                0x000000002000da78        0x4
 .bss.tcpipCmdSignalHandle
                0x000000002000da78        0x4 build/FreeRTOS/production/_ext/540595297/tcpip_commands.o

.bss.pktMemH%78
                0x000000002000da7c        0x4
 .bss.pktMemH   0x000000002000da7c        0x4 build/FreeRTOS/production/_ext/540595297/tcpip_packet.o

.bss.iperfInitCount%79
                0x000000002000da80        0x4
 .bss.iperfInitCount
                0x000000002000da80        0x4 build/FreeRTOS/production/_ext/540595297/iperf.o

.bss.nIperfSessions%80
                0x000000002000da84        0x4
 .bss.nIperfSessions
                0x000000002000da84        0x4 build/FreeRTOS/production/_ext/540595297/iperf.o

.bss.TCBStubs%81
                0x000000002000da88        0x4
 .bss.TCBStubs  0x000000002000da88        0x4 build/FreeRTOS/production/_ext/540595297/tcp.o

.bss.TcpSockets%82
                0x000000002000da8c        0x4
 .bss.TcpSockets
                0x000000002000da8c        0x4 build/FreeRTOS/production/_ext/540595297/tcp.o

.bss.sysTickFreq%83
                0x000000002000da90        0x4
 .bss.sysTickFreq
                0x000000002000da90        0x4 build/FreeRTOS/production/_ext/540595297/tcp.o

.bss.tcpHeapH%84
                0x000000002000da94        0x4
 .bss.tcpHeapH  0x000000002000da94        0x4 build/FreeRTOS/production/_ext/540595297/tcp.o

.bss.tcpInitCount%85
                0x000000002000da98        0x4
 .bss.tcpInitCount
                0x000000002000da98        0x4 build/FreeRTOS/production/_ext/540595297/tcp.o

.bss.tcpLockCount%86
                0x000000002000da9c        0x4
 .bss.tcpLockCount
                0x000000002000da9c        0x4 build/FreeRTOS/production/_ext/540595297/tcp.o

.bss.tcpSemaphore%87
                0x000000002000daa0        0x4
 .bss.tcpSemaphore
                0x000000002000daa0        0x4 build/FreeRTOS/production/_ext/540595297/tcp.o

.bss.tcpSignalHandle%88
                0x000000002000daa4        0x4
 .bss.tcpSignalHandle
                0x000000002000daa4        0x4 build/FreeRTOS/production/_ext/540595297/tcp.o

.bss.UDPSocketDcpt%89
                0x000000002000daa8        0x4
 .bss.UDPSocketDcpt
                0x000000002000daa8        0x4 build/FreeRTOS/production/_ext/540595297/udp.o

.bss.nUdpSockets%90
                0x000000002000daac        0x4
 .bss.nUdpSockets
                0x000000002000daac        0x4 build/FreeRTOS/production/_ext/540595297/udp.o

.bss.signalHandle%91
                0x000000002000dab0        0x4
 .bss.signalHandle
                0x000000002000dab0        0x4 build/FreeRTOS/production/_ext/540595297/udp.o

.bss.udpInitCount%92
                0x000000002000dab4        0x4
 .bss.udpInitCount
                0x000000002000dab4        0x4 build/FreeRTOS/production/_ext/540595297/udp.o

.bss.udpMemH%93
                0x000000002000dab8        0x4
 .bss.udpMemH   0x000000002000dab8        0x4 build/FreeRTOS/production/_ext/540595297/udp.o

.bss.userSem%94
                0x000000002000dabc        0x4
 .bss.userSem   0x000000002000dabc        0x4 build/FreeRTOS/production/_ext/540595297/udp.o

.bss._tcpip_MsecCount%95
                0x000000002000dac0        0x4
 .bss._tcpip_MsecCount
                0x000000002000dac0        0x4 build/FreeRTOS/production/_ext/540595297/tcpip_manager.o

.bss._tcpip_SecCount%96
                0x000000002000dac4        0x4
 .bss._tcpip_SecCount
                0x000000002000dac4        0x4 build/FreeRTOS/production/_ext/540595297/tcpip_manager.o

.bss.newTcpipErrorEventCnt%97
                0x000000002000dac8        0x4
 .bss.newTcpipErrorEventCnt
                0x000000002000dac8        0x4 build/FreeRTOS/production/_ext/540595297/tcpip_manager.o

.bss.newTcpipStackEventCnt%98
                0x000000002000dacc        0x4
 .bss.newTcpipStackEventCnt
                0x000000002000dacc        0x4 build/FreeRTOS/production/_ext/540595297/tcpip_manager.o

.bss.newTcpipTickAvlbl%99
                0x000000002000dad0        0x4
 .bss.newTcpipTickAvlbl
                0x000000002000dad0        0x4 build/FreeRTOS/production/_ext/540595297/tcpip_manager.o

.bss.stackAsyncSignalCount%100
                0x000000002000dad4        0x4
 .bss.stackAsyncSignalCount
                0x000000002000dad4        0x4 build/FreeRTOS/production/_ext/540595297/tcpip_manager.o

.bss.stackLinkTmo%101
                0x000000002000dad8        0x4
 .bss.stackLinkTmo
                0x000000002000dad8        0x4 build/FreeRTOS/production/_ext/540595297/tcpip_manager.o

.bss.stackTaskRate%102
                0x000000002000dadc        0x4
 .bss.stackTaskRate
                0x000000002000dadc        0x4 build/FreeRTOS/production/_ext/540595297/tcpip_manager.o

.bss.tcpipDefIf%103
                0x000000002000dae0        0x4
 .bss.tcpipDefIf
                0x000000002000dae0        0x4 build/FreeRTOS/production/_ext/540595297/tcpip_manager.o

.bss.tcpipNetIf%104
                0x000000002000dae4        0x4
 .bss.tcpipNetIf
                0x000000002000dae4        0x4 build/FreeRTOS/production/_ext/540595297/tcpip_manager.o

.bss.tcpip_stack_init_cb%105
                0x000000002000dae8        0x4
 .bss.tcpip_stack_init_cb
                0x000000002000dae8        0x4 build/FreeRTOS/production/_ext/540595297/tcpip_manager.o

.bss.totTcpipEventsCnt%106
                0x000000002000daec        0x4
 .bss.totTcpipEventsCnt
                0x000000002000daec        0x4 build/FreeRTOS/production/_ext/540595297/tcpip_manager.o

.bss.icmpEchoTmo%107
                0x000000002000daf0        0x4
 .bss.icmpEchoTmo
                0x000000002000daf0        0x4 build/FreeRTOS/production/_ext/540595297/icmp.o

.bss.icmpInitCount%108
                0x000000002000daf4        0x4
 .bss.icmpInitCount
                0x000000002000daf4        0x4 build/FreeRTOS/production/_ext/540595297/icmp.o

.bss.signalHandle%109
                0x000000002000daf8        0x4
 .bss.signalHandle
                0x000000002000daf8        0x4 build/FreeRTOS/production/_ext/540595297/icmp.o

.bss.ipv4ActFilterCount%110
                0x000000002000dafc        0x4
 .bss.ipv4ActFilterCount
                0x000000002000dafc        0x4 build/FreeRTOS/production/_ext/540595297/ipv4.o

.bss.ipv4ArpEntries%111
                0x000000002000db00        0x4
 .bss.ipv4ArpEntries
                0x000000002000db00        0x4 build/FreeRTOS/production/_ext/540595297/ipv4.o

.bss.ipv4ArpHandle%112
                0x000000002000db04        0x4
 .bss.ipv4ArpHandle
                0x000000002000db04        0x4 build/FreeRTOS/production/_ext/540595297/ipv4.o

.bss.ipv4MemH%113
                0x000000002000db08        0x4
 .bss.ipv4MemH  0x000000002000db08        0x4 build/FreeRTOS/production/_ext/540595297/ipv4.o

.bss.signalHandle%114
                0x000000002000db0c        0x4
 .bss.signalHandle
                0x000000002000db0c        0x4 build/FreeRTOS/production/_ext/540595297/ipv4.o

.bss.dnsInitCount%115
                0x000000002000db10        0x4
 .bss.dnsInitCount
                0x000000002000db10        0x4 build/FreeRTOS/production/_ext/540595297/dns.o

.bss.pgDnsDcpt%116
                0x000000002000db14        0x4
 .bss.pgDnsDcpt
                0x000000002000db14        0x4 build/FreeRTOS/production/_ext/540595297/dns.o

.bss.cmdInitData%117
                0x000000002000db18        0x4
 .bss.cmdInitData
                0x000000002000db18        0x4 build/FreeRTOS/production/_ext/1005353002/sys_command.o

.bss.printBuffPtr%118
                0x000000002000db1c        0x4
 .bss.printBuffPtr
                0x000000002000db1c        0x4 build/FreeRTOS/production/_ext/1005353002/sys_command.o

.bss.consolePrintBufferMutex%119
                0x000000002000db20        0x4
 .bss.consolePrintBufferMutex
                0x000000002000db20        0x4 build/FreeRTOS/production/_ext/548640822/sys_console.o

.bss.sysDebugInstance%120
                0x000000002000db24        0x4
 .bss.sysDebugInstance
                0x000000002000db24        0x4 build/FreeRTOS/production/_ext/147610190/sys_debug.o

.bss.gTickConv%121
                0x000000002000db28        0x4
 .bss.gTickConv
                0x000000002000db28        0x4 build/FreeRTOS/production/_ext/2072568807/sys_time_h2_adapter.o

.bss.systemAdaptObj%122
                0x000000002000db2c        0x4
 .bss.systemAdaptObj
                0x000000002000db2c        0x4 build/FreeRTOS/production/_ext/2072568807/sys_time_h2_adapter.o

.bss.pRandCtx%123
                0x000000002000db30        0x4
 .bss.pRandCtx  0x000000002000db30        0x4 build/FreeRTOS/production/_ext/2072568807/sys_random_h2_adapter.o

.bss.randLockCount%124
                0x000000002000db34        0x4
 .bss.randLockCount
                0x000000002000db34        0x4 build/FreeRTOS/production/_ext/2072568807/sys_random_h2_adapter.o

.bss.randSemaphore%125
                0x000000002000db38        0x4
 .bss.randSemaphore
                0x000000002000db38        0x4 build/FreeRTOS/production/_ext/2072568807/sys_random_h2_adapter.o

.bss.xAPP_Tasks%126
                0x000000002000db3c        0x4
 .bss.xAPP_Tasks
                0x000000002000db3c        0x4 build/FreeRTOS/production/_ext/161576091/tasks.o
                0x000000002000db3c                xAPP_Tasks

.bss.xSYS_CMD_Tasks%127
                0x000000002000db40        0x4
 .bss.xSYS_CMD_Tasks
                0x000000002000db40        0x4 build/FreeRTOS/production/_ext/161576091/tasks.o
                0x000000002000db40                xSYS_CMD_Tasks

.bss.sysCmdInit%128
                0x000000002000db44        0x4
 .bss.sysCmdInit
                0x000000002000db44        0x4 build/FreeRTOS/production/_ext/161576091/initialization.o
                0x000000002000db44                sysCmdInit

.bss.pucAlignedHeap.6167%129
                0x000000002000db48        0x4
 .bss.pucAlignedHeap.6167
                0x000000002000db48        0x4 build/FreeRTOS/production/_ext/1665200909/heap_1.o

.bss.xNextFreeByte%130
                0x000000002000db4c        0x4
 .bss.xNextFreeByte
                0x000000002000db4c        0x4 build/FreeRTOS/production/_ext/1665200909/heap_1.o

.bss.pxCurrentTCB%131
                0x000000002000db50        0x4
 .bss.pxCurrentTCB
                0x000000002000db50        0x4 build/FreeRTOS/production/_ext/404212886/FreeRTOS_tasks.o
                0x000000002000db50                pxCurrentTCB

.bss.pxDelayedTaskList%132
                0x000000002000db54        0x4
 .bss.pxDelayedTaskList
                0x000000002000db54        0x4 build/FreeRTOS/production/_ext/404212886/FreeRTOS_tasks.o

.bss.pxOverflowDelayedTaskList%133
                0x000000002000db58        0x4
 .bss.pxOverflowDelayedTaskList
                0x000000002000db58        0x4 build/FreeRTOS/production/_ext/404212886/FreeRTOS_tasks.o

.bss.uxCurrentNumberOfTasks%134
                0x000000002000db5c        0x4
 .bss.uxCurrentNumberOfTasks
                0x000000002000db5c        0x4 build/FreeRTOS/production/_ext/404212886/FreeRTOS_tasks.o

.bss.uxDeletedTasksWaitingCleanUp%135
                0x000000002000db60        0x4
 .bss.uxDeletedTasksWaitingCleanUp
                0x000000002000db60        0x4 build/FreeRTOS/production/_ext/404212886/FreeRTOS_tasks.o

.bss.uxSchedulerSuspended%136
                0x000000002000db64        0x4
 .bss.uxSchedulerSuspended
                0x000000002000db64        0x4 build/FreeRTOS/production/_ext/404212886/FreeRTOS_tasks.o

.bss.uxTaskNumber%137
                0x000000002000db68        0x4
 .bss.uxTaskNumber
                0x000000002000db68        0x4 build/FreeRTOS/production/_ext/404212886/FreeRTOS_tasks.o

.bss.uxTopReadyPriority%138
                0x000000002000db6c        0x4
 .bss.uxTopReadyPriority
                0x000000002000db6c        0x4 build/FreeRTOS/production/_ext/404212886/FreeRTOS_tasks.o

.bss.xIdleTaskHandle%139
                0x000000002000db70        0x4
 .bss.xIdleTaskHandle
                0x000000002000db70        0x4 build/FreeRTOS/production/_ext/404212886/FreeRTOS_tasks.o

.bss.xNextTaskUnblockTime%140
                0x000000002000db74        0x4
 .bss.xNextTaskUnblockTime
                0x000000002000db74        0x4 build/FreeRTOS/production/_ext/404212886/FreeRTOS_tasks.o

.bss.xNumOfOverflows%141
                0x000000002000db78        0x4
 .bss.xNumOfOverflows
                0x000000002000db78        0x4 build/FreeRTOS/production/_ext/404212886/FreeRTOS_tasks.o

.bss.xPendedTicks%142
                0x000000002000db7c        0x4
 .bss.xPendedTicks
                0x000000002000db7c        0x4 build/FreeRTOS/production/_ext/404212886/FreeRTOS_tasks.o

.bss.xSchedulerRunning%143
                0x000000002000db80        0x4
 .bss.xSchedulerRunning
                0x000000002000db80        0x4 build/FreeRTOS/production/_ext/404212886/FreeRTOS_tasks.o

.bss.xTickCount%144
                0x000000002000db84        0x4
 .bss.xTickCount
                0x000000002000db84        0x4 build/FreeRTOS/production/_ext/404212886/FreeRTOS_tasks.o

.bss.xYieldPending%145
                0x000000002000db88        0x4
 .bss.xYieldPending
                0x000000002000db88        0x4 build/FreeRTOS/production/_ext/404212886/FreeRTOS_tasks.o

.bss%146        0x000000002000db8c        0x4
 .bss           0x000000002000db8c        0x4 c:/program files/microchip/xc32/v4.45/bin/bin/../../lib/gcc/pic32c/8.3.1/../../../../pic32c/lib/thumb/v7e-m+fp/hard\libpic32c.a(data_init.o)

.bss%147        0x000000002000db90        0x4
 .bss           0x000000002000db90        0x4 c:/program files/microchip/xc32/v4.45/bin/bin/../../lib/gcc/pic32c/8.3.1/../../../../pic32c/lib/thumb/v7e-m+fp/hard\libc-size-musl.a(strtok.o)

.bss%148        0x000000002000db94        0x4
 .bss           0x000000002000db94        0x4 c:/program files/microchip/xc32/v4.45/bin/bin/../../lib/gcc/pic32c/8.3.1/../../../../pic32c/lib/thumb/v7e-m+fp/hard\liblmalloc-musl.a(lite_free.o)
                0x000000002000db94                __freelist

.bss%149        0x000000002000db98        0x4
 .bss           0x000000002000db98        0x4 c:/program files/microchip/xc32/v4.45/bin/bin/../../lib/gcc/pic32c/8.3.1/../../../../pic32c/lib/thumb/v7e-m+fp/hard\libc-musl.a(__errno_location.o)
                0x000000002000db98                __errno_val

.bss%150        0x000000002000db9c        0x4
 .bss           0x000000002000db9c        0x4 c:/program files/microchip/xc32/v4.45/bin/bin/../../lib/gcc/pic32c/8.3.1/../../../../pic32c/lib/thumb/v7e-m+fp/hard\libc-musl.a(rand.o)

.bss%151        0x000000002000dba0        0x4
 .bss           0x000000002000dba0        0x4 c:/program files/microchip/xc32/v4.45/bin/bin/../../lib/gcc/pic32c/8.3.1/../../../../pic32c/lib/thumb/v7e-m+fp/hard\libc-musl.a(__environ.o)
                0x000000002000dba0                __environ
                0x000000002000dba0                environ
                0x000000002000dba0                ___environ
                0x000000002000dba0                _environ

.bss.icmpIdentifier%152
                0x000000002000d6b6        0x2
 .bss.icmpIdentifier
                0x000000002000d6b6        0x2 build/FreeRTOS/production/_ext/540595297/tcpip_commands.o

.bss.icmpSequenceNo%153
                0x000000002000d9ae        0x2
 .bss.icmpSequenceNo
                0x000000002000d9ae        0x2 build/FreeRTOS/production/_ext/540595297/tcpip_commands.o

.bss.tcpDefRxSize%154
                0x000000002000dba4        0x2
 .bss.tcpDefRxSize
                0x000000002000dba4        0x2 build/FreeRTOS/production/_ext/540595297/tcp.o

.bss.tcpDefTxSize%155
                0x000000002000dba6        0x2
 .bss.tcpDefTxSize
                0x000000002000dba6        0x2 build/FreeRTOS/production/_ext/540595297/tcp.o

.bss.udpDefTxSize%156
                0x000000002000dba8        0x2
 .bss.udpDefTxSize
                0x000000002000dba8        0x2 build/FreeRTOS/production/_ext/540595297/udp.o

.bss.ipv4Identifier%157
                0x000000002000dbaa        0x2
 .bss.ipv4Identifier
                0x000000002000dbaa        0x2 build/FreeRTOS/production/_ext/540595297/ipv4.o

.bss.ipv4InitCount%158
                0x000000002000dbac        0x2
 .bss.ipv4InitCount
                0x000000002000dbac        0x2 build/FreeRTOS/production/_ext/540595297/ipv4.o

.bss.m_tc6Valid.14130%159
                0x000000002000dbb0        0x1
 .bss.m_tc6Valid.14130
                0x000000002000dbb0        0x1 build/FreeRTOS/production/_ext/1785105562/tc6.o

.bss.tcpipCmdStat%160
                0x000000002000d88f        0x1
 .bss.tcpipCmdStat
                0x000000002000d88f        0x1 build/FreeRTOS/production/_ext/540595297/tcpip_commands.o

.bss.iperf_async_request.14072%161
                0x000000002000d6b5        0x1
 .bss.iperf_async_request.14072
                0x000000002000d6b5        0x1 build/FreeRTOS/production/_ext/540595297/iperf.o

.bss.tcpip_stack_status%162
                0x000000002000d9ad        0x1
 .bss.tcpip_stack_status
                0x000000002000d9ad        0x1 build/FreeRTOS/production/_ext/540595297/tcpip_manager.o

.bss.ipv4FilterType%163
                0x000000002000dbae        0x1
 .bss.ipv4FilterType
                0x000000002000dbae        0x1 build/FreeRTOS/production/_ext/540595297/ipv4.o

.bss.isLastByteTransferInProgress.8205%164
                0x000000002000dbaf        0x1
 .bss.isLastByteTransferInProgress.8205
                0x000000002000dbaf        0x1 build/FreeRTOS/production/_ext/1428073114/plib_sercom0_spi_master.o

.bss.error_reported.9571%165
                0x000000002000dbb1        0x1
 .bss.error_reported.9571
                0x000000002000dbb1        0x1 build/FreeRTOS/production/_ext/1005353002/sys_command.o

.bss.isConsoleMutexCreated%166
                0x000000002000dbb2        0x1
 .bss.isConsoleMutexCreated
                0x000000002000dbb2        0x1 build/FreeRTOS/production/_ext/548640822/sys_console.o

.bss.gblErrLvl%167
                0x000000002000dbb3        0x1
 .bss.gblErrLvl
                0x000000002000dbb3        0x1 build/FreeRTOS/production/_ext/147610190/sys_debug.o
                0x000000002000dbb3                gblErrLvl

.data.tcpipHeapConfig%168
                0x000000002000dbb4       0x10
 .data.tcpipHeapConfig
                0x000000002000dbb4       0x10 build/FreeRTOS/production/_ext/161576091/initialization.o
                0x000000002000dbb4                tcpipHeapConfig

.data.arpBcastAdd%169
                0x000000002000dbc4        0x6
 .data.arpBcastAdd
                0x000000002000dbc4        0x6 build/FreeRTOS/production/_ext/540595297/arp.o

.data.icmpPingSize%170
                0x000000002000dbcc        0x4
 .data.icmpPingSize
                0x000000002000dbcc        0x4 build/FreeRTOS/production/_ext/540595297/tcpip_commands.o

.data.tcpip_stack_tickH%171
                0x000000002000dbd0        0x4
 .data.tcpip_stack_tickH
                0x000000002000dbd0        0x4 build/FreeRTOS/production/_ext/540595297/tcpip_manager.o

.data.uxCriticalNesting%172
                0x000000002000dbd4        0x4
 .data.uxCriticalNesting
                0x000000002000dbd4        0x4 build/FreeRTOS/production/_ext/246609638/port.o

.data.uxTopUsedPriority%173
                0x000000002000dbd8        0x4
 .data.uxTopUsedPriority
                0x000000002000dbd8        0x4 build/FreeRTOS/production/_ext/404212886/FreeRTOS_tasks.o
                0x000000002000dbd8                uxTopUsedPriority

.data.dwLastIP.13632%174
                0x000000002000dbdc        0x4
 .data.dwLastIP.13632
                0x000000002000dbdc        0x4 build/FreeRTOS/production/_ext/1360937237/app.o

.data%175       0x000000002000dbe0        0x4
 .data          0x000000002000dbe0        0x4 c:/program files/microchip/xc32/v4.45/bin/bin/../../lib/gcc/pic32c/8.3.1/../../../../pic32c/lib/thumb/v7e-m+fp/hard\liblmalloc-musl.a(lite_malloc.o)

.data.gSysTimeTokenCount%176
                0x000000002000dbca        0x2
 .data.gSysTimeTokenCount
                0x000000002000dbca        0x2 build/FreeRTOS/production/_ext/832704728/sys_time.o

.data.dnsType%177
                0x000000002000dbe4        0x1
 .data.dnsType  0x000000002000dbe4        0x1 build/FreeRTOS/production/_ext/540595297/tcpip_commands.o

.eh_frame%z1    0x0000000000000000        0x0
 .eh_frame      0x0000000000000000        0x0 c:/program files/microchip/xc32/v4.45/bin/bin/../../lib/gcc/pic32c/8.3.1/thumb/v7e-m+fp/hard/crtbegin.o

.config_00804000.__config_00804000%178
                0x0000000000804000        0x4
 .config_00804000.__config_00804000
                0x0000000000804000        0x4 build/FreeRTOS/production/_ext/161576091/initialization.o
                0x0000000000804000                __config_00804000

.config_00804004.__config_00804004%179
                0x0000000000804004        0x4
 .config_00804004.__config_00804004
                0x0000000000804004        0x4 build/FreeRTOS/production/_ext/161576091/initialization.o
                0x0000000000804004                __config_00804004

.config_00804008.__config_00804008%180
                0x0000000000804008        0x4
 .config_00804008.__config_00804008
                0x0000000000804008        0x4 build/FreeRTOS/production/_ext/161576091/initialization.o
                0x0000000000804008                __config_00804008

.text.TCPIP_TCP_Task%181
                0x000000000000028c      0xe9c
 .text.TCPIP_TCP_Task
                0x000000000000028c      0xe9c build/FreeRTOS/production/_ext/540595297/tcp.o
                0x000000000000028c                TCPIP_TCP_Task

.text.TCPIP_IPERF_Task%182
                0x0000000000001128      0xd98
 .text.TCPIP_IPERF_Task
                0x0000000000001128      0xd98 build/FreeRTOS/production/_ext/540595297/iperf.o
                0x0000000000001128                TCPIP_IPERF_Task

.text.DRV_LAN865X_Tasks%183
                0x0000000000001ec0      0x968
 .text.DRV_LAN865X_Tasks
                0x0000000000001ec0      0x968 build/FreeRTOS/production/_ext/585597058/drv_lan865x_api.o
                0x0000000000001ec0                DRV_LAN865X_Tasks

.text.Transform%184
                0x0000000000002828      0x6d0
 .text.Transform
                0x0000000000002828      0x6d0 build/FreeRTOS/production/_ext/1664057780/md5.o

.text.TCPIP_STACK_Task%185
                0x0000000000002ef8      0x6a0
 .text.TCPIP_STACK_Task
                0x0000000000002ef8      0x6a0 build/FreeRTOS/production/_ext/540595297/tcpip_manager.o
                0x0000000000002ef8                TCPIP_STACK_Task

.text._TcpSend%186
                0x0000000000003598      0x608
 .text._TcpSend
                0x0000000000003598      0x608 build/FreeRTOS/production/_ext/540595297/tcp.o

.text.CommandIperfStart%187
                0x0000000000003ba0      0x5fc
 .text.CommandIperfStart
                0x0000000000003ba0      0x5fc build/FreeRTOS/production/_ext/540595297/iperf.o

.dinit%188      0x000000000000419c      0x590
 .dinit         0x000000000000419c      0x590 data_init

.text.processDataRx%189
                0x000000000000472c      0x50c
 .text.processDataRx
                0x000000000000472c      0x50c build/FreeRTOS/production/_ext/1785105562/tc6.o

.text._Command_DNS_Service%190
                0x0000000000004c38      0x50c
 .text._Command_DNS_Service
                0x0000000000004c38      0x50c build/FreeRTOS/production/_ext/540595297/tcpip_commands.o

.rodata._Command_DNS_Service.str1.4%191
                0x0000000000005144      0x4fc
 .rodata._Command_DNS_Service.str1.4
                0x0000000000005144      0x4fc build/FreeRTOS/production/_ext/540595297/tcpip_commands.o

.text.__fmt_fp%192
                0x0000000000005640      0x4c0
 .text.__fmt_fp
                0x0000000000005640      0x4c0 c:/program files/microchip/xc32/v4.45/bin/bin/../../lib/gcc/pic32c/8.3.1/../../../../pic32c/lib/thumb/v7e-m+fp/hard\libc-musl.a(__fmt_fp.o)
                0x0000000000005640                __fmt_f_needed
                0x0000000000005640                __fmt_fp

.text.__fmt_a%193
                0x0000000000005b00      0x4b8
 .text.__fmt_a  0x0000000000005b00      0x4b8 c:/program files/microchip/xc32/v4.45/bin/bin/../../lib/gcc/pic32c/8.3.1/../../../../pic32c/lib/thumb/v7e-m+fp/hard\libc-musl.a(__fmt_a.o)
                0x0000000000005b00                __fmt_a_needed
                0x0000000000005b00                __fmt_a

.text.serviceData%194
                0x0000000000005fb8      0x49c
 .text.serviceData
                0x0000000000005fb8      0x49c build/FreeRTOS/production/_ext/1785105562/tc6.o

.text.SYS_CMD_Tasks%195
                0x0000000000006454      0x448
 .text.SYS_CMD_Tasks
                0x0000000000006454      0x448 build/FreeRTOS/production/_ext/1005353002/sys_command.o
                0x0000000000006454                SYS_CMD_Tasks

.text._DNS_ProcessPacket%196
                0x000000000000689c      0x41c
 .text._DNS_ProcessPacket
                0x000000000000689c      0x41c build/FreeRTOS/production/_ext/540595297/dns.o

.text._TCPIP_DoInitialize%197
                0x0000000000006cb8      0x414
 .text._TCPIP_DoInitialize
                0x0000000000006cb8      0x414 build/FreeRTOS/production/_ext/540595297/tcpip_manager.o

.text.__intscan%198
                0x00000000000070cc      0x3f4
 .text.__intscan
                0x00000000000070cc      0x3f4 c:/program files/microchip/xc32/v4.45/bin/bin/../../lib/gcc/pic32c/8.3.1/../../../../pic32c/lib/thumb/v7e-m+fp/hard\libc-musl.a(intscan.o)
                0x00000000000070cc                __intscan

.text.TCPIP_COMMAND_Task%199
                0x00000000000074c0      0x3d0
 .text.TCPIP_COMMAND_Task
                0x00000000000074c0      0x3d0 build/FreeRTOS/production/_ext/540595297/tcpip_commands.o
                0x00000000000074c0                TCPIP_COMMAND_Task

.text.GenericTxStart%200
                0x0000000000007890      0x3cc
 .text.GenericTxStart
                0x0000000000007890      0x3cc build/FreeRTOS/production/_ext/540595297/iperf.o

.text.TCPIP_UDP_OptionsSet%201
                0x0000000000007c5c      0x39c
 .text.TCPIP_UDP_OptionsSet
                0x0000000000007c5c      0x39c build/FreeRTOS/production/_ext/540595297/udp.o
                0x0000000000007c5c                TCPIP_UDP_OptionsSet

.rodata.TCPIP_IPERF_Task.str1.4%202
                0x0000000000007ff8      0x354
 .rodata.TCPIP_IPERF_Task.str1.4
                0x0000000000007ff8      0x354 build/FreeRTOS/production/_ext/540595297/iperf.o

.text.TCPIP_Helper_StringToIPv6Address%203
                0x000000000000834c      0x340
 .text.TCPIP_Helper_StringToIPv6Address
                0x000000000000834c      0x340 build/FreeRTOS/production/_ext/540595297/tcpip_helpers.o
                0x000000000000834c                TCPIP_Helper_StringToIPv6Address

.text.TC6_Service%204
                0x000000000000868c      0x334
 .text.TC6_Service
                0x000000000000868c      0x334 build/FreeRTOS/production/_ext/1785105562/tc6.o
                0x000000000000868c                TC6_Service

.text.Transform_Sha256%205
                0x00000000000089c0      0x314
 .text.Transform_Sha256
                0x00000000000089c0      0x314 build/FreeRTOS/production/_ext/1664057780/sha256.o

.text.__printf_core%206
                0x0000000000008cd4      0x308
 .text.__printf_core
                0x0000000000008cd4      0x308 c:/program files/microchip/xc32/v4.45/bin/bin/../../lib/gcc/pic32c/8.3.1/../../../../pic32c/lib/thumb/v7e-m+fp/hard\libc-musl.a(__printf_core.o)
                0x0000000000008cd4                __printf_core

.text.TCPIP_TCP_FifoSizeAdjust%207
                0x0000000000008fdc      0x2f8
 .text.TCPIP_TCP_FifoSizeAdjust
                0x0000000000008fdc      0x2f8 build/FreeRTOS/production/_ext/540595297/tcp.o
                0x0000000000008fdc                TCPIP_TCP_FifoSizeAdjust

.text.DRV_LAN865X_RegisterStatisticsGet%208
                0x00000000000092d4      0x2e0
 .text.DRV_LAN865X_RegisterStatisticsGet
                0x00000000000092d4      0x2e0 build/FreeRTOS/production/_ext/585597058/drv_lan865x_api.o
                0x00000000000092d4                DRV_LAN865X_RegisterStatisticsGet

.text.Hash_DRBG_Generate%209
                0x00000000000095b4      0x2cc
 .text.Hash_DRBG_Generate
                0x00000000000095b4      0x2cc build/FreeRTOS/production/_ext/1664057780/random.o

.text._TCP_Open%210
                0x0000000000009880      0x2c4
 .text._TCP_Open
                0x0000000000009880      0x2c4 build/FreeRTOS/production/_ext/540595297/tcp.o

.text.TCPIP_ARP_Task%211
                0x0000000000009b44      0x2c4
 .text.TCPIP_ARP_Task
                0x0000000000009b44      0x2c4 build/FreeRTOS/production/_ext/540595297/arp.o
                0x0000000000009b44                TCPIP_ARP_Task

.text%212       0x0000000000009e08      0x2bc
 .text          0x0000000000009e08      0x2bc c:/program files/microchip/xc32/v4.45/bin/bin/../../lib/gcc/pic32c/8.3.1/thumb/v7e-m+fp/hard\libgcc.a(_udivmoddi4.o)
                0x0000000000009e08                __udivmoddi4

.text._DNS_Send_Query%213
                0x000000000000a0c4      0x294
 .text._DNS_Send_Query
                0x000000000000a0c4      0x294 build/FreeRTOS/production/_ext/540595297/dns.o

.text.ReportBW_Jitter_Loss%214
                0x000000000000a358      0x25c
 .text.ReportBW_Jitter_Loss
                0x000000000000a358      0x25c build/FreeRTOS/production/_ext/540595297/iperf.o

.text._CommandPing%215
                0x000000000000a5b4      0x250
 .text._CommandPing
                0x000000000000a5b4      0x250 build/FreeRTOS/production/_ext/540595297/tcpip_commands.o

.rodata._TCPIP_DoInitialize.str1.4%216
                0x000000000000a804      0x250
 .rodata._TCPIP_DoInitialize.str1.4
                0x000000000000a804      0x250 build/FreeRTOS/production/_ext/540595297/tcpip_manager.o

.text.TCPIP_IPV4_Task%217
                0x000000000000aa54      0x250
 .text.TCPIP_IPV4_Task
                0x000000000000aa54      0x250 build/FreeRTOS/production/_ext/540595297/ipv4.o
                0x000000000000aa54                TCPIP_IPV4_Task

.rodata._OnStatus0.str1.4%218
                0x000000000000aca4      0x24c
 .rodata._OnStatus0.str1.4
                0x000000000000aca4      0x24c build/FreeRTOS/production/_ext/585597058/drv_lan865x_api.o

.text.TCPIP_UDP_Task%219
                0x000000000000aef0      0x244
 .text.TCPIP_UDP_Task
                0x000000000000aef0      0x244 build/FreeRTOS/production/_ext/540595297/udp.o
                0x000000000000aef0                TCPIP_UDP_Task

.text.TCPIP_UDP_Flush%220
                0x000000000000b134      0x242
 .text.TCPIP_UDP_Flush
                0x000000000000b134      0x242 build/FreeRTOS/production/_ext/540595297/udp.o
                0x000000000000b134                TCPIP_UDP_Flush

.text.__aeabi_dadd%221
                0x000000000000b376      0x23e
 .text.__aeabi_dadd
                0x000000000000b376      0x23e c:/program files/microchip/xc32/v4.45/bin/bin/../../lib/gcc/pic32c/8.3.1/../../../../pic32c/lib/thumb/v7e-m+fp/hard\libm-fast-emfloat.a(__aeabi_dadd.o)
                0x000000000000b376                __aeabi_dadd

.text.TCPIP_STACK_BringNetUp%222
                0x000000000000b5b4      0x23c
 .text.TCPIP_STACK_BringNetUp
                0x000000000000b5b4      0x23c build/FreeRTOS/production/_ext/540595297/tcpip_manager.o

.text.TCPIP_IPV4_PktTx%223
                0x000000000000b7f0      0x22c
 .text.TCPIP_IPV4_PktTx
                0x000000000000b7f0      0x22c build/FreeRTOS/production/_ext/540595297/ipv4.o
                0x000000000000b7f0                TCPIP_IPV4_PktTx

.rodata._OnStatus1.str1.4%224
                0x000000000000ba1c      0x228
 .rodata._OnStatus1.str1.4
                0x000000000000ba1c      0x228 build/FreeRTOS/production/_ext/585597058/drv_lan865x_api.o

.text.DRV_SPI_WriteReadTransferAdd%225
                0x000000000000bc44      0x228
 .text.DRV_SPI_WriteReadTransferAdd
                0x000000000000bc44      0x228 build/FreeRTOS/production/_ext/1348046844/drv_spi.o
                0x000000000000bc44                DRV_SPI_WriteReadTransferAdd

.text.__aeabi_ddiv%226
                0x000000000000be6c      0x216
 .text.__aeabi_ddiv
                0x000000000000be6c      0x216 c:/program files/microchip/xc32/v4.45/bin/bin/../../lib/gcc/pic32c/8.3.1/../../../../pic32c/lib/thumb/v7e-m+fp/hard\libm-fast-emfloat.a(__aeabi_ddiv.o)
                0x000000000000be6c                __aeabi_ddiv

.text.TCPIP_ICMP_Task%227
                0x000000000000c084      0x214
 .text.TCPIP_ICMP_Task
                0x000000000000c084      0x214 build/FreeRTOS/production/_ext/540595297/icmp.o
                0x000000000000c084                TCPIP_ICMP_Task

.text.TCPIP_DNS_ClientInitialize%228
                0x000000000000c298      0x210
 .text.TCPIP_DNS_ClientInitialize
                0x000000000000c298      0x210 build/FreeRTOS/production/_ext/540595297/dns.o
                0x000000000000c298                TCPIP_DNS_ClientInitialize

.rodata.CommandIperfStart.str1.4%229
                0x000000000000c4a8      0x204
 .rodata.CommandIperfStart.str1.4
                0x000000000000c4a8      0x204 build/FreeRTOS/production/_ext/540595297/iperf.o

.rodata.TC6_MEMMAP.15660%230
                0x000000000000c6ac      0x200
 .rodata.TC6_MEMMAP.15660
                0x000000000000c6ac      0x200 build/FreeRTOS/production/_ext/585597058/drv_lan865x_api.o

.rodata.str1.4%231
                0x000000000000c8ac      0x200
 .rodata.str1.4
                0x000000000000c8ac      0x200 build/FreeRTOS/production/_ext/540595297/tcpip_commands.o

.text.xTaskCreate%232
                0x000000000000caac      0x1f4
 .text.xTaskCreate
                0x000000000000caac      0x1f4 build/FreeRTOS/production/_ext/404212886/FreeRTOS_tasks.o
                0x000000000000caac                xTaskCreate

.text._Command_NetInfo%233
                0x000000000000cca0      0x1e4
 .text._Command_NetInfo
                0x000000000000cca0      0x1e4 build/FreeRTOS/production/_ext/540595297/tcpip_commands.o

.text.TCPIP_ARP_Initialize%234
                0x000000000000ce84      0x1dc
 .text.TCPIP_ARP_Initialize
                0x000000000000ce84      0x1dc build/FreeRTOS/production/_ext/540595297/arp.o
                0x000000000000ce84                TCPIP_ARP_Initialize

.text._OnStatus1%235
                0x000000000000d060      0x1d0
 .text._OnStatus1
                0x000000000000d060      0x1d0 build/FreeRTOS/production/_ext/585597058/drv_lan865x_api.o

.text.GenericTxEnd%236
                0x000000000000d230      0x1c8
 .text.GenericTxEnd
                0x000000000000d230      0x1c8 build/FreeRTOS/production/_ext/540595297/iperf.o

.rodata._Command_MacInfo.str1.4%237
                0x000000000000d3f8      0x1b4
 .rodata._Command_MacInfo.str1.4
                0x000000000000d3f8      0x1b4 build/FreeRTOS/production/_ext/540595297/tcpip_commands.o

.text.CommandIperfSize%238
                0x000000000000d5ac      0x194
 .text.CommandIperfSize
                0x000000000000d5ac      0x194 build/FreeRTOS/production/_ext/540595297/iperf.o

.text.xTaskIncrementTick%239
                0x000000000000d740      0x194
 .text.xTaskIncrementTick
                0x000000000000d740      0x194 build/FreeRTOS/production/_ext/404212886/FreeRTOS_tasks.o
                0x000000000000d740                xTaskIncrementTick

.text.lDRV_SPI_StartDMATransfer%240
                0x000000000000d8d4      0x190
 .text.lDRV_SPI_StartDMATransfer
                0x000000000000d8d4      0x190 build/FreeRTOS/production/_ext/1348046844/drv_spi.o

.text.wc_Sha256Final%241
                0x000000000000da64      0x190
 .text.wc_Sha256Final
                0x000000000000da64      0x190 build/FreeRTOS/production/_ext/1664057780/sha256.o
                0x000000000000da64                wc_Sha256Final

.text._InitRng%242
                0x000000000000dbf4      0x184
 .text._InitRng
                0x000000000000dbf4      0x184 build/FreeRTOS/production/_ext/1664057780/random.o

.text._Command_MacInfo%243
                0x000000000000dd78      0x17c
 .text._Command_MacInfo
                0x000000000000dd78      0x17c build/FreeRTOS/production/_ext/540595297/tcpip_commands.o

.text.SERCOM0_SPI_WriteRead%244
                0x000000000000def4      0x17c
 .text.SERCOM0_SPI_WriteRead
                0x000000000000def4      0x17c build/FreeRTOS/production/_ext/1428073114/plib_sercom0_spi_master.o
                0x000000000000def4                SERCOM0_SPI_WriteRead

.text._OnStatus0%245
                0x000000000000e070      0x178
 .text._OnStatus0
                0x000000000000e070      0x178 build/FreeRTOS/production/_ext/585597058/drv_lan865x_api.o

.text._TcpCloseSocket%246
                0x000000000000e1e8      0x174
 .text._TcpCloseSocket
                0x000000000000e1e8      0x174 build/FreeRTOS/production/_ext/540595297/tcp.o

.text.TCPIP_TCP_ArrayPut%247
                0x000000000000e35c      0x170
 .text.TCPIP_TCP_ArrayPut
                0x000000000000e35c      0x170 build/FreeRTOS/production/_ext/540595297/tcp.o
                0x000000000000e35c                TCPIP_TCP_ArrayPut

.text.xTaskResumeAll%248
                0x000000000000e4cc      0x170
 .text.xTaskResumeAll
                0x000000000000e4cc      0x170 build/FreeRTOS/production/_ext/404212886/FreeRTOS_tasks.o
                0x000000000000e4cc                xTaskResumeAll

.text.lDRV_SPI_RX_DMA_CallbackHandler%249
                0x000000000000e63c      0x160
 .text.lDRV_SPI_RX_DMA_CallbackHandler
                0x000000000000e63c      0x160 build/FreeRTOS/production/_ext/1348046844/drv_spi.o

.text._UDPOpen%250
                0x000000000000e79c      0x15c
 .text._UDPOpen
                0x000000000000e79c      0x15c build/FreeRTOS/production/_ext/540595297/udp.o

.text.TCPIP_ICMP_EchoRequest%251
                0x000000000000e8f8      0x15c
 .text.TCPIP_ICMP_EchoRequest
                0x000000000000e8f8      0x15c build/FreeRTOS/production/_ext/540595297/icmp.o
                0x000000000000e8f8                TCPIP_ICMP_EchoRequest

.text.SERCOM0_SPI_InterruptHandler%252
                0x000000000000ea54      0x158
 .text.SERCOM0_SPI_InterruptHandler
                0x000000000000ea54      0x158 build/FreeRTOS/production/_ext/1428073114/plib_sercom0_spi_master.o
                0x000000000000ea54                SERCOM0_SPI_InterruptHandler

.text._Command_NetworkOnOff%253
                0x000000000000ebac      0x154
 .text._Command_NetworkOnOff
                0x000000000000ebac      0x154 build/FreeRTOS/production/_ext/540595297/tcpip_commands.o

.text.TCPIP_TCP_Initialize%254
                0x000000000000ed00      0x154
 .text.TCPIP_TCP_Initialize
                0x000000000000ed00      0x154 build/FreeRTOS/production/_ext/540595297/tcp.o
                0x000000000000ed00                TCPIP_TCP_Initialize

.text.TCPIP_DNS_EntryQuery%255
                0x000000000000ee54      0x154
 .text.TCPIP_DNS_EntryQuery
                0x000000000000ee54      0x154 build/FreeRTOS/production/_ext/540595297/dns.o
                0x000000000000ee54                TCPIP_DNS_EntryQuery

.text.CommandHelp%256
                0x000000000000efa8      0x154
 .text.CommandHelp
                0x000000000000efa8      0x154 build/FreeRTOS/production/_ext/1005353002/sys_command.o

.text.xQueueSemaphoreTake%257
                0x000000000000f0fc      0x154
 .text.xQueueSemaphoreTake
                0x000000000000f0fc      0x154 build/FreeRTOS/production/_ext/404212886/queue.o
                0x000000000000f0fc                xQueueSemaphoreTake

.text.wc_Sha256Update%258
                0x000000000000f250      0x148
 .text.wc_Sha256Update
                0x000000000000f250      0x148 build/FreeRTOS/production/_ext/1664057780/sha256.o
                0x000000000000f250                wc_Sha256Update

.rodata._Command_NetInfo.str1.4%259
                0x000000000000f398      0x144
 .rodata._Command_NetInfo.str1.4
                0x000000000000f398      0x144 build/FreeRTOS/production/_ext/540595297/tcpip_commands.o

.text.Hash_df%260
                0x000000000000f4dc      0x140
 .text.Hash_df  0x000000000000f4dc      0x140 build/FreeRTOS/production/_ext/1664057780/random.o

.text._LoadNetworkConfig%261
                0x000000000000f61c      0x138
 .text._LoadNetworkConfig
                0x000000000000f61c      0x138 build/FreeRTOS/production/_ext/540595297/tcpip_manager.o

.text.TCPIP_UDP_Deinitialize%262
                0x000000000000f754      0x134
 .text.TCPIP_UDP_Deinitialize
                0x000000000000f754      0x134 build/FreeRTOS/production/_ext/540595297/udp.o
                0x000000000000f754                TCPIP_UDP_Deinitialize

.text.TC6_SpiBufferDone%263
                0x000000000000f888      0x130
 .text.TC6_SpiBufferDone
                0x000000000000f888      0x130 build/FreeRTOS/production/_ext/1785105562/tc6.o
                0x000000000000f888                TC6_SpiBufferDone

.text.TCPIP_IPV4_PacketFormatTx%264
                0x000000000000f9b8      0x130
 .text.TCPIP_IPV4_PacketFormatTx
                0x000000000000f9b8      0x130 build/FreeRTOS/production/_ext/540595297/ipv4.o
                0x000000000000f9b8                TCPIP_IPV4_PacketFormatTx

.text._DNS_Resolve%265
                0x000000000000fae8      0x130
 .text._DNS_Resolve
                0x000000000000fae8      0x130 build/FreeRTOS/production/_ext/540595297/dns.o

.text.__aeabi_dmul%266
                0x000000000000fc18      0x130
 .text.__aeabi_dmul
                0x000000000000fc18      0x130 c:/program files/microchip/xc32/v4.45/bin/bin/../../lib/gcc/pic32c/8.3.1/../../../../pic32c/lib/thumb/v7e-m+fp/hard\libm-fast-emfloat.a(__aeabi_dmul.o)
                0x000000000000fc18                __aeabi_dmul

.text.DRV_SPI_Open%267
                0x000000000000fd48      0x12c
 .text.DRV_SPI_Open
                0x000000000000fd48      0x12c build/FreeRTOS/production/_ext/1348046844/drv_spi.o
                0x000000000000fd48                DRV_SPI_Open

.text.TCPIP_IPV4_Initialize%268
                0x000000000000fe74      0x128
 .text.TCPIP_IPV4_Initialize
                0x000000000000fe74      0x128 build/FreeRTOS/production/_ext/540595297/ipv4.o
                0x000000000000fe74                TCPIP_IPV4_Initialize

.rodata.SYS_CMD_Tasks.str1.4%269
                0x000000000000ff9c      0x128
 .rodata.SYS_CMD_Tasks.str1.4
                0x000000000000ff9c      0x128 build/FreeRTOS/production/_ext/1005353002/sys_command.o

.text.DRV_LAN865X_Open%270
                0x00000000000100c4      0x124
 .text.DRV_LAN865X_Open
                0x00000000000100c4      0x124 build/FreeRTOS/production/_ext/585597058/drv_lan865x_api.o
                0x00000000000100c4                DRV_LAN865X_Open

.rodata._CommandPing.str1.4%271
                0x00000000000101e8      0x124
 .rodata._CommandPing.str1.4
                0x00000000000101e8      0x124 build/FreeRTOS/production/_ext/540595297/tcpip_commands.o

.rodata._Command_IPAddressSet.str1.4%272
                0x000000000001030c      0x124
 .rodata._Command_IPAddressSet.str1.4
                0x000000000001030c      0x124 build/FreeRTOS/production/_ext/540595297/tcpip_commands.o

.text.CommandIperfNetIf%273
                0x0000000000010430      0x124
 .text.CommandIperfNetIf
                0x0000000000010430      0x124 build/FreeRTOS/production/_ext/540595297/iperf.o

.text.__fmt_x%274
                0x0000000000010554      0x124
 .text.__fmt_x  0x0000000000010554      0x124 c:/program files/microchip/xc32/v4.45/bin/bin/../../lib/gcc/pic32c/8.3.1/../../../../pic32c/lib/thumb/v7e-m+fp/hard\libc-musl.a(__fmt_x.o)
                0x0000000000010554                __fmt_x_needed
                0x0000000000010554                __fmt_x

.text.TCPIP_Helper_StringToIPAddress%275
                0x0000000000010678      0x120
 .text.TCPIP_Helper_StringToIPAddress
                0x0000000000010678      0x120 build/FreeRTOS/production/_ext/540595297/tcpip_helpers.o
                0x0000000000010678                TCPIP_Helper_StringToIPAddress

.text.xQueueGenericSend%276
                0x0000000000010798      0x120
 .text.xQueueGenericSend
                0x0000000000010798      0x120 build/FreeRTOS/production/_ext/404212886/queue.o
                0x0000000000010798                xQueueGenericSend

.text.DRV_SPI_Close%277
                0x00000000000108b8      0x11c
 .text.DRV_SPI_Close
                0x00000000000108b8      0x11c build/FreeRTOS/production/_ext/1348046844/drv_spi.o
                0x00000000000108b8                DRV_SPI_Close

.text.wc_RNG_GenerateBlock%278
                0x00000000000109d4      0x11c
 .text.wc_RNG_GenerateBlock
                0x00000000000109d4      0x11c build/FreeRTOS/production/_ext/1664057780/random.o
                0x00000000000109d4                wc_RNG_GenerateBlock

.text.TCPIP_TCP_OptionsSet%279
                0x0000000000010af0      0x11a
 .text.TCPIP_TCP_OptionsSet
                0x0000000000010af0      0x11a build/FreeRTOS/production/_ext/540595297/tcp.o
                0x0000000000010af0                TCPIP_TCP_OptionsSet

.text.DRV_SPI_Initialize%280
                0x0000000000010c0c      0x118
 .text.DRV_SPI_Initialize
                0x0000000000010c0c      0x118 build/FreeRTOS/production/_ext/1348046844/drv_spi.o
                0x0000000000010c0c                DRV_SPI_Initialize

.text._UDPv4TxAckFnc%281
                0x0000000000010d24      0x118
 .text._UDPv4TxAckFnc
                0x0000000000010d24      0x118 build/FreeRTOS/production/_ext/540595297/udp.o

.text._Command_StackOnOff%282
                0x0000000000010e3c      0x114
 .text._Command_StackOnOff
                0x0000000000010e3c      0x114 build/FreeRTOS/production/_ext/540595297/tcpip_commands.o

.rodata._Command_NetworkOnOff.str1.4%283
                0x0000000000010f50      0x114
 .rodata._Command_NetworkOnOff.str1.4
                0x0000000000010f50      0x114 build/FreeRTOS/production/_ext/540595297/tcpip_commands.o

.rodata._Command_StackOnOff.str1.4%284
                0x0000000000011064      0x114
 .rodata._Command_StackOnOff.str1.4
                0x0000000000011064      0x114 build/FreeRTOS/production/_ext/540595297/tcpip_commands.o

.text.CommandPingHandler%285
                0x0000000000011178      0x110
 .text.CommandPingHandler
                0x0000000000011178      0x110 build/FreeRTOS/production/_ext/540595297/tcpip_commands.o

.rodata._Command_HeapInfo.str1.4%286
                0x0000000000011288      0x110
 .rodata._Command_HeapInfo.str1.4
                0x0000000000011288      0x110 build/FreeRTOS/production/_ext/540595297/tcpip_commands.o

.rodata.APP_Tasks.str1.4%287
                0x0000000000011398      0x110
 .rodata.APP_Tasks.str1.4
                0x0000000000011398      0x110 build/FreeRTOS/production/_ext/1360937237/app.o

.text._Tcpv4TxAckFnc%288
                0x00000000000114a8      0x10c
 .text._Tcpv4TxAckFnc
                0x00000000000114a8      0x10c build/FreeRTOS/production/_ext/540595297/tcp.o

.text.APP_Tasks%289
                0x00000000000115b4      0x10c
 .text.APP_Tasks
                0x00000000000115b4      0x10c build/FreeRTOS/production/_ext/1360937237/app.o
                0x00000000000115b4                APP_Tasks

.text._TCPIP_HEAP_Free%290
                0x00000000000116c0      0x10a
 .text._TCPIP_HEAP_Free
                0x00000000000116c0      0x10a build/FreeRTOS/production/_ext/540595297/tcpip_heap_internal.o

.rodata%291     0x00000000000117ca      0x10a
 .rodata        0x00000000000117ca      0x10a c:/program files/microchip/xc32/v4.45/bin/bin/../../lib/gcc/pic32c/8.3.1/../../../../pic32c/lib/thumb/v7e-m+fp/hard\libc-musl.a(intscan.o)

.text._OnExtendedBlock%292
                0x00000000000118d4      0x104
 .text._OnExtendedBlock
                0x00000000000118d4      0x104 build/FreeRTOS/production/_ext/585597058/drv_lan865x_api.o

.text.TCPIP_UDP_Initialize%293
                0x00000000000119d8      0x104
 .text.TCPIP_UDP_Initialize
                0x00000000000119d8      0x104 build/FreeRTOS/production/_ext/540595297/udp.o
                0x00000000000119d8                TCPIP_UDP_Initialize

.text.TCPIP_UDP_Bind%294
                0x0000000000011adc      0x100
 .text.TCPIP_UDP_Bind
                0x0000000000011adc      0x100 build/FreeRTOS/production/_ext/540595297/udp.o
                0x0000000000011adc                TCPIP_UDP_Bind

.text.wc_Md5Update%295
                0x0000000000011bdc      0x100
 .text.wc_Md5Update
                0x0000000000011bdc      0x100 build/FreeRTOS/production/_ext/1664057780/md5.o
                0x0000000000011bdc                wc_Md5Update

.rodata.K%296   0x0000000000011cdc      0x100
 .rodata.K      0x0000000000011cdc      0x100 build/FreeRTOS/production/_ext/1664057780/sha256.o

.text._Command_HeapInfo%297
                0x0000000000011ddc       0xfc
 .text._Command_HeapInfo
                0x0000000000011ddc       0xfc build/FreeRTOS/production/_ext/540595297/tcpip_commands.o

.text.CLOCK_Initialize%298
                0x0000000000011ed8       0xfc
 .text.CLOCK_Initialize
                0x0000000000011ed8       0xfc build/FreeRTOS/production/_ext/892004133/plib_clock.o
                0x0000000000011ed8                CLOCK_Initialize

.text.accessRegisters%299
                0x0000000000011fd4       0xfa
 .text.accessRegisters
                0x0000000000011fd4       0xfa build/FreeRTOS/production/_ext/1785105562/tc6.o

.rodata.GenericTxEnd.str1.4%300
                0x00000000000120d0       0xf8
 .rodata.GenericTxEnd.str1.4
                0x00000000000120d0       0xf8 build/FreeRTOS/production/_ext/540595297/iperf.o

.text.read_rx_ctrl_buffer%301
                0x00000000000121c8       0xf4
 .text.read_rx_ctrl_buffer
                0x00000000000121c8       0xf4 build/FreeRTOS/production/_ext/1785105562/tc6.o

.rodata.TC6_CB_OnError.str1.4%302
                0x00000000000122bc       0xf4
 .rodata.TC6_CB_OnError.str1.4
                0x00000000000122bc       0xf4 build/FreeRTOS/production/_ext/585597058/drv_lan865x_api.o

.rodata.TCPIP_COMMAND_Task.str1.4%303
                0x00000000000123b0       0xf4
 .rodata.TCPIP_COMMAND_Task.str1.4
                0x00000000000123b0       0xf4 build/FreeRTOS/production/_ext/540595297/tcpip_commands.o

.text.TCPIP_UDP_SocketInfoGet%304
                0x00000000000124a4       0xf2
 .text.TCPIP_UDP_SocketInfoGet
                0x00000000000124a4       0xf2 build/FreeRTOS/production/_ext/540595297/udp.o
                0x00000000000124a4                TCPIP_UDP_SocketInfoGet

.text.TCPIP_HEAP_CreateInternal%305
                0x0000000000012598       0xf0
 .text.TCPIP_HEAP_CreateInternal
                0x0000000000012598       0xf0 build/FreeRTOS/production/_ext/540595297/tcpip_heap_internal.o
                0x0000000000012598                TCPIP_HEAP_CreateInternal

.text._DNS_GetAddresses%306
                0x0000000000012688       0xf0
 .text._DNS_GetAddresses
                0x0000000000012688       0xf0 build/FreeRTOS/production/_ext/540595297/dns.o

.text._DNS_IsNameResolved%307
                0x0000000000012778       0xf0
 .text._DNS_IsNameResolved
                0x0000000000012778       0xf0 build/FreeRTOS/production/_ext/540595297/dns.o

.text.TCPIP_DNS_ClientTask%308
                0x0000000000012868       0xf0
 .text.TCPIP_DNS_ClientTask
                0x0000000000012868       0xf0 build/FreeRTOS/production/_ext/540595297/dns.o
                0x0000000000012868                TCPIP_DNS_ClientTask

.text.TCPIP_TCP_Deinitialize%309
                0x0000000000012958       0xec
 .text.TCPIP_TCP_Deinitialize
                0x0000000000012958       0xec build/FreeRTOS/production/_ext/540595297/tcp.o
                0x0000000000012958                TCPIP_TCP_Deinitialize

.text._ARPProbeAddress%310
                0x0000000000012a44       0xec
 .text._ARPProbeAddress
                0x0000000000012a44       0xec build/FreeRTOS/production/_ext/540595297/arp.o

.rodata.CommandIperfSize.str1.4%311
                0x0000000000012b30       0xe8
 .rodata.CommandIperfSize.str1.4
                0x0000000000012b30       0xe8 build/FreeRTOS/production/_ext/540595297/iperf.o

.text.DMAC_ChannelTransfer%312
                0x0000000000012c18       0xe8
 .text.DMAC_ChannelTransfer
                0x0000000000012c18       0xe8 build/FreeRTOS/production/_ext/1495216012/plib_dmac.o
                0x0000000000012c18                DMAC_ChannelTransfer

.text.lDRV_SPI_UpdateTransferSetupAndAssertCS%313
                0x0000000000012d00       0xe4
 .text.lDRV_SPI_UpdateTransferSetupAndAssertCS
                0x0000000000012d00       0xe4 build/FreeRTOS/production/_ext/1348046844/drv_spi.o

.text._Command_IPAddressSet%314
                0x0000000000012de4       0xe4
 .text._Command_IPAddressSet
                0x0000000000012de4       0xe4 build/FreeRTOS/production/_ext/540595297/tcpip_commands.o

.rodata.CommandIperfNetIf.str1.4%315
                0x0000000000012ec8       0xe4
 .rodata.CommandIperfNetIf.str1.4
                0x0000000000012ec8       0xe4 build/FreeRTOS/production/_ext/540595297/iperf.o

.rodata.TCPIP_STACK_Task.str1.4%316
                0x0000000000012fac       0xe4
 .rodata.TCPIP_STACK_Task.str1.4
                0x0000000000012fac       0xe4 build/FreeRTOS/production/_ext/540595297/tcpip_manager.o

.text.lDRV_SPI_PlibCallbackHandler%317
                0x0000000000013090       0xe0
 .text.lDRV_SPI_PlibCallbackHandler
                0x0000000000013090       0xe0 build/FreeRTOS/production/_ext/1348046844/drv_spi.o

.text.TCPIP_UDP_ArrayGet%318
                0x0000000000013170       0xde
 .text.TCPIP_UDP_ArrayGet
                0x0000000000013170       0xde build/FreeRTOS/production/_ext/540595297/udp.o
                0x0000000000013170                TCPIP_UDP_ArrayGet

.text.SYS_TIME_PLIBCallback%319
                0x0000000000013250       0xdc
 .text.SYS_TIME_PLIBCallback
                0x0000000000013250       0xdc build/FreeRTOS/production/_ext/832704728/sys_time.o

.text.SERCOM1_USART_Write%320
                0x000000000001332c       0xd8
 .text.SERCOM1_USART_Write
                0x000000000001332c       0xd8 build/FreeRTOS/production/_ext/2092608928/plib_sercom1_usart.o
                0x000000000001332c                SERCOM1_USART_Write

.text.SYS_TIME_Initialize%321
                0x0000000000013408       0xd8
 .text.SYS_TIME_Initialize
                0x0000000000013408       0xd8 build/FreeRTOS/production/_ext/832704728/sys_time.o
                0x0000000000013408                SYS_TIME_Initialize

.text.xTaskRemoveFromEventList%322
                0x00000000000134e0       0xd8
 .text.xTaskRemoveFromEventList
                0x00000000000134e0       0xd8 build/FreeRTOS/production/_ext/404212886/FreeRTOS_tasks.o
                0x00000000000134e0                xTaskRemoveFromEventList

.text.mk_secure_ctrl_req%323
                0x00000000000135b8       0xd0
 .text.mk_secure_ctrl_req
                0x00000000000135b8       0xd0 build/FreeRTOS/production/_ext/1785105562/tc6.o

.text.TC6_Init%324
                0x0000000000013688       0xcc
 .text.TC6_Init
                0x0000000000013688       0xcc build/FreeRTOS/production/_ext/1785105562/tc6.o
                0x0000000000013688                TC6_Init

.text.TCPIP_TCP_ArrayGet%325
                0x0000000000013754       0xcc
 .text.TCPIP_TCP_ArrayGet
                0x0000000000013754       0xcc build/FreeRTOS/production/_ext/540595297/tcp.o
                0x0000000000013754                TCPIP_TCP_ArrayGet

.text.floor%326
                0x0000000000013820       0xcc
 .text.floor    0x0000000000013820       0xcc c:/program files/microchip/xc32/v4.45/bin/bin/../../lib/gcc/pic32c/8.3.1/../../../../pic32c/lib/thumb/v7e-m+fp/hard\libm-fast-emfloat.a(floor.o)
                0x0000000000013820                floor

.text.lDRV_SPI_ResourceLock%327
                0x00000000000138ec       0xca
 .text.lDRV_SPI_ResourceLock
                0x00000000000138ec       0xca build/FreeRTOS/production/_ext/1348046844/drv_spi.o

.text.DRV_LAN865X_PacketTx%328
                0x00000000000139b8       0xc8
 .text.DRV_LAN865X_PacketTx
                0x00000000000139b8       0xc8 build/FreeRTOS/production/_ext/585597058/drv_lan865x_api.o
                0x00000000000139b8                DRV_LAN865X_PacketTx

.text.TCPIP_TCP_Bind%329
                0x0000000000013a80       0xc4
 .text.TCPIP_TCP_Bind
                0x0000000000013a80       0xc4 build/FreeRTOS/production/_ext/540595297/tcp.o
                0x0000000000013a80                TCPIP_TCP_Bind

.rodata.TCPIP_STACK_BringNetUp.str1.4%330
                0x0000000000013b44       0xc4
 .rodata.TCPIP_STACK_BringNetUp.str1.4
                0x0000000000013b44       0xc4 build/FreeRTOS/production/_ext/540595297/tcpip_manager.o

.text.xTaskPriorityInherit%331
                0x0000000000013c08       0xc4
 .text.xTaskPriorityInherit
                0x0000000000013c08       0xc4 build/FreeRTOS/production/_ext/404212886/FreeRTOS_tasks.o
                0x0000000000013c08                xTaskPriorityInherit

.text._Command_DNSAddressSet%332
                0x0000000000013ccc       0xc0
 .text._Command_DNSAddressSet
                0x0000000000013ccc       0xc0 build/FreeRTOS/production/_ext/540595297/tcpip_commands.o

.text._Command_DefaultInterfaceSet%333
                0x0000000000013d8c       0xc0
 .text._Command_DefaultInterfaceSet
                0x0000000000013d8c       0xc0 build/FreeRTOS/production/_ext/540595297/tcpip_commands.o

.text._TCP_SktSetSequenceNo%334
                0x0000000000013e4c       0xc0
 .text._TCP_SktSetSequenceNo
                0x0000000000013e4c       0xc0 build/FreeRTOS/production/_ext/540595297/tcp.o

.text.mk_ctrl_req%335
                0x0000000000013f0c       0xbc
 .text.mk_ctrl_req
                0x0000000000013f0c       0xbc build/FreeRTOS/production/_ext/1785105562/tc6.o

.rodata._Command_GatewayAddressSet.str1.4%336
                0x0000000000013fc8       0xbc
 .rodata._Command_GatewayAddressSet.str1.4
                0x0000000000013fc8       0xbc build/FreeRTOS/production/_ext/540595297/tcpip_commands.o

.text.NVIC_Initialize%337
                0x0000000000014084       0xbc
 .text.NVIC_Initialize
                0x0000000000014084       0xbc build/FreeRTOS/production/_ext/1494909205/plib_nvic.o
                0x0000000000014084                NVIC_Initialize

.text.lDRV_SPI_ResourceUnlock%338
                0x0000000000014140       0xba
 .text.lDRV_SPI_ResourceUnlock
                0x0000000000014140       0xba build/FreeRTOS/production/_ext/1348046844/drv_spi.o

.text._GetMaxSegSizeOption%339
                0x00000000000141fa       0xba
 .text._GetMaxSegSizeOption
                0x00000000000141fa       0xba build/FreeRTOS/production/_ext/540595297/tcp.o

.text._ReadIndirectReg%340
                0x00000000000142b4       0xb8
 .text._ReadIndirectReg
                0x00000000000142b4       0xb8 build/FreeRTOS/production/_ext/585597058/drv_lan865x_api.o

.text.CommandIperfStop%341
                0x000000000001436c       0xb8
 .text.CommandIperfStop
                0x000000000001436c       0xb8 build/FreeRTOS/production/_ext/540595297/iperf.o

.text.TCPIP_IPERF_Initialize%342
                0x0000000000014424       0xb8
 .text.TCPIP_IPERF_Initialize
                0x0000000000014424       0xb8 build/FreeRTOS/production/_ext/540595297/iperf.o
                0x0000000000014424                TCPIP_IPERF_Initialize

.text.TCPIP_IPV4_Deinitialize%343
                0x00000000000144dc       0xb8
 .text.TCPIP_IPV4_Deinitialize
                0x00000000000144dc       0xb8 build/FreeRTOS/production/_ext/540595297/ipv4.o
                0x00000000000144dc                TCPIP_IPV4_Deinitialize

.text.SERCOM1_USART_ISR_RX_Handler%344
                0x0000000000014594       0xb8
 .text.SERCOM1_USART_ISR_RX_Handler
                0x0000000000014594       0xb8 build/FreeRTOS/production/_ext/2092608928/plib_sercom1_usart.o

.text.wc_Md5Final%345
                0x000000000001464c       0xb8
 .text.wc_Md5Final
                0x000000000001464c       0xb8 build/FreeRTOS/production/_ext/1664057780/md5.o
                0x000000000001464c                wc_Md5Final

.rodata.DRV_LAN865X_RegisterStatisticsGet.str1.4%346
                0x0000000000014704       0xb4
 .rodata.DRV_LAN865X_RegisterStatisticsGet.str1.4
                0x0000000000014704       0xb4 build/FreeRTOS/production/_ext/585597058/drv_lan865x_api.o

.text._ARPSendIfPkt%347
                0x00000000000147b8       0xb4
 .text._ARPSendIfPkt
                0x00000000000147b8       0xb4 build/FreeRTOS/production/_ext/540595297/arp.o

.text.TCPIP_IPV4_ArpHandler%348
                0x000000000001486c       0xb4
 .text.TCPIP_IPV4_ArpHandler
                0x000000000001486c       0xb4 build/FreeRTOS/production/_ext/540595297/ipv4.o

.text.SYS_TIME_HwTimerCompareUpdate%349
                0x0000000000014920       0xb4
 .text.SYS_TIME_HwTimerCompareUpdate
                0x0000000000014920       0xb4 build/FreeRTOS/production/_ext/832704728/sys_time.o

.text.Hash_DRBG_Reseed%350
                0x00000000000149d4       0xb4
 .text.Hash_DRBG_Reseed
                0x00000000000149d4       0xb4 build/FreeRTOS/production/_ext/1664057780/random.o

.text.TC6_MultipleRegisterAccess%351
                0x0000000000014a88       0xb0
 .text.TC6_MultipleRegisterAccess
                0x0000000000014a88       0xb0 build/FreeRTOS/production/_ext/1785105562/tc6.o
                0x0000000000014a88                TC6_MultipleRegisterAccess

.text.TCPIP_STACK_NetUp%352
                0x0000000000014b38       0xb0
 .text.TCPIP_STACK_NetUp
                0x0000000000014b38       0xb0 build/FreeRTOS/production/_ext/540595297/tcpip_manager.o
                0x0000000000014b38                TCPIP_STACK_NetUp

.text.SYS_TIME_TimerObjectCreate%353
                0x0000000000014be8       0xb0
 .text.SYS_TIME_TimerObjectCreate
                0x0000000000014be8       0xb0 build/FreeRTOS/production/_ext/832704728/sys_time.o

.text.prvAddCurrentTaskToDelayedList%354
                0x0000000000014c98       0xb0
 .text.prvAddCurrentTaskToDelayedList
                0x0000000000014c98       0xb0 build/FreeRTOS/production/_ext/404212886/FreeRTOS_tasks.o

.text.TCPIP_Commands_Initialize%355
                0x0000000000014d48       0xac
 .text.TCPIP_Commands_Initialize
                0x0000000000014d48       0xac build/FreeRTOS/production/_ext/540595297/tcpip_commands.o
                0x0000000000014d48                TCPIP_Commands_Initialize

.text.__pop_int%356
                0x0000000000014df4       0xac
 .text.__pop_int
                0x0000000000014df4       0xac c:/program files/microchip/xc32/v4.45/bin/bin/../../lib/gcc/pic32c/8.3.1/../../../../pic32c/lib/thumb/v7e-m+fp/hard\libc-musl.a(__pop_int.o)
                0x0000000000014df4                __pop_int_needed
                0x0000000000014df4                __pop_int

.text._TCPIP_HEAP_Malloc%357
                0x0000000000014ea0       0xaa
 .text._TCPIP_HEAP_Malloc
                0x0000000000014ea0       0xaa build/FreeRTOS/production/_ext/540595297/tcpip_heap_internal.o

.text._TcpDisconnect%358
                0x0000000000014f4a       0xaa
 .text._TcpDisconnect
                0x0000000000014f4a       0xaa build/FreeRTOS/production/_ext/540595297/tcp.o

.rodata.tcpipCmdTbl%359
                0x0000000000014ff4       0xa8
 .rodata.tcpipCmdTbl
                0x0000000000014ff4       0xa8 build/FreeRTOS/production/_ext/540595297/tcpip_commands.o

.text.TCPIP_TCP_ServerOpen%360
                0x000000000001509c       0xa8
 .text.TCPIP_TCP_ServerOpen
                0x000000000001509c       0xa8 build/FreeRTOS/production/_ext/540595297/tcp.o
                0x000000000001509c                TCPIP_TCP_ServerOpen

.text.TCPIP_UDP_Disconnect%361
                0x0000000000015144       0xa8
 .text.TCPIP_UDP_Disconnect
                0x0000000000015144       0xa8 build/FreeRTOS/production/_ext/540595297/udp.o
                0x0000000000015144                TCPIP_UDP_Disconnect

.text.TCPIP_STACK_KillStack%362
                0x00000000000151ec       0xa8
 .text.TCPIP_STACK_KillStack
                0x00000000000151ec       0xa8 build/FreeRTOS/production/_ext/540595297/tcpip_manager.o

.text.SERCOM1_USART_ISR_TX_Handler%363
                0x0000000000015294       0xa8
 .text.SERCOM1_USART_ISR_TX_Handler
                0x0000000000015294       0xa8 build/FreeRTOS/production/_ext/2092608928/plib_sercom1_usart.o

.text.vTaskSwitchContext%364
                0x000000000001533c       0xa8
 .text.vTaskSwitchContext
                0x000000000001533c       0xa8 build/FreeRTOS/production/_ext/404212886/FreeRTOS_tasks.o
                0x000000000001533c                vTaskSwitchContext

.text.__fmt_d%365
                0x00000000000153e4       0xa8
 .text.__fmt_d  0x00000000000153e4       0xa8 c:/program files/microchip/xc32/v4.45/bin/bin/../../lib/gcc/pic32c/8.3.1/../../../../pic32c/lib/thumb/v7e-m+fp/hard\libc-musl.a(__fmt_d.o)
                0x00000000000153e4                __fmt_d
                0x00000000000153e4                __fmt_d_needed

.text.TC6_CB_OnError%366
                0x000000000001548c       0xa4
 .text.TC6_CB_OnError
                0x000000000001548c       0xa4 build/FreeRTOS/production/_ext/585597058/drv_lan865x_api.o
                0x000000000001548c                TC6_CB_OnError

.rodata._Command_MACAddressSet.str1.4%367
                0x0000000000015530       0xa4
 .rodata._Command_MACAddressSet.str1.4
                0x0000000000015530       0xa4 build/FreeRTOS/production/_ext/540595297/tcpip_commands.o

.text.wc_RNG_HealthTest_ex%368
                0x00000000000155d4       0xa2
 .text.wc_RNG_HealthTest_ex
                0x00000000000155d4       0xa2 build/FreeRTOS/production/_ext/1664057780/random.o
                0x00000000000155d4                wc_RNG_HealthTest_ex

.text.TCPIP_Helper_IPv6AddressToString%369
                0x0000000000015676       0xa0
 .text.TCPIP_Helper_IPv6AddressToString
                0x0000000000015676       0xa0 build/FreeRTOS/production/_ext/540595297/tcpip_helpers.o
                0x0000000000015676                TCPIP_Helper_IPv6AddressToString

.text._UDPv4AllocateSktTxBuffer%370
                0x0000000000015718       0xa0
 .text._UDPv4AllocateSktTxBuffer
                0x0000000000015718       0xa0 build/FreeRTOS/production/_ext/540595297/udp.o

.text._ARPDeleteResources%371
                0x00000000000157b8       0xa0
 .text._ARPDeleteResources
                0x00000000000157b8       0xa0 build/FreeRTOS/production/_ext/540595297/arp.o

.rodata.ReportBW_Jitter_Loss.str1.4%372
                0x0000000000015858       0x9c
 .rodata.ReportBW_Jitter_Loss.str1.4
                0x0000000000015858       0x9c build/FreeRTOS/production/_ext/540595297/iperf.o

.text.TCPIP_UDP_OpenServerSkt%373
                0x00000000000158f4       0x9c
 .text.TCPIP_UDP_OpenServerSkt
                0x00000000000158f4       0x9c build/FreeRTOS/production/_ext/540595297/udp.o
                0x00000000000158f4                TCPIP_UDP_OpenServerSkt

.text.SERCOM0_SPI_TransferSetup%374
                0x0000000000015990       0x9c
 .text.SERCOM0_SPI_TransferSetup
                0x0000000000015990       0x9c build/FreeRTOS/production/_ext/1428073114/plib_sercom0_spi_master.o
                0x0000000000015990                SERCOM0_SPI_TransferSetup

.text.vTaskPriorityDisinheritAfterTimeout%375
                0x0000000000015a2c       0x9c
 .text.vTaskPriorityDisinheritAfterTimeout
                0x0000000000015a2c       0x9c build/FreeRTOS/production/_ext/404212886/FreeRTOS_tasks.o
                0x0000000000015a2c                vTaskPriorityDisinheritAfterTimeout

.rodata._Command_DefaultInterfaceSet.str1.4%376
                0x0000000000015ac8       0x98
 .rodata._Command_DefaultInterfaceSet.str1.4
                0x0000000000015ac8       0x98 build/FreeRTOS/production/_ext/540595297/tcpip_commands.o

.text.TCPIP_Helper_StringToMACAddress%377
                0x0000000000015b60       0x98
 .text.TCPIP_Helper_StringToMACAddress
                0x0000000000015b60       0x98 build/FreeRTOS/production/_ext/540595297/tcpip_helpers.o
                0x0000000000015b60                TCPIP_Helper_StringToMACAddress

.text.TCPIP_STACK_Initialize%378
                0x0000000000015bf8       0x98
 .text.TCPIP_STACK_Initialize
                0x0000000000015bf8       0x98 build/FreeRTOS/production/_ext/540595297/tcpip_manager.o
                0x0000000000015bf8                TCPIP_STACK_Initialize

.text.TCPIP_ICMP_Initialize%379
                0x0000000000015c90       0x98
 .text.TCPIP_ICMP_Initialize
                0x0000000000015c90       0x98 build/FreeRTOS/production/_ext/540595297/icmp.o
                0x0000000000015c90                TCPIP_ICMP_Initialize

.text.ascii_to_u32s%380
                0x0000000000015d28       0x94
 .text.ascii_to_u32s
                0x0000000000015d28       0x94 build/FreeRTOS/production/_ext/540595297/iperf.o

.text._UDPsetPacketInfo%381
                0x0000000000015dbc       0x94
 .text._UDPsetPacketInfo
                0x0000000000015dbc       0x94 build/FreeRTOS/production/_ext/540595297/udp.o

.text.TCPIP_ARP_IsResolved%382
                0x0000000000015e50       0x94
 .text.TCPIP_ARP_IsResolved
                0x0000000000015e50       0x94 build/FreeRTOS/production/_ext/540595297/arp.o
                0x0000000000015e50                TCPIP_ARP_IsResolved

.text.SYS_CMD_ADDGRP%383
                0x0000000000015ee4       0x94
 .text.SYS_CMD_ADDGRP
                0x0000000000015ee4       0x94 build/FreeRTOS/production/_ext/1005353002/sys_command.o
                0x0000000000015ee4                SYS_CMD_ADDGRP

.text._Command_MACAddressSet%384
                0x0000000000015f78       0x90
 .text._Command_MACAddressSet
                0x0000000000015f78       0x90 build/FreeRTOS/production/_ext/540595297/tcpip_commands.o

.rodata.str1.4%385
                0x0000000000016008       0x90
 .rodata.str1.4
                0x0000000000016008       0x90 build/FreeRTOS/production/_ext/540595297/iperf.o

.text._TCPIPStackModuleRxPurge%386
                0x0000000000016098       0x90
 .text._TCPIPStackModuleRxPurge
                0x0000000000016098       0x90 build/FreeRTOS/production/_ext/540595297/tcpip_manager.o
                0x0000000000016098                _TCPIPStackModuleRxPurge

.text.TCPIP_IPV4_MacPacketSwitchTxToRx%387
                0x0000000000016128       0x90
 .text.TCPIP_IPV4_MacPacketSwitchTxToRx
                0x0000000000016128       0x90 build/FreeRTOS/production/_ext/540595297/ipv4.o
                0x0000000000016128                TCPIP_IPV4_MacPacketSwitchTxToRx

.text.DisplayNodeMsg%388
                0x00000000000161b8       0x90
 .text.DisplayNodeMsg
                0x00000000000161b8       0x90 build/FreeRTOS/production/_ext/1005353002/sys_command.o

.rodata.CommandHelp.str1.4%389
                0x0000000000016248       0x90
 .rodata.CommandHelp.str1.4
                0x0000000000016248       0x90 build/FreeRTOS/production/_ext/1005353002/sys_command.o

.text.SYS_TIME_AddToList%390
                0x00000000000162d8       0x90
 .text.SYS_TIME_AddToList
                0x00000000000162d8       0x90 build/FreeRTOS/production/_ext/832704728/sys_time.o

.text.xQueueGenericReset%391
                0x0000000000016368       0x90
 .text.xQueueGenericReset
                0x0000000000016368       0x90 build/FreeRTOS/production/_ext/404212886/queue.o
                0x0000000000016368                xQueueGenericReset

.text.DRV_LAN865X_SetMacCtrlInfo%392
                0x00000000000163f8       0x8c
 .text.DRV_LAN865X_SetMacCtrlInfo
                0x00000000000163f8       0x8c build/FreeRTOS/production/_ext/585597058/drv_lan865x_api.o
                0x00000000000163f8                DRV_LAN865X_SetMacCtrlInfo

.text._Command_ZcllOnOff%393
                0x0000000000016484       0x8c
 .text._Command_ZcllOnOff
                0x0000000000016484       0x8c build/FreeRTOS/production/_ext/540595297/tcpip_commands.o

.rodata._Command_DNSAddressSet.str1.4%394
                0x0000000000016510       0x8c
 .rodata._Command_DNSAddressSet.str1.4
                0x0000000000016510       0x8c build/FreeRTOS/production/_ext/540595297/tcpip_commands.o

.text.xTaskPriorityDisinherit%395
                0x000000000001659c       0x8c
 .text.xTaskPriorityDisinherit
                0x000000000001659c       0x8c build/FreeRTOS/production/_ext/404212886/FreeRTOS_tasks.o
                0x000000000001659c                xTaskPriorityDisinherit

.text.PrintRateLimited%396
                0x0000000000016628       0x88
 .text.PrintRateLimited
                0x0000000000016628       0x88 build/FreeRTOS/production/_ext/585597058/drv_lan865x_api.o

.rodata._OnExtendedBlock.str1.4%397
                0x00000000000166b0       0x88
 .rodata._OnExtendedBlock.str1.4
                0x00000000000166b0       0x88 build/FreeRTOS/production/_ext/585597058/drv_lan865x_api.o

.text._Command_GatewayAddressSet%398
                0x0000000000016738       0x88
 .text._Command_GatewayAddressSet
                0x0000000000016738       0x88 build/FreeRTOS/production/_ext/540595297/tcpip_commands.o

.text._OAHashFindBkt%399
                0x00000000000167c0       0x88
 .text._OAHashFindBkt
                0x00000000000167c0       0x88 build/FreeRTOS/production/_ext/540595297/oahash.o

.text.SYS_CMDIO_ADD%400
                0x0000000000016848       0x88
 .text.SYS_CMDIO_ADD
                0x0000000000016848       0x88 build/FreeRTOS/production/_ext/1005353002/sys_command.o
                0x0000000000016848                SYS_CMDIO_ADD

.text.Reset_Handler%401
                0x00000000000168d0       0x88
 .text.Reset_Handler
                0x00000000000168d0       0x88 build/FreeRTOS/production/_ext/161576091/startup_xc32.o
                0x00000000000168d0                Reset_Handler

.text.pvPortMalloc%402
                0x0000000000016958       0x88
 .text.pvPortMalloc
                0x0000000000016958       0x88 build/FreeRTOS/production/_ext/1665200909/heap_1.o
                0x0000000000016958                pvPortMalloc

.text._TCPIP_PKT_PacketAlloc%403
                0x00000000000169e0       0x84
 .text._TCPIP_PKT_PacketAlloc
                0x00000000000169e0       0x84 build/FreeRTOS/production/_ext/540595297/tcpip_packet.o
                0x00000000000169e0                _TCPIP_PKT_PacketAlloc

.rodata.CommandIperfStop.str1.4%404
                0x0000000000016a64       0x84
 .rodata.CommandIperfStop.str1.4
                0x0000000000016a64       0x84 build/FreeRTOS/production/_ext/540595297/iperf.o

.text.TCPIP_STACK_NetAddressSet%405
                0x0000000000016ae8       0x84
 .text.TCPIP_STACK_NetAddressSet
                0x0000000000016ae8       0x84 build/FreeRTOS/production/_ext/540595297/tcpip_manager.o
                0x0000000000016ae8                TCPIP_STACK_NetAddressSet

.text.DMAC_channel_interruptHandler%406
                0x0000000000016b6c       0x84
 .text.DMAC_channel_interruptHandler
                0x0000000000016b6c       0x84 build/FreeRTOS/production/_ext/1495216012/plib_dmac.o

.text.SERCOM1_USART_Read%407
                0x0000000000016bf0       0x84
 .text.SERCOM1_USART_Read
                0x0000000000016bf0       0x84 build/FreeRTOS/production/_ext/2092608928/plib_sercom1_usart.o
                0x0000000000016bf0                SERCOM1_USART_Read

.text._InitSysRand%408
                0x0000000000016c74       0x84
 .text._InitSysRand
                0x0000000000016c74       0x84 build/FreeRTOS/production/_ext/2072568807/sys_random_h2_adapter.o

.text.__simple_search_fl%409
                0x0000000000016cf8       0x84
 .text.__simple_search_fl
                0x0000000000016cf8       0x84 c:/program files/microchip/xc32/v4.45/bin/bin/../../lib/gcc/pic32c/8.3.1/../../../../pic32c/lib/thumb/v7e-m+fp/hard\liblmalloc-musl.a(lite_free.o)
                0x0000000000016cf8                __simple_search_fl

.text.__pad%410
                0x0000000000016d7c       0x84
 .text.__pad    0x0000000000016d7c       0x84 c:/program files/microchip/xc32/v4.45/bin/bin/../../lib/gcc/pic32c/8.3.1/../../../../pic32c/lib/thumb/v7e-m+fp/hard\libc-musl.a(__printf_core.o)
                0x0000000000016d7c                __pad

.text.TCPIP_Helper_PacketChecksum%411
                0x0000000000016e00       0x82
 .text.TCPIP_Helper_PacketChecksum
                0x0000000000016e00       0x82 build/FreeRTOS/production/_ext/540595297/tcpip_helpers.o
                0x0000000000016e00                TCPIP_Helper_PacketChecksum

.text._DNS_ValidateIf%412
                0x0000000000016e82       0x82
 .text._DNS_ValidateIf
                0x0000000000016e82       0x82 build/FreeRTOS/production/_ext/540595297/dns.o

.rodata.DRV_LAN865X_Tasks.str1.4%413
                0x0000000000016f04       0x80
 .rodata.DRV_LAN865X_Tasks.str1.4
                0x0000000000016f04       0x80 build/FreeRTOS/production/_ext/585597058/drv_lan865x_api.o

.text.SERCOM1_USART_Initialize%414
                0x0000000000016f84       0x80
 .text.SERCOM1_USART_Initialize
                0x0000000000016f84       0x80 build/FreeRTOS/production/_ext/2092608928/plib_sercom1_usart.o
                0x0000000000016f84                SERCOM1_USART_Initialize

.text.StringToArgs%415
                0x0000000000017004       0x80
 .text.StringToArgs
                0x0000000000017004       0x80 build/FreeRTOS/production/_ext/1005353002/sys_command.o

.text.SYS_Initialize%416
                0x0000000000017084       0x80
 .text.SYS_Initialize
                0x0000000000017084       0x80 build/FreeRTOS/production/_ext/161576091/initialization.o
                0x0000000000017084                SYS_Initialize

.rodata.outputA_data%417
                0x0000000000017104       0x80
 .rodata.outputA_data
                0x0000000000017104       0x80 build/FreeRTOS/production/_ext/1664057780/random.o
                0x0000000000017104                outputA_data

.rodata.outputB_data%418
                0x0000000000017184       0x80
 .rodata.outputB_data
                0x0000000000017184       0x80 build/FreeRTOS/production/_ext/1664057780/random.o
                0x0000000000017184                outputB_data

.text.strspn%419
                0x0000000000017204       0x80
 .text.strspn   0x0000000000017204       0x80 c:/program files/microchip/xc32/v4.45/bin/bin/../../lib/gcc/pic32c/8.3.1/../../../../pic32c/lib/thumb/v7e-m+fp/hard\libc-size-musl.a(strspn.o)
                0x0000000000017204                strspn

.text.prvUnlockQueue%420
                0x0000000000017284       0x7e
 .text.prvUnlockQueue
                0x0000000000017284       0x7e build/FreeRTOS/production/_ext/404212886/queue.o

.rodata._Command_BIOSNameSet.str1.4%421
                0x0000000000017304       0x7c
 .rodata._Command_BIOSNameSet.str1.4
                0x0000000000017304       0x7c build/FreeRTOS/production/_ext/540595297/tcpip_commands.o

.rodata._Command_ZcllOnOff.str1.4%422
                0x0000000000017380       0x7c
 .rodata._Command_ZcllOnOff.str1.4
                0x0000000000017380       0x7c build/FreeRTOS/production/_ext/540595297/tcpip_commands.o

.text.SendCommandPrint%423
                0x00000000000173fc       0x7c
 .text.SendCommandPrint
                0x00000000000173fc       0x7c build/FreeRTOS/production/_ext/1005353002/sys_command.o

.text.__pop_ptr%424
                0x0000000000017478       0x7c
 .text.__pop_ptr
                0x0000000000017478       0x7c c:/program files/microchip/xc32/v4.45/bin/bin/../../lib/gcc/pic32c/8.3.1/../../../../pic32c/lib/thumb/v7e-m+fp/hard\libc-musl.a(__pop_ptr.o)
                0x0000000000017478                __pop_ptr
                0x0000000000017478                __pop_ptr_needed

.text.TCPIP_TCP_SocketInfoGet%425
                0x00000000000174f4       0x7a
 .text.TCPIP_TCP_SocketInfoGet
                0x00000000000174f4       0x7a build/FreeRTOS/production/_ext/540595297/tcp.o
                0x00000000000174f4                TCPIP_TCP_SocketInfoGet

.text.TCPIP_Helper_PacketCopy%426
                0x000000000001756e       0x78
 .text.TCPIP_Helper_PacketCopy
                0x000000000001756e       0x78 build/FreeRTOS/production/_ext/540595297/tcpip_helpers.o
                0x000000000001756e                TCPIP_Helper_PacketCopy

.text.DMAC_Initialize%427
                0x00000000000175e8       0x78
 .text.DMAC_Initialize
                0x00000000000175e8       0x78 build/FreeRTOS/production/_ext/1495216012/plib_dmac.o
                0x00000000000175e8                DMAC_Initialize

.text.strcspn%428
                0x0000000000017660       0x78
 .text.strcspn  0x0000000000017660       0x78 c:/program files/microchip/xc32/v4.45/bin/bin/../../lib/gcc/pic32c/8.3.1/../../../../pic32c/lib/thumb/v7e-m+fp/hard\libc-size-musl.a(strcspn.o)
                0x0000000000017660                strcspn

.text.__cvt_u%429
                0x00000000000176d8       0x78
 .text.__cvt_u  0x00000000000176d8       0x78 c:/program files/microchip/xc32/v4.45/bin/bin/../../lib/gcc/pic32c/8.3.1/../../../../pic32c/lib/thumb/v7e-m+fp/hard\libc-musl.a(__cvt_u.o)
                0x00000000000176d8                __cvt_u

.text.prvCopyDataToQueue%430
                0x0000000000017750       0x76
 .text.prvCopyDataToQueue
                0x0000000000017750       0x76 build/FreeRTOS/production/_ext/404212886/queue.o

.text.TC6_CB_OnRxEthernetSlice%431
                0x00000000000177c6       0x74
 .text.TC6_CB_OnRxEthernetSlice
                0x00000000000177c6       0x74 build/FreeRTOS/production/_ext/585597058/drv_lan865x_api.o
                0x00000000000177c6                TC6_CB_OnRxEthernetSlice

.text.GenericTxDone%432
                0x000000000001783c       0x74
 .text.GenericTxDone
                0x000000000001783c       0x74 build/FreeRTOS/production/_ext/540595297/iperf.o

.text._ARPUpdateEntry%433
                0x00000000000178b0       0x74
 .text._ARPUpdateEntry
                0x00000000000178b0       0x74 build/FreeRTOS/production/_ext/540595297/arp.o

.text.TCPIP_ARP_EntryRemove%434
                0x0000000000017924       0x74
 .text.TCPIP_ARP_EntryRemove
                0x0000000000017924       0x74 build/FreeRTOS/production/_ext/540595297/arp.o
                0x0000000000017924                TCPIP_ARP_EntryRemove

.text.prvIdleTask%435
                0x0000000000017998       0x74
 .text.prvIdleTask
                0x0000000000017998       0x74 build/FreeRTOS/production/_ext/404212886/FreeRTOS_tasks.o

.text.wc_GenerateSeed%436
                0x0000000000017a0c       0x74
 .text.wc_GenerateSeed
                0x0000000000017a0c       0x74 build/FreeRTOS/production/_ext/1664057780/random.o
                0x0000000000017a0c                wc_GenerateSeed

.text.TCPIP_PKT_DataSegmentGet%437
                0x0000000000017a80       0x72
 .text.TCPIP_PKT_DataSegmentGet
                0x0000000000017a80       0x72 build/FreeRTOS/production/_ext/540595297/tcpip_packet.o
                0x0000000000017a80                TCPIP_PKT_DataSegmentGet

.text._TCPIP_StackSyncFunction%438
                0x0000000000017af2       0x72
 .text._TCPIP_StackSyncFunction
                0x0000000000017af2       0x72 build/FreeRTOS/production/_ext/540595297/tcpip_manager.o

.text.Hash_DRBG_Instantiate%439
                0x0000000000017b64       0x72
 .text.Hash_DRBG_Instantiate
                0x0000000000017b64       0x72 build/FreeRTOS/production/_ext/1664057780/random.o

.text.__fmt_o%440
                0x0000000000017bd6       0x72
 .text.__fmt_o  0x0000000000017bd6       0x72 c:/program files/microchip/xc32/v4.45/bin/bin/../../lib/gcc/pic32c/8.3.1/../../../../pic32c/lib/thumb/v7e-m+fp/hard\libc-musl.a(__fmt_o.o)
                0x0000000000017bd6                __fmt_o
                0x0000000000017bd6                __fmt_o_needed

.text.TCPIP_Helper_CalcIPChecksum%441
                0x0000000000017c48       0x70
 .text.TCPIP_Helper_CalcIPChecksum
                0x0000000000017c48       0x70 build/FreeRTOS/production/_ext/540595297/tcpip_helpers.o
                0x0000000000017c48                TCPIP_Helper_CalcIPChecksum

.text.TCPIP_IPV4_Cleanup%442
                0x0000000000017cb8       0x70
 .text.TCPIP_IPV4_Cleanup
                0x0000000000017cb8       0x70 build/FreeRTOS/production/_ext/540595297/ipv4.o

.text.wc_InitSha256_ex%443
                0x0000000000017d28       0x70
 .text.wc_InitSha256_ex
                0x0000000000017d28       0x70 build/FreeRTOS/production/_ext/1664057780/sha256.o
                0x0000000000017d28                wc_InitSha256_ex

.text.DRV_LAN865X_Initialize%444
                0x0000000000017d98       0x6c
 .text.DRV_LAN865X_Initialize
                0x0000000000017d98       0x6c build/FreeRTOS/production/_ext/585597058/drv_lan865x_api.o
                0x0000000000017d98                DRV_LAN865X_Initialize

.rodata.TCPIP_Commands_Initialize.str1.4%445
                0x0000000000017e04       0x6c
 .rodata.TCPIP_Commands_Initialize.str1.4
                0x0000000000017e04       0x6c build/FreeRTOS/production/_ext/540595297/tcpip_commands.o

.text.TCPIP_DNS_Disable%446
                0x0000000000017e70       0x6c
 .text.TCPIP_DNS_Disable
                0x0000000000017e70       0x6c build/FreeRTOS/production/_ext/540595297/dns.o
                0x0000000000017e70                TCPIP_DNS_Disable

.text.SYS_Tasks%447
                0x0000000000017edc       0x6c
 .text.SYS_Tasks
                0x0000000000017edc       0x6c build/FreeRTOS/production/_ext/161576091/tasks.o
                0x0000000000017edc                SYS_Tasks

.rodata.str1.4%448
                0x0000000000017f48       0x6c
 .rodata.str1.4
                0x0000000000017f48       0x6c build/FreeRTOS/production/_ext/161576091/initialization.o

.text.vTaskStartScheduler%449
                0x0000000000017fb4       0x6c
 .text.vTaskStartScheduler
                0x0000000000017fb4       0x6c build/FreeRTOS/production/_ext/404212886/FreeRTOS_tasks.o
                0x0000000000017fb4                vTaskStartScheduler

.text.wc_RNG_TestSeed%450
                0x0000000000018020       0x6c
 .text.wc_RNG_TestSeed
                0x0000000000018020       0x6c build/FreeRTOS/production/_ext/1664057780/random.o
                0x0000000000018020                wc_RNG_TestSeed

.text.TC6_CB_OnRxEthernetPacket%451
                0x000000000001808c       0x6a
 .text.TC6_CB_OnRxEthernetPacket
                0x000000000001808c       0x6a build/FreeRTOS/production/_ext/585597058/drv_lan865x_api.o
                0x000000000001808c                TC6_CB_OnRxEthernetPacket

.text._TcpSwapHeader%452
                0x00000000000180f6       0x68
 .text._TcpSwapHeader
                0x00000000000180f6       0x68 build/FreeRTOS/production/_ext/540595297/tcp.o

.text._TcpCleanup%453
                0x0000000000018160       0x68
 .text._TcpCleanup
                0x0000000000018160       0x68 build/FreeRTOS/production/_ext/540595297/tcp.o

.text._TCPIPStackInsertRxPacket%454
                0x00000000000181c8       0x68
 .text._TCPIPStackInsertRxPacket
                0x00000000000181c8       0x68 build/FreeRTOS/production/_ext/540595297/tcpip_manager.o
                0x00000000000181c8                _TCPIPStackInsertRxPacket

.text.TCPIP_OAHASH_EntryLookup%455
                0x0000000000018230       0x68
 .text.TCPIP_OAHASH_EntryLookup
                0x0000000000018230       0x68 build/FreeRTOS/production/_ext/540595297/oahash.o
                0x0000000000018230                TCPIP_OAHASH_EntryLookup

.text._DNS_AddSelectionIf%456
                0x0000000000018298       0x68
 .text._DNS_AddSelectionIf
                0x0000000000018298       0x68 build/FreeRTOS/production/_ext/540595297/dns.o

.rodata.str1.4%457
                0x0000000000018300       0x68
 .rodata.str1.4
                0x0000000000018300       0x68 build/FreeRTOS/production/_ext/1005353002/sys_command.o

.text.SYS_CONSOLE_Initialize%458
                0x0000000000018368       0x68
 .text.SYS_CONSOLE_Initialize
                0x0000000000018368       0x68 build/FreeRTOS/production/_ext/548640822/sys_console.o
                0x0000000000018368                SYS_CONSOLE_Initialize

.text.SYS_CONSOLE_Print%459
                0x00000000000183d0       0x68
 .text.SYS_CONSOLE_Print
                0x00000000000183d0       0x68 build/FreeRTOS/production/_ext/548640822/sys_console.o
                0x00000000000183d0                SYS_CONSOLE_Print

.text.wc_CryptoCb_Sha256Hash%460
                0x0000000000018438       0x66
 .text.wc_CryptoCb_Sha256Hash
                0x0000000000018438       0x66 build/FreeRTOS/production/_ext/1664057780/cryptocb.o
                0x0000000000018438                wc_CryptoCb_Sha256Hash

.text.DRV_SPI_TransferEventHandlerSet%461
                0x00000000000184a0       0x64
 .text.DRV_SPI_TransferEventHandlerSet
                0x00000000000184a0       0x64 build/FreeRTOS/production/_ext/1348046844/drv_spi.o
                0x00000000000184a0                DRV_SPI_TransferEventHandlerSet

.text._Command_BIOSNameSet%462
                0x0000000000018504       0x64
 .text._Command_BIOSNameSet
                0x0000000000018504       0x64 build/FreeRTOS/production/_ext/540595297/tcpip_commands.o

.rodata.GenericTxStart.str1.4%463
                0x0000000000018568       0x64
 .rodata.GenericTxStart.str1.4
                0x0000000000018568       0x64 build/FreeRTOS/production/_ext/540595297/iperf.o

.text.TCPIP_STACK_BringNetDown%464
                0x00000000000185cc       0x64
 .text.TCPIP_STACK_BringNetDown
                0x00000000000185cc       0x64 build/FreeRTOS/production/_ext/540595297/tcpip_manager.o

.text.TCPIP_OAHASH_EntryLookupOrInsert%465
                0x0000000000018630       0x64
 .text.TCPIP_OAHASH_EntryLookupOrInsert
                0x0000000000018630       0x64 build/FreeRTOS/production/_ext/540595297/oahash.o
                0x0000000000018630                TCPIP_OAHASH_EntryLookupOrInsert

.text.xPortPendSVHandler%466
                0x00000000000186a0       0x64
 .text.xPortPendSVHandler
                0x00000000000186a0       0x64 build/FreeRTOS/production/_ext/246609638/port.o
                0x00000000000186a0                xPortPendSVHandler

.text.TCPIP_UDP_SocketNetSet%467
                0x0000000000018704       0x62
 .text.TCPIP_UDP_SocketNetSet
                0x0000000000018704       0x62 build/FreeRTOS/production/_ext/540595297/udp.o
                0x0000000000018704                TCPIP_UDP_SocketNetSet

.text.TCPIP_ARP_EntryGet%468
                0x0000000000018766       0x62
 .text.TCPIP_ARP_EntryGet
                0x0000000000018766       0x62 build/FreeRTOS/production/_ext/540595297/arp.o
                0x0000000000018766                TCPIP_ARP_EntryGet

.text._PingStop%469
                0x00000000000187c8       0x60
 .text._PingStop
                0x00000000000187c8       0x60 build/FreeRTOS/production/_ext/540595297/tcpip_commands.o

.text._TcpClientSocketConnect%470
                0x0000000000018828       0x60
 .text._TcpClientSocketConnect
                0x0000000000018828       0x60 build/FreeRTOS/production/_ext/540595297/tcp.o

.rodata.TCPIP_STACK_MODULE_ENTRY_TBL%471
                0x0000000000018888       0x60
 .rodata.TCPIP_STACK_MODULE_ENTRY_TBL
                0x0000000000018888       0x60 build/FreeRTOS/production/_ext/540595297/tcpip_manager.o

.text.TCPIP_ICMP_EchoRequestCancel%472
                0x00000000000188e8       0x60
 .text.TCPIP_ICMP_EchoRequestCancel
                0x00000000000188e8       0x60 build/FreeRTOS/production/_ext/540595297/icmp.o
                0x00000000000188e8                TCPIP_ICMP_EchoRequestCancel

.text.TCPIP_DNS_ClientDeinitialize%473
                0x0000000000018948       0x60
 .text.TCPIP_DNS_ClientDeinitialize
                0x0000000000018948       0x60 build/FreeRTOS/production/_ext/540595297/dns.o
                0x0000000000018948                TCPIP_DNS_ClientDeinitialize

.text.TCPIP_DNS_GetIPAddressesNumber%474
                0x00000000000189a8       0x60
 .text.TCPIP_DNS_GetIPAddressesNumber
                0x00000000000189a8       0x60 build/FreeRTOS/production/_ext/540595297/dns.o
                0x00000000000189a8                TCPIP_DNS_GetIPAddressesNumber

.text.PORT_Initialize%475
                0x0000000000018a08       0x60
 .text.PORT_Initialize
                0x0000000000018a08       0x60 build/FreeRTOS/production/_ext/1494856054/plib_port.o
                0x0000000000018a08                PORT_Initialize

.text.xTaskCheckForTimeOut%476
                0x0000000000018a68       0x60
 .text.xTaskCheckForTimeOut
                0x0000000000018a68       0x60 build/FreeRTOS/production/_ext/404212886/FreeRTOS_tasks.o
                0x0000000000018a68                xTaskCheckForTimeOut

.text.__strchrnul%477
                0x0000000000018ac8       0x60
 .text.__strchrnul
                0x0000000000018ac8       0x60 c:/program files/microchip/xc32/v4.45/bin/bin/../../lib/gcc/pic32c/8.3.1/../../../../pic32c/lib/thumb/v7e-m+fp/hard\libc-size-musl.a(strchrnul.o)
                0x0000000000018ac8                strchrnul
                0x0000000000018ac8                __strchrnul

.text.__simple_malloc%478
                0x0000000000018b28       0x60
 .text.__simple_malloc
                0x0000000000018b28       0x60 c:/program files/microchip/xc32/v4.45/bin/bin/../../lib/gcc/pic32c/8.3.1/../../../../pic32c/lib/thumb/v7e-m+fp/hard\liblmalloc-musl.a(lite_malloc.o)
                0x0000000000018b28                __malloc0
                0x0000000000018b28                __simple_malloc
                0x0000000000018b28                malloc

.text.vsnprintf%479
                0x0000000000018b88       0x60
 .text.vsnprintf
                0x0000000000018b88       0x60 c:/program files/microchip/xc32/v4.45/bin/bin/../../lib/gcc/pic32c/8.3.1/../../../../pic32c/lib/thumb/v7e-m+fp/hard\libc-musl.a(vsnprintf.o)
                0x0000000000018b88                vsnprintf

.text.TC6_CB_OnSpiTransaction%480
                0x0000000000018be8       0x5c
 .text.TC6_CB_OnSpiTransaction
                0x0000000000018be8       0x5c build/FreeRTOS/production/_ext/585597058/drv_lan865x_api.o
                0x0000000000018be8                TC6_CB_OnSpiTransaction

.text._TCPIP_SelectDefaultNet%481
                0x0000000000018c44       0x5c
 .text._TCPIP_SelectDefaultNet
                0x0000000000018c44       0x5c build/FreeRTOS/production/_ext/540595297/tcpip_manager.o

.text.SYS_TIME_RemoveFromList%482
                0x0000000000018ca0       0x5c
 .text.SYS_TIME_RemoveFromList
                0x0000000000018ca0       0x5c build/FreeRTOS/production/_ext/832704728/sys_time.o

.text.wc_CryptoCb_RandomBlock%483
                0x0000000000018cfc       0x5c
 .text.wc_CryptoCb_RandomBlock
                0x0000000000018cfc       0x5c build/FreeRTOS/production/_ext/1664057780/cryptocb.o
                0x0000000000018cfc                wc_CryptoCb_RandomBlock

.text.__libc_start_init%484
                0x0000000000018d58       0x5c
 .text.__libc_start_init
                0x0000000000018d58       0x5c c:/program files/microchip/xc32/v4.45/bin/bin/../../lib/gcc/pic32c/8.3.1/../../../../pic32c/lib/thumb/v7e-m+fp/hard\libc-musl.a(__libc_start_main.o)
                0x0000000000018d58                __libc_init_array

.text.on_rx_done%485
                0x0000000000018db4       0x5a
 .text.on_rx_done
                0x0000000000018db4       0x5a build/FreeRTOS/production/_ext/1785105562/tc6.o

.rodata.DRV_LAN865X_MACObject%486
                0x0000000000018e10       0x58
 .rodata.DRV_LAN865X_MACObject
                0x0000000000018e10       0x58 build/FreeRTOS/production/_ext/585597058/drv_lan865x_api.o
                0x0000000000018e10                DRV_LAN865X_MACObject

.text._TCPIPStackIpAddFromAnyNet%487
                0x0000000000018e68       0x58
 .text._TCPIPStackIpAddFromAnyNet
                0x0000000000018e68       0x58 build/FreeRTOS/production/_ext/540595297/tcpip_manager.o
                0x0000000000018e68                _TCPIPStackIpAddFromAnyNet

.text._TCPIPStackModuleSignalRequest%488
                0x0000000000018ec0       0x58
 .text._TCPIPStackModuleSignalRequest
                0x0000000000018ec0       0x58 build/FreeRTOS/production/_ext/540595297/tcpip_manager.o
                0x0000000000018ec0                _TCPIPStackModuleSignalRequest

.text._DNS_Enable%489
                0x0000000000018f18       0x58
 .text._DNS_Enable
                0x0000000000018f18       0x58 build/FreeRTOS/production/_ext/540595297/dns.o

.text.OSAL_SEM_Create%490
                0x0000000000018f70       0x58
 .text.OSAL_SEM_Create
                0x0000000000018f70       0x58 build/FreeRTOS/production/_ext/891571577/osal_freertos.o
                0x0000000000018f70                OSAL_SEM_Create

.text.SERCOM1_USART_InterruptHandler%491
                0x0000000000018fc8       0x58
 .text.SERCOM1_USART_InterruptHandler
                0x0000000000018fc8       0x58 build/FreeRTOS/production/_ext/2092608928/plib_sercom1_usart.o
                0x0000000000018fc8                SERCOM1_USART_InterruptHandler

.text.SYS_TIME_TimerAdd%492
                0x0000000000019020       0x58
 .text.SYS_TIME_TimerAdd
                0x0000000000019020       0x58 build/FreeRTOS/production/_ext/832704728/sys_time.o

.text.SYS_TIME_TimerStart%493
                0x0000000000019078       0x58
 .text.SYS_TIME_TimerStart
                0x0000000000019078       0x58 build/FreeRTOS/production/_ext/832704728/sys_time.o
                0x0000000000019078                SYS_TIME_TimerStart

.text.__shgetc%494
                0x00000000000190d0       0x58
 .text.__shgetc
                0x00000000000190d0       0x58 c:/program files/microchip/xc32/v4.45/bin/bin/../../lib/gcc/pic32c/8.3.1/../../../../pic32c/lib/thumb/v7e-m+fp/hard\libc-musl.a(shgetc.o)
                0x00000000000190d0                __shgetc

.text.__fmt_s%495
                0x0000000000019128       0x58
 .text.__fmt_s  0x0000000000019128       0x58 c:/program files/microchip/xc32/v4.45/bin/bin/../../lib/gcc/pic32c/8.3.1/../../../../pic32c/lib/thumb/v7e-m+fp/hard\libc-musl.a(__fmt_s.o)
                0x0000000000019128                __fmt_s
                0x0000000000019128                __fmt_0_needed
                0x0000000000019128                __fmt_s_needed

.text.__fmt_u%496
                0x0000000000019180       0x56
 .text.__fmt_u  0x0000000000019180       0x56 c:/program files/microchip/xc32/v4.45/bin/bin/../../lib/gcc/pic32c/8.3.1/../../../../pic32c/lib/thumb/v7e-m+fp/hard\libc-musl.a(__fmt_u.o)
                0x0000000000019180                __fmt_u_needed
                0x0000000000019180                __fmt_u

.text.lDRV_SPI_TX_DMA_CallbackHandler%497
                0x00000000000191d8       0x54
 .text.lDRV_SPI_TX_DMA_CallbackHandler
                0x00000000000191d8       0x54 build/FreeRTOS/production/_ext/1348046844/drv_spi.o

.rodata.DRV_SPI_Close.str1.4%498
                0x000000000001922c       0x54
 .rodata.DRV_SPI_Close.str1.4
                0x000000000001922c       0x54 build/FreeRTOS/production/_ext/1348046844/drv_spi.o

.rodata.CommandPingHandler.str1.4%499
                0x0000000000019280       0x54
 .rodata.CommandPingHandler.str1.4
                0x0000000000019280       0x54 build/FreeRTOS/production/_ext/540595297/tcpip_commands.o

.text.IperfSetState%500
                0x00000000000192d4       0x54
 .text.IperfSetState
                0x00000000000192d4       0x54 build/FreeRTOS/production/_ext/540595297/iperf.o

.text.TCPIP_IPERF_Deinitialize%501
                0x0000000000019328       0x54
 .text.TCPIP_IPERF_Deinitialize
                0x0000000000019328       0x54 build/FreeRTOS/production/_ext/540595297/iperf.o
                0x0000000000019328                TCPIP_IPERF_Deinitialize

.text._TCPIPStackAnyNetLinked%502
                0x000000000001937c       0x54
 .text._TCPIPStackAnyNetLinked
                0x000000000001937c       0x54 build/FreeRTOS/production/_ext/540595297/tcpip_manager.o
                0x000000000001937c                _TCPIPStackAnyNetLinked

.text._ARPNotifyClients%503
                0x00000000000193d0       0x54
 .text._ARPNotifyClients
                0x00000000000193d0       0x54 build/FreeRTOS/production/_ext/540595297/arp.o

.text.TCPIP_DNS_RemoveAll%504
                0x0000000000019424       0x54
 .text.TCPIP_DNS_RemoveAll
                0x0000000000019424       0x54 build/FreeRTOS/production/_ext/540595297/dns.o
                0x0000000000019424                TCPIP_DNS_RemoveAll

.text.SYS_TIME_CallbackRegisterMS%505
                0x0000000000019478       0x54
 .text.SYS_TIME_CallbackRegisterMS
                0x0000000000019478       0x54 build/FreeRTOS/production/_ext/832704728/sys_time.o
                0x0000000000019478                SYS_TIME_CallbackRegisterMS

.text.stpncpy%506
                0x00000000000194cc       0x54
 .text.stpncpy  0x00000000000194cc       0x54 c:/program files/microchip/xc32/v4.45/bin/bin/../../lib/gcc/pic32c/8.3.1/../../../../pic32c/lib/thumb/v7e-m+fp/hard\libc-size-musl.a(stpncpy.o)
                0x00000000000194cc                __stpncpy
                0x00000000000194cc                stpncpy

.text._TcpAbort%507
                0x0000000000019520       0x52
 .text._TcpAbort
                0x0000000000019520       0x52 build/FreeRTOS/production/_ext/540595297/tcp.o

.text.TCPIP_TCP_RemoteBind%508
                0x0000000000019572       0x52
 .text.TCPIP_TCP_RemoteBind
                0x0000000000019572       0x52 build/FreeRTOS/production/_ext/540595297/tcp.o
                0x0000000000019572                TCPIP_TCP_RemoteBind

.text._DNS_DeleteHash%509
                0x00000000000195c4       0x52
 .text._DNS_DeleteHash
                0x00000000000195c4       0x52 build/FreeRTOS/production/_ext/540595297/dns.o

.text.strtox%510
                0x0000000000019616       0x52
 .text.strtox   0x0000000000019616       0x52 c:/program files/microchip/xc32/v4.45/bin/bin/../../lib/gcc/pic32c/8.3.1/../../../../pic32c/lib/thumb/v7e-m+fp/hard\libc-musl.a(strtol.o)

.text.TC6_SendRawEthernetSegments%511
                0x0000000000019668       0x50
 .text.TC6_SendRawEthernetSegments
                0x0000000000019668       0x50 build/FreeRTOS/production/_ext/1785105562/tc6.o
                0x0000000000019668                TC6_SendRawEthernetSegments

.rodata.GenericTxDone.str1.4%512
                0x00000000000196b8       0x50
 .rodata.GenericTxDone.str1.4
                0x00000000000196b8       0x50 build/FreeRTOS/production/_ext/540595297/iperf.o

.rodata.TCPIP_TCP_Initialize.str1.4%513
                0x0000000000019708       0x50
 .rodata.TCPIP_TCP_Initialize.str1.4
                0x0000000000019708       0x50 build/FreeRTOS/production/_ext/540595297/tcp.o

.text.TCPIP_UDP_PutIsReady%514
                0x0000000000019758       0x50
 .text.TCPIP_UDP_PutIsReady
                0x0000000000019758       0x50 build/FreeRTOS/production/_ext/540595297/udp.o
                0x0000000000019758                TCPIP_UDP_PutIsReady

.text.TCPIP_STACK_StringToMACId%515
                0x00000000000197a8       0x50
 .text.TCPIP_STACK_StringToMACId
                0x00000000000197a8       0x50 build/FreeRTOS/production/_ext/540595297/tcpip_manager.o
                0x00000000000197a8                TCPIP_STACK_StringToMACId

.rodata.TCPIP_IPV4_PktTx.str1.4%516
                0x00000000000197f8       0x50
 .rodata.TCPIP_IPV4_PktTx.str1.4
                0x00000000000197f8       0x50 build/FreeRTOS/production/_ext/540595297/ipv4.o

.text.TCPIP_DNS_OAHASH_DeleteEntry%517
                0x0000000000019848       0x50
 .text.TCPIP_DNS_OAHASH_DeleteEntry
                0x0000000000019848       0x50 build/FreeRTOS/production/_ext/540595297/dns.o

.text.SYS_CONSOLE_Status%518
                0x0000000000019898       0x50
 .text.SYS_CONSOLE_Status
                0x0000000000019898       0x50 build/FreeRTOS/production/_ext/548640822/sys_console.o
                0x0000000000019898                SYS_CONSOLE_Status

.text._UDPSocketBind%519
                0x00000000000198e8       0x4e
 .text._UDPSocketBind
                0x00000000000198e8       0x4e build/FreeRTOS/production/_ext/540595297/udp.o

.text.TCPIP_IPV4_SelectDestInterface%520
                0x0000000000019936       0x4e
 .text.TCPIP_IPV4_SelectDestInterface
                0x0000000000019936       0x4e build/FreeRTOS/production/_ext/540595297/ipv4.o
                0x0000000000019936                TCPIP_IPV4_SelectDestInterface

.text.lDRV_SPI_DriverHandleValidate%521
                0x0000000000019984       0x4c
 .text.lDRV_SPI_DriverHandleValidate
                0x0000000000019984       0x4c build/FreeRTOS/production/_ext/1348046844/drv_spi.o

.text.TCPIP_Helper_IPAddressToString%522
                0x00000000000199d0       0x4c
 .text.TCPIP_Helper_IPAddressToString
                0x00000000000199d0       0x4c build/FreeRTOS/production/_ext/540595297/tcpip_helpers.o
                0x00000000000199d0                TCPIP_Helper_IPAddressToString

.text.ResetIperfCounters%523
                0x0000000000019a1c       0x4c
 .text.ResetIperfCounters
                0x0000000000019a1c       0x4c build/FreeRTOS/production/_ext/540595297/iperf.o

.text._TcpSocketKill%524
                0x0000000000019a68       0x4c
 .text._TcpSocketKill
                0x0000000000019a68       0x4c build/FreeRTOS/production/_ext/540595297/tcp.o

.text._UDPClose%525
                0x0000000000019ab4       0x4c
 .text._UDPClose
                0x0000000000019ab4       0x4c build/FreeRTOS/production/_ext/540595297/udp.o

.text._TCPIP_MacEventCB%526
                0x0000000000019b00       0x4c
 .text._TCPIP_MacEventCB
                0x0000000000019b00       0x4c build/FreeRTOS/production/_ext/540595297/tcpip_manager.o

.text.SERCOM1_USART_ISR_ERR_Handler%527
                0x0000000000019b4c       0x4c
 .text.SERCOM1_USART_ISR_ERR_Handler
                0x0000000000019b4c       0x4c build/FreeRTOS/production/_ext/2092608928/plib_sercom1_usart.o

.text.DRV_LAN865X_StatisticsGet%528
                0x0000000000019b98       0x4a
 .text.DRV_LAN865X_StatisticsGet
                0x0000000000019b98       0x4a build/FreeRTOS/production/_ext/585597058/drv_lan865x_api.o
                0x0000000000019b98                DRV_LAN865X_StatisticsGet

.text.TCPIP_UDP_ArrayPut%529
                0x0000000000019be2       0x4a
 .text.TCPIP_UDP_ArrayPut
                0x0000000000019be2       0x4a build/FreeRTOS/production/_ext/540595297/udp.o
                0x0000000000019be2                TCPIP_UDP_ArrayPut

.text.TCPIP_UDP_DestinationIPAddressSet%530
                0x0000000000019c2c       0x4a
 .text.TCPIP_UDP_DestinationIPAddressSet
                0x0000000000019c2c       0x4a build/FreeRTOS/production/_ext/540595297/udp.o
                0x0000000000019c2c                TCPIP_UDP_DestinationIPAddressSet

.text.TCPIP_IPV4_SelectSourceInterface%531
                0x0000000000019c76       0x4a
 .text.TCPIP_IPV4_SelectSourceInterface
                0x0000000000019c76       0x4a build/FreeRTOS/production/_ext/540595297/ipv4.o
                0x0000000000019c76                TCPIP_IPV4_SelectSourceInterface

.text.xQueueGenericCreate%532
                0x0000000000019cc0       0x4a
 .text.xQueueGenericCreate
                0x0000000000019cc0       0x4a build/FreeRTOS/production/_ext/404212886/queue.o
                0x0000000000019cc0                xQueueGenericCreate

.text.__toread%533
                0x0000000000019d0a       0x4a
 .text.__toread
                0x0000000000019d0a       0x4a c:/program files/microchip/xc32/v4.45/bin/bin/../../lib/gcc/pic32c/8.3.1/../../../../pic32c/lib/thumb/v7e-m+fp/hard\libc-musl.a(__toread.o)
                0x0000000000019d0a                __toread

.text.__aeabi_d2iz%534
                0x0000000000019d54       0x4a
 .text.__aeabi_d2iz
                0x0000000000019d54       0x4a c:/program files/microchip/xc32/v4.45/bin/bin/../../lib/gcc/pic32c/8.3.1/../../../../pic32c/lib/thumb/v7e-m+fp/hard\libm-fast-emfloat.a(__aeabi_d2iz.o)
                0x0000000000019d54                __aeabi_d2iz

.text._TCPSendWinIncUpdate%535
                0x0000000000019d9e       0x48
 .text._TCPSendWinIncUpdate
                0x0000000000019d9e       0x48 build/FreeRTOS/production/_ext/540595297/tcp.o

.text.TCPIP_TCP_DestinationIPAddressSet%536
                0x0000000000019de6       0x48
 .text.TCPIP_TCP_DestinationIPAddressSet
                0x0000000000019de6       0x48 build/FreeRTOS/production/_ext/540595297/tcp.o
                0x0000000000019de6                TCPIP_TCP_DestinationIPAddressSet

.text.TCPIP_STACK_MACIdToNet%537
                0x0000000000019e30       0x48
 .text.TCPIP_STACK_MACIdToNet
                0x0000000000019e30       0x48 build/FreeRTOS/production/_ext/540595297/tcpip_manager.o
                0x0000000000019e30                TCPIP_STACK_MACIdToNet

.text.TCPIP_STACK_MatchNetAddress%538
                0x0000000000019e78       0x48
 .text.TCPIP_STACK_MatchNetAddress
                0x0000000000019e78       0x48 build/FreeRTOS/production/_ext/540595297/tcpip_manager.o
                0x0000000000019e78                TCPIP_STACK_MatchNetAddress

.text._TCPIPStackSignalHandlerRegister%539
                0x0000000000019ec0       0x48
 .text._TCPIPStackSignalHandlerRegister
                0x0000000000019ec0       0x48 build/FreeRTOS/production/_ext/540595297/tcpip_manager.o
                0x0000000000019ec0                _TCPIPStackSignalHandlerRegister

.text._TCPIPStackModuleRxInsert%540
                0x0000000000019f08       0x48
 .text._TCPIPStackModuleRxInsert
                0x0000000000019f08       0x48 build/FreeRTOS/production/_ext/540595297/tcpip_manager.o
                0x0000000000019f08                _TCPIPStackModuleRxInsert

.text.TCPIP_ARP_Deinitialize%541
                0x0000000000019f50       0x48
 .text.TCPIP_ARP_Deinitialize
                0x0000000000019f50       0x48 build/FreeRTOS/production/_ext/540595297/arp.o
                0x0000000000019f50                TCPIP_ARP_Deinitialize

.rodata.keySeqTbl%542
                0x0000000000019f98       0x48
 .rodata.keySeqTbl
                0x0000000000019f98       0x48 build/FreeRTOS/production/_ext/1005353002/sys_command.o

.rodata.TCPIP_STACK_MODULE_CONFIG_TBL%543
                0x0000000000019fe0       0x48
 .rodata.TCPIP_STACK_MODULE_CONFIG_TBL
                0x0000000000019fe0       0x48 build/FreeRTOS/production/_ext/161576091/initialization.o
                0x0000000000019fe0                TCPIP_STACK_MODULE_CONFIG_TBL

.text.xPortStartScheduler%544
                0x000000000001a028       0x48
 .text.xPortStartScheduler
                0x000000000001a028       0x48 build/FreeRTOS/production/_ext/246609638/port.o
                0x000000000001a028                xPortStartScheduler

.text.wc_CryptoCb_FindDeviceByIndex%545
                0x000000000001a070       0x48
 .text.wc_CryptoCb_FindDeviceByIndex
                0x000000000001a070       0x48 build/FreeRTOS/production/_ext/1664057780/cryptocb.o

.text.strtok%546
                0x000000000001a0b8       0x48
 .text.strtok   0x000000000001a0b8       0x48 c:/program files/microchip/xc32/v4.45/bin/bin/../../lib/gcc/pic32c/8.3.1/../../../../pic32c/lib/thumb/v7e-m+fp/hard\libc-size-musl.a(strtok.o)
                0x000000000001a0b8                strtok

.text.TCPIP_Helper_SingleListNodeRemove%547
                0x000000000001a100       0x46
 .text.TCPIP_Helper_SingleListNodeRemove
                0x000000000001a100       0x46 build/FreeRTOS/production/_ext/540595297/tcpip_helpers.o
                0x000000000001a100                TCPIP_Helper_SingleListNodeRemove

.text._TCPIP_HEAP_Delete%548
                0x000000000001a146       0x46
 .text._TCPIP_HEAP_Delete
                0x000000000001a146       0x46 build/FreeRTOS/production/_ext/540595297/tcpip_heap_internal.o

.text.TCPIP_TCP_FifoTxFullGet%549
                0x000000000001a18c       0x46
 .text.TCPIP_TCP_FifoTxFullGet
                0x000000000001a18c       0x46 build/FreeRTOS/production/_ext/540595297/tcp.o
                0x000000000001a18c                TCPIP_TCP_FifoTxFullGet

.text.TCPIP_TCP_SignalHandlerRegister%550
                0x000000000001a1d2       0x46
 .text.TCPIP_TCP_SignalHandlerRegister
                0x000000000001a1d2       0x46 build/FreeRTOS/production/_ext/540595297/tcp.o
                0x000000000001a1d2                TCPIP_TCP_SignalHandlerRegister

.text.TCPIP_UDP_SignalHandlerRegister%551
                0x000000000001a218       0x46
 .text.TCPIP_UDP_SignalHandlerRegister
                0x000000000001a218       0x46 build/FreeRTOS/production/_ext/540595297/udp.o
                0x000000000001a218                TCPIP_UDP_SignalHandlerRegister

.text.TCPIP_ARP_Resolve%552
                0x000000000001a25e       0x46
 .text.TCPIP_ARP_Resolve
                0x000000000001a25e       0x46 build/FreeRTOS/production/_ext/540595297/arp.o
                0x000000000001a25e                TCPIP_ARP_Resolve

.text.atoi%553  0x000000000001a2a4       0x46
 .text.atoi     0x000000000001a2a4       0x46 c:/program files/microchip/xc32/v4.45/bin/bin/../../lib/gcc/pic32c/8.3.1/../../../../pic32c/lib/thumb/v7e-m+fp/hard\libc-musl.a(atoi.o)
                0x000000000001a2a4                atoi

.text.TC6_GetRawSegments%554
                0x000000000001a2ea       0x44
 .text.TC6_GetRawSegments
                0x000000000001a2ea       0x44 build/FreeRTOS/production/_ext/1785105562/tc6.o
                0x000000000001a2ea                TC6_GetRawSegments

.text._OnClearStatus1%555
                0x000000000001a330       0x44
 .text._OnClearStatus1
                0x000000000001a330       0x44 build/FreeRTOS/production/_ext/585597058/drv_lan865x_api.o

.text.TCPIP_Helper_MACAddressToString%556
                0x000000000001a374       0x44
 .text.TCPIP_Helper_MACAddressToString
                0x000000000001a374       0x44 build/FreeRTOS/production/_ext/540595297/tcpip_helpers.o
                0x000000000001a374                TCPIP_Helper_MACAddressToString

.text.TCPIP_Helper_FormatNetBIOSName%557
                0x000000000001a3b8       0x44
 .text.TCPIP_Helper_FormatNetBIOSName
                0x000000000001a3b8       0x44 build/FreeRTOS/production/_ext/540595297/tcpip_helpers.o
                0x000000000001a3b8                TCPIP_Helper_FormatNetBIOSName

.rodata.TCPIP_UDP_Initialize.str1.4%558
                0x000000000001a3fc       0x44
 .rodata.TCPIP_UDP_Initialize.str1.4
                0x000000000001a3fc       0x44 build/FreeRTOS/production/_ext/540595297/udp.o

.text._TCPIPStack_Assert%559
                0x000000000001a440       0x44
 .text._TCPIPStack_Assert
                0x000000000001a440       0x44 build/FreeRTOS/production/_ext/540595297/tcpip_manager.o
                0x000000000001a440                _TCPIPStack_Assert

.text.SYS_INT_SourceDisable%560
                0x000000000001a484       0x44
 .text.SYS_INT_SourceDisable
                0x000000000001a484       0x44 build/FreeRTOS/production/_ext/1690414130/sys_int.o
                0x000000000001a484                SYS_INT_SourceDisable

.text.__simple_free%561
                0x000000000001a4c8       0x44
 .text.__simple_free
                0x000000000001a4c8       0x44 c:/program files/microchip/xc32/v4.45/bin/bin/../../lib/gcc/pic32c/8.3.1/../../../../pic32c/lib/thumb/v7e-m+fp/hard\liblmalloc-musl.a(lite_free.o)
                0x000000000001a4c8                __simple_free
                0x000000000001a4c8                free
                0x000000000001a4c8                __free0

.text.DRV_LAN865X_PacketRx%562
                0x000000000001a50c       0x42
 .text.DRV_LAN865X_PacketRx
                0x000000000001a50c       0x42 build/FreeRTOS/production/_ext/585597058/drv_lan865x_api.o
                0x000000000001a50c                DRV_LAN865X_PacketRx

.text._TcpSocketSetSourceInterface%563
                0x000000000001a54e       0x42
 .text._TcpSocketSetSourceInterface
                0x000000000001a54e       0x42 build/FreeRTOS/production/_ext/540595297/tcp.o

.text._UDPSetNewRxPacket%564
                0x000000000001a590       0x42
 .text._UDPSetNewRxPacket
                0x000000000001a590       0x42 build/FreeRTOS/production/_ext/540595297/udp.o

.text%565       0x000000000001a5d4       0x40
 .text          0x000000000001a5d4       0x40 c:/program files/microchip/xc32/v4.45/bin/bin/../../lib/gcc/pic32c/8.3.1/thumb/v7e-m+fp/hard/crtbegin.o

.text._EventHandlerSPI%566
                0x000000000001a614       0x40
 .text._EventHandlerSPI
                0x000000000001a614       0x40 build/FreeRTOS/production/_ext/585597058/drv_lan865x_api.o

.text.DRV_LAN865X_Close%567
                0x000000000001a654       0x40
 .text.DRV_LAN865X_Close
                0x000000000001a654       0x40 build/FreeRTOS/production/_ext/585597058/drv_lan865x_api.o
                0x000000000001a654                DRV_LAN865X_Close

.text.TC6_CB_OnExtendedStatus%568
                0x000000000001a694       0x40
 .text.TC6_CB_OnExtendedStatus
                0x000000000001a694       0x40 build/FreeRTOS/production/_ext/585597058/drv_lan865x_api.o
                0x000000000001a694                TC6_CB_OnExtendedStatus

.text._TCP_PortIsAvailable%569
                0x000000000001a6d4       0x40
 .text._TCP_PortIsAvailable
                0x000000000001a6d4       0x40 build/FreeRTOS/production/_ext/540595297/tcp.o

.text._UDPIsAvailablePort%570
                0x000000000001a714       0x40
 .text._UDPIsAvailablePort
                0x000000000001a714       0x40 build/FreeRTOS/production/_ext/540595297/udp.o

.text.TCPIP_STACK_NetByAddress%571
                0x000000000001a754       0x40
 .text.TCPIP_STACK_NetByAddress
                0x000000000001a754       0x40 build/FreeRTOS/production/_ext/540595297/tcpip_manager.o
                0x000000000001a754                TCPIP_STACK_NetByAddress

.text.TCPIP_DNS_RemoveEntry%572
                0x000000000001a794       0x40
 .text.TCPIP_DNS_RemoveEntry
                0x000000000001a794       0x40 build/FreeRTOS/production/_ext/540595297/dns.o
                0x000000000001a794                TCPIP_DNS_RemoveEntry

.text.TC0_TimerInitialize%573
                0x000000000001a7d4       0x40
 .text.TC0_TimerInitialize
                0x000000000001a7d4       0x40 build/FreeRTOS/production/_ext/579449528/plib_tc0.o
                0x000000000001a7d4                TC0_TimerInitialize

.text._TCPSetHalfFlushFlag%574
                0x000000000001a814       0x3e
 .text._TCPSetHalfFlushFlag
                0x000000000001a814       0x3e build/FreeRTOS/production/_ext/540595297/tcp.o

.text.TCPIP_UDP_TxOffsetSet%575
                0x000000000001a852       0x3e
 .text.TCPIP_UDP_TxOffsetSet
                0x000000000001a852       0x3e build/FreeRTOS/production/_ext/540595297/udp.o
                0x000000000001a852                TCPIP_UDP_TxOffsetSet

.text.TCPIP_STACK_AddressServiceDefaultSet%576
                0x000000000001a890       0x3e
 .text.TCPIP_STACK_AddressServiceDefaultSet
                0x000000000001a890       0x3e build/FreeRTOS/production/_ext/540595297/tcpip_manager.o
                0x000000000001a890                TCPIP_STACK_AddressServiceDefaultSet

.text.DRV_LAN865X_EventAcknowledge%577
                0x000000000001a8ce       0x3c
 .text.DRV_LAN865X_EventAcknowledge
                0x000000000001a8ce       0x3c build/FreeRTOS/production/_ext/585597058/drv_lan865x_api.o
                0x000000000001a8ce                DRV_LAN865X_EventAcknowledge

.text.hexatob%578
                0x000000000001a90a       0x3c
 .text.hexatob  0x000000000001a90a       0x3c build/FreeRTOS/production/_ext/540595297/helpers.o
                0x000000000001a90a                hexatob

.text._TCPIP_PKT_PacketFree%579
                0x000000000001a948       0x3c
 .text._TCPIP_PKT_PacketFree
                0x000000000001a948       0x3c build/FreeRTOS/production/_ext/540595297/tcpip_packet.o
                0x000000000001a948                _TCPIP_PKT_PacketFree

.text.TCPIP_TCP_Close%580
                0x000000000001a984       0x3c
 .text.TCPIP_TCP_Close
                0x000000000001a984       0x3c build/FreeRTOS/production/_ext/540595297/tcp.o
                0x000000000001a984                TCPIP_TCP_Close

.text.TCPIP_UDP_OpenClientSkt%581
                0x000000000001a9c0       0x3c
 .text.TCPIP_UDP_OpenClientSkt
                0x000000000001a9c0       0x3c build/FreeRTOS/production/_ext/540595297/udp.o
                0x000000000001a9c0                TCPIP_UDP_OpenClientSkt

.text.TCPIP_STACK_NetHandleGet%582
                0x000000000001a9fc       0x3c
 .text.TCPIP_STACK_NetHandleGet
                0x000000000001a9fc       0x3c build/FreeRTOS/production/_ext/540595297/tcpip_manager.o
                0x000000000001a9fc                TCPIP_STACK_NetHandleGet

.text._TCPIPStackModuleSignalGet%583
                0x000000000001aa38       0x3c
 .text._TCPIPStackModuleSignalGet
                0x000000000001aa38       0x3c build/FreeRTOS/production/_ext/540595297/tcpip_manager.o
                0x000000000001aa38                _TCPIPStackModuleSignalGet

.rodata._TCPIPStackPacketTx.str1.4%584
                0x000000000001aa74       0x3c
 .rodata._TCPIPStackPacketTx.str1.4
                0x000000000001aa74       0x3c build/FreeRTOS/production/_ext/540595297/tcpip_manager.o

.text.SERCOM0_SPI_Initialize%585
                0x000000000001aab0       0x3c
 .text.SERCOM0_SPI_Initialize
                0x000000000001aab0       0x3c build/FreeRTOS/production/_ext/1428073114/plib_sercom0_spi_master.o
                0x000000000001aab0                SERCOM0_SPI_Initialize

.text.Console_UART_Read%586
                0x000000000001aaec       0x3c
 .text.Console_UART_Read
                0x000000000001aaec       0x3c build/FreeRTOS/production/_ext/548640822/sys_console_uart.o
                0x000000000001aaec                Console_UART_Read

.text.Console_UART_Write%587
                0x000000000001ab28       0x3c
 .text.Console_UART_Write
                0x000000000001ab28       0x3c build/FreeRTOS/production/_ext/548640822/sys_console_uart.o
                0x000000000001ab28                Console_UART_Write

.text.SYS_TIME_GetTimerObject%588
                0x000000000001ab64       0x3c
 .text.SYS_TIME_GetTimerObject
                0x000000000001ab64       0x3c build/FreeRTOS/production/_ext/832704728/sys_time.o

.text.SYS_TIME_ResourceLock%589
                0x000000000001aba0       0x3c
 .text.SYS_TIME_ResourceLock
                0x000000000001aba0       0x3c build/FreeRTOS/production/_ext/832704728/sys_time.o

.text.SYS_TIME_CountToMS%590
                0x000000000001abdc       0x3c
 .text.SYS_TIME_CountToMS
                0x000000000001abdc       0x3c build/FreeRTOS/production/_ext/832704728/sys_time.o
                0x000000000001abdc                SYS_TIME_CountToMS

.text.SYS_TIME_TimerDestroy%591
                0x000000000001ac18       0x3c
 .text.SYS_TIME_TimerDestroy
                0x000000000001ac18       0x3c build/FreeRTOS/production/_ext/832704728/sys_time.o
                0x000000000001ac18                SYS_TIME_TimerDestroy

.text.wc_InitMd5_ex%592
                0x000000000001ac54       0x3c
 .text.wc_InitMd5_ex
                0x000000000001ac54       0x3c build/FreeRTOS/production/_ext/1664057780/md5.o
                0x000000000001ac54                wc_InitMd5_ex

.text.__fmt_state%593
                0x000000000001ac90       0x3c
 .text.__fmt_state
                0x000000000001ac90       0x3c c:/program files/microchip/xc32/v4.45/bin/bin/../../lib/gcc/pic32c/8.3.1/../../../../pic32c/lib/thumb/v7e-m+fp/hard\libc-musl.a(__printf_core.o)
                0x000000000001ac90                __fmt_state

.text.__aeabi_dcmple%594
                0x000000000001accc       0x3c
 .text.__aeabi_dcmple
                0x000000000001accc       0x3c c:/program files/microchip/xc32/v4.45/bin/bin/../../lib/gcc/pic32c/8.3.1/../../../../pic32c/lib/thumb/v7e-m+fp/hard\libm-fast-emfloat.a(__aeabi_dcmple.o)
                0x000000000001accc                __aeabi_dcmple

.text._TCPIP_HEAP_MaxSize%595
                0x000000000001ad08       0x3a
 .text._TCPIP_HEAP_MaxSize
                0x000000000001ad08       0x3a build/FreeRTOS/production/_ext/540595297/tcpip_heap_internal.o

.text.TCPIP_STACK_NetAliasNameGet%596
                0x000000000001ad42       0x3a
 .text.TCPIP_STACK_NetAliasNameGet
                0x000000000001ad42       0x3a build/FreeRTOS/production/_ext/540595297/tcpip_manager.o
                0x000000000001ad42                TCPIP_STACK_NetAliasNameGet

.text.DRV_LAN865X_ConfigGet%597
                0x000000000001ad7c       0x38
 .text.DRV_LAN865X_ConfigGet
                0x000000000001ad7c       0x38 build/FreeRTOS/production/_ext/585597058/drv_lan865x_api.o
                0x000000000001ad7c                DRV_LAN865X_ConfigGet

.text.TCPIP_Commands_Deinitialize%598
                0x000000000001adb4       0x38
 .text.TCPIP_Commands_Deinitialize
                0x000000000001adb4       0x38 build/FreeRTOS/production/_ext/540595297/tcpip_commands.o
                0x000000000001adb4                TCPIP_Commands_Deinitialize

.rodata._PingStop.str1.4%599
                0x000000000001adec       0x38
 .rodata._PingStop.str1.4
                0x000000000001adec       0x38 build/FreeRTOS/production/_ext/540595297/tcpip_commands.o

.text.TCPIP_PKT_PacketMACFormat%600
                0x000000000001ae24       0x38
 .text.TCPIP_PKT_PacketMACFormat
                0x000000000001ae24       0x38 build/FreeRTOS/production/_ext/540595297/tcpip_packet.o
                0x000000000001ae24                TCPIP_PKT_PacketMACFormat

.text.TCPIP_Helper_Memcpy%601
                0x000000000001ae5c       0x38
 .text.TCPIP_Helper_Memcpy
                0x000000000001ae5c       0x38 build/FreeRTOS/production/_ext/540595297/tcpip_helpers.o
                0x000000000001ae5c                TCPIP_Helper_Memcpy

.text._TCP_EphemeralPortAllocate%602
                0x000000000001ae94       0x38
 .text._TCP_EphemeralPortAllocate
                0x000000000001ae94       0x38 build/FreeRTOS/production/_ext/540595297/tcp.o

.text._UDPAllocateEphemeralPort%603
                0x000000000001aecc       0x38
 .text._UDPAllocateEphemeralPort
                0x000000000001aecc       0x38 build/FreeRTOS/production/_ext/540595297/udp.o

.rodata.TCPIP_STACK_NetUp.str1.4%604
                0x000000000001af04       0x38
 .rodata.TCPIP_STACK_NetUp.str1.4
                0x000000000001af04       0x38 build/FreeRTOS/production/_ext/540595297/tcpip_manager.o

.rodata._TCPIPStack_Assert.str1.4%605
                0x000000000001af3c       0x38
 .rodata._TCPIPStack_Assert.str1.4
                0x000000000001af3c       0x38 build/FreeRTOS/production/_ext/540595297/tcpip_manager.o

.text.TCPIP_DNS_ClientInfoGet%606
                0x000000000001af74       0x38
 .text.TCPIP_DNS_ClientInfoGet
                0x000000000001af74       0x38 build/FreeRTOS/production/_ext/540595297/dns.o
                0x000000000001af74                TCPIP_DNS_ClientInfoGet

.rodata.TCPIP_HOSTS_CONFIGURATION%607
                0x000000000001afac       0x38
 .rodata.TCPIP_HOSTS_CONFIGURATION
                0x000000000001afac       0x38 build/FreeRTOS/production/_ext/161576091/initialization.o
                0x000000000001afac                TCPIP_HOSTS_CONFIGURATION

.text.Hash_DRBG_Uninstantiate%608
                0x000000000001afe4       0x38
 .text.Hash_DRBG_Uninstantiate
                0x000000000001afe4       0x38 build/FreeRTOS/production/_ext/1664057780/random.o

.text.__aeabi_dcmpgt%609
                0x000000000001b01c       0x38
 .text.__aeabi_dcmpgt
                0x000000000001b01c       0x38 c:/program files/microchip/xc32/v4.45/bin/bin/../../lib/gcc/pic32c/8.3.1/../../../../pic32c/lib/thumb/v7e-m+fp/hard\libm-fast-emfloat.a(__aeabi_dcmpgt.o)
                0x000000000001b01c                __aeabi_dcmpgt

.text.__aeabi_dcmplt%610
                0x000000000001b054       0x38
 .text.__aeabi_dcmplt
                0x000000000001b054       0x38 c:/program files/microchip/xc32/v4.45/bin/bin/../../lib/gcc/pic32c/8.3.1/../../../../pic32c/lib/thumb/v7e-m+fp/hard\libm-fast-emfloat.a(__aeabi_dcmplt.o)
                0x000000000001b054                __aeabi_dcmplt

.text._TCPSetSourceAddress%611
                0x000000000001b08c       0x36
 .text._TCPSetSourceAddress
                0x000000000001b08c       0x36 build/FreeRTOS/production/_ext/540595297/tcp.o

.text._DNS_NetIsValid%612
                0x000000000001b0c2       0x36
 .text._DNS_NetIsValid
                0x000000000001b0c2       0x36 build/FreeRTOS/production/_ext/540595297/dns.o

.rodata.DRV_SPI_Open.str1.4%613
                0x000000000001b0f8       0x34
 .rodata.DRV_SPI_Open.str1.4
                0x000000000001b0f8       0x34 build/FreeRTOS/production/_ext/1348046844/drv_spi.o

.text._TCP_SktFlagsGet%614
                0x000000000001b12c       0x34
 .text._TCP_SktFlagsGet
                0x000000000001b12c       0x34 build/FreeRTOS/production/_ext/540595297/tcp.o

.text.TCPIP_STACK_NetDown%615
                0x000000000001b160       0x34
 .text.TCPIP_STACK_NetDown
                0x000000000001b160       0x34 build/FreeRTOS/production/_ext/540595297/tcpip_manager.o
                0x000000000001b160                TCPIP_STACK_NetDown

.text._TCPIPStackPacketTx%616
                0x000000000001b194       0x34
 .text._TCPIPStackPacketTx
                0x000000000001b194       0x34 build/FreeRTOS/production/_ext/540595297/tcpip_manager.o
                0x000000000001b194                _TCPIPStackPacketTx

.rodata.TCPIP_STACK_KillStack.str1.4%617
                0x000000000001b1c8       0x34
 .rodata.TCPIP_STACK_KillStack.str1.4
                0x000000000001b1c8       0x34 build/FreeRTOS/production/_ext/540595297/tcpip_manager.o

.text._ARPSetEntry%618
                0x000000000001b1fc       0x34
 .text._ARPSetEntry
                0x000000000001b1fc       0x34 build/FreeRTOS/production/_ext/540595297/arp.o

.text.TCPIP_ARP_HandlerRegister%619
                0x000000000001b230       0x34
 .text.TCPIP_ARP_HandlerRegister
                0x000000000001b230       0x34 build/FreeRTOS/production/_ext/540595297/arp.o
                0x000000000001b230                TCPIP_ARP_HandlerRegister

.text._DNSGetData%620
                0x000000000001b264       0x34
 .text._DNSGetData
                0x000000000001b264       0x34 build/FreeRTOS/production/_ext/540595297/dns.o

.text.CommandQuit%621
                0x000000000001b298       0x34
 .text.CommandQuit
                0x000000000001b298       0x34 build/FreeRTOS/production/_ext/1005353002/sys_command.o

.rodata.CommandQuit.str1.4%622
                0x000000000001b2cc       0x34
 .rodata.CommandQuit.str1.4
                0x000000000001b2cc       0x34 build/FreeRTOS/production/_ext/1005353002/sys_command.o

.text.SYS_CONSOLE_Read%623
                0x000000000001b300       0x34
 .text.SYS_CONSOLE_Read
                0x000000000001b300       0x34 build/FreeRTOS/production/_ext/548640822/sys_console.o
                0x000000000001b300                SYS_CONSOLE_Read

.text.SYS_CONSOLE_ReadCountGet%624
                0x000000000001b334       0x34
 .text.SYS_CONSOLE_ReadCountGet
                0x000000000001b334       0x34 build/FreeRTOS/production/_ext/548640822/sys_console.o
                0x000000000001b334                SYS_CONSOLE_ReadCountGet

.text.SYS_CONSOLE_Write%625
                0x000000000001b368       0x34
 .text.SYS_CONSOLE_Write
                0x000000000001b368       0x34 build/FreeRTOS/production/_ext/548640822/sys_console.o
                0x000000000001b368                SYS_CONSOLE_Write

.text.Console_UART_WriteCountGet%626
                0x000000000001b39c       0x34
 .text.Console_UART_WriteCountGet
                0x000000000001b39c       0x34 build/FreeRTOS/production/_ext/548640822/sys_console_uart.o
                0x000000000001b39c                Console_UART_WriteCountGet

.text.Console_UART_WriteFreeBufferCountGet%627
                0x000000000001b3d0       0x34
 .text.Console_UART_WriteFreeBufferCountGet
                0x000000000001b3d0       0x34 build/FreeRTOS/production/_ext/548640822/sys_console_uart.o
                0x000000000001b3d0                Console_UART_WriteFreeBufferCountGet

.text.Console_UART_ReadFreeBufferCountGet%628
                0x000000000001b404       0x34
 .text.Console_UART_ReadFreeBufferCountGet
                0x000000000001b404       0x34 build/FreeRTOS/production/_ext/548640822/sys_console_uart.o
                0x000000000001b404                Console_UART_ReadFreeBufferCountGet

.text.Console_UART_ReadCountGet%629
                0x000000000001b438       0x34
 .text.Console_UART_ReadCountGet
                0x000000000001b438       0x34 build/FreeRTOS/production/_ext/548640822/sys_console_uart.o
                0x000000000001b438                Console_UART_ReadCountGet

.text.SYS_RANDOM_CryptoBlockGet%630
                0x000000000001b46c       0x34
 .text.SYS_RANDOM_CryptoBlockGet
                0x000000000001b46c       0x34 build/FreeRTOS/production/_ext/2072568807/sys_random_h2_adapter.o
                0x000000000001b46c                SYS_RANDOM_CryptoBlockGet

.rodata.drvSPI0InitData%631
                0x000000000001b4a0       0x34
 .rodata.drvSPI0InitData
                0x000000000001b4a0       0x34 build/FreeRTOS/production/_ext/161576091/initialization.o

.text.vListInsert%632
                0x000000000001b4d4       0x34
 .text.vListInsert
                0x000000000001b4d4       0x34 build/FreeRTOS/production/_ext/404212886/list.o
                0x000000000001b4d4                vListInsert

.text.vTaskDelay%633
                0x000000000001b508       0x34
 .text.vTaskDelay
                0x000000000001b508       0x34 build/FreeRTOS/production/_ext/404212886/FreeRTOS_tasks.o
                0x000000000001b508                vTaskDelay

.text.__pic32c_data_initialization%634
                0x000000000001b53c       0x34
 .text.__pic32c_data_initialization
                0x000000000001b53c       0x34 c:/program files/microchip/xc32/v4.45/bin/bin/../../lib/gcc/pic32c/8.3.1/../../../../pic32c/lib/thumb/v7e-m+fp/hard\libpic32c.a(data_init.o)
                0x000000000001b53c                __pic32c_data_initialization

.text.get_parity%635
                0x000000000001b570       0x32
 .text.get_parity
                0x000000000001b570       0x32 build/FreeRTOS/production/_ext/1785105562/tc6.o

.text.TCPIP_STACK_NetBiosNameSet%636
                0x000000000001b5a2       0x32
 .text.TCPIP_STACK_NetBiosNameSet
                0x000000000001b5a2       0x32 build/FreeRTOS/production/_ext/540595297/tcpip_manager.o
                0x000000000001b5a2                TCPIP_STACK_NetBiosNameSet

.text.__aeabi_dcmpeq%637
                0x000000000001b5d4       0x32
 .text.__aeabi_dcmpeq
                0x000000000001b5d4       0x32 c:/program files/microchip/xc32/v4.45/bin/bin/../../lib/gcc/pic32c/8.3.1/../../../../pic32c/lib/thumb/v7e-m+fp/hard\libm-fast-emfloat.a(__aeabi_dcmpeq.o)
                0x000000000001b5d4                __aeabi_dcmpeq

.text._OnClearStatus0%638
                0x000000000001b608       0x30
 .text._OnClearStatus0
                0x000000000001b608       0x30 build/FreeRTOS/production/_ext/585597058/drv_lan865x_api.o

.rodata.DRV_SPI_Initialize.str1.4%639
                0x000000000001b638       0x30
 .rodata.DRV_SPI_Initialize.str1.4
                0x000000000001b638       0x30 build/FreeRTOS/production/_ext/1348046844/drv_spi.o

.text.TCPIP_PKT_Initialize%640
                0x000000000001b668       0x30
 .text.TCPIP_PKT_Initialize
                0x000000000001b668       0x30 build/FreeRTOS/production/_ext/540595297/tcpip_packet.o
                0x000000000001b668                TCPIP_PKT_Initialize

.text._TCPIP_PKT_PacketAcknowledge%641
                0x000000000001b698       0x30
 .text._TCPIP_PKT_PacketAcknowledge
                0x000000000001b698       0x30 build/FreeRTOS/production/_ext/540595297/tcpip_packet.o
                0x000000000001b698                _TCPIP_PKT_PacketAcknowledge

.text.TCPIP_Helper_StringToPowerMode%642
                0x000000000001b6c8       0x30
 .text.TCPIP_Helper_StringToPowerMode
                0x000000000001b6c8       0x30 build/FreeRTOS/production/_ext/540595297/tcpip_helpers.o
                0x000000000001b6c8                TCPIP_Helper_StringToPowerMode

.text.TCPIP_Helper_ProtectedSingleListDeinitialize%643
                0x000000000001b6f8       0x30
 .text.TCPIP_Helper_ProtectedSingleListDeinitialize
                0x000000000001b6f8       0x30 build/FreeRTOS/production/_ext/540595297/tcpip_helpers.o
                0x000000000001b6f8                TCPIP_Helper_ProtectedSingleListDeinitialize

.text.TCPIP_Helper_ProtectedSingleListNodeRemove%644
                0x000000000001b728       0x30
 .text.TCPIP_Helper_ProtectedSingleListNodeRemove
                0x000000000001b728       0x30 build/FreeRTOS/production/_ext/540595297/tcpip_helpers.o
                0x000000000001b728                TCPIP_Helper_ProtectedSingleListNodeRemove

.rodata.iperfCmdTbl%645
                0x000000000001b758       0x30
 .rodata.iperfCmdTbl
                0x000000000001b758       0x30 build/FreeRTOS/production/_ext/540595297/iperf.o

.text._TCPSocketTxFreeSize%646
                0x000000000001b788       0x30
 .text._TCPSocketTxFreeSize
                0x000000000001b788       0x30 build/FreeRTOS/production/_ext/540595297/tcp.o

.text.TCPIP_UDP_Close%647
                0x000000000001b7b8       0x30
 .text.TCPIP_UDP_Close
                0x000000000001b7b8       0x30 build/FreeRTOS/production/_ext/540595297/udp.o
                0x000000000001b7b8                TCPIP_UDP_Close

.text.TCPIP_STACK_InitializeDataGet%648
                0x000000000001b7e8       0x30
 .text.TCPIP_STACK_InitializeDataGet
                0x000000000001b7e8       0x30 build/FreeRTOS/production/_ext/540595297/tcpip_manager.o
                0x000000000001b7e8                TCPIP_STACK_InitializeDataGet

.text.fnv_32_hash%649
                0x000000000001b818       0x30
 .text.fnv_32_hash
                0x000000000001b818       0x30 build/FreeRTOS/production/_ext/540595297/hash_fnv.o
                0x000000000001b818                fnv_32_hash

.text.TCPIP_ARP_HashEntryDelete%650
                0x000000000001b848       0x30
 .text.TCPIP_ARP_HashEntryDelete
                0x000000000001b848       0x30 build/FreeRTOS/production/_ext/540595297/arp.o
                0x000000000001b848                TCPIP_ARP_HashEntryDelete

.text.TCPIP_IPV4_CheckPktTx%651
                0x000000000001b878       0x30
 .text.TCPIP_IPV4_CheckPktTx
                0x000000000001b878       0x30 build/FreeRTOS/production/_ext/540595297/ipv4.o

.text.TCPIP_OAHASH_EntriesRemoveAll%652
                0x000000000001b8a8       0x30
 .text.TCPIP_OAHASH_EntriesRemoveAll
                0x000000000001b8a8       0x30 build/FreeRTOS/production/_ext/540595297/oahash.o
                0x000000000001b8a8                TCPIP_OAHASH_EntriesRemoveAll

.text.SendCommandCharacter%653
                0x000000000001b8d8       0x30
 .text.SendCommandCharacter
                0x000000000001b8d8       0x30 build/FreeRTOS/production/_ext/1005353002/sys_command.o

.text.lkeyEndProcess%654
                0x000000000001b908       0x30
 .text.lkeyEndProcess
                0x000000000001b908       0x30 build/FreeRTOS/production/_ext/1005353002/sys_command.o

.text.lkeyHomeProcess%655
                0x000000000001b938       0x30
 .text.lkeyHomeProcess
                0x000000000001b938       0x30 build/FreeRTOS/production/_ext/1005353002/sys_command.o

.text.SYS_CONSOLE_Message%656
                0x000000000001b968       0x30
 .text.SYS_CONSOLE_Message
                0x000000000001b968       0x30 build/FreeRTOS/production/_ext/548640822/sys_console.o
                0x000000000001b968                SYS_CONSOLE_Message

.text.SYS_TIME_UpdateTimerList%657
                0x000000000001b998       0x30
 .text.SYS_TIME_UpdateTimerList
                0x000000000001b998       0x30 build/FreeRTOS/production/_ext/832704728/sys_time.o

.text.SYS_TIME_Counter64Get%658
                0x000000000001b9c8       0x30
 .text.SYS_TIME_Counter64Get
                0x000000000001b9c8       0x30 build/FreeRTOS/production/_ext/832704728/sys_time.o
                0x000000000001b9c8                SYS_TIME_Counter64Get

.text._SYS_RANDOM_CryptoLock%659
                0x000000000001b9f8       0x30
 .text._SYS_RANDOM_CryptoLock
                0x000000000001b9f8       0x30 build/FreeRTOS/production/_ext/2072568807/sys_random_h2_adapter.o

.rodata.SYS_Tasks.str1.4%660
                0x000000000001ba28       0x30
 .rodata.SYS_Tasks.str1.4
                0x000000000001ba28       0x30 build/FreeRTOS/production/_ext/161576091/tasks.o

.rodata.seedA_data%661
                0x000000000001ba58       0x30
 .rodata.seedA_data
                0x000000000001ba58       0x30 build/FreeRTOS/production/_ext/1664057780/random.o
                0x000000000001ba58                seedA_data

.rodata.seedB_data%662
                0x000000000001ba88       0x30
 .rodata.seedB_data
                0x000000000001ba88       0x30 build/FreeRTOS/production/_ext/1664057780/random.o
                0x000000000001ba88                seedB_data

.text.wc_CryptoCb_FindDevice%663
                0x000000000001bab8       0x30
 .text.wc_CryptoCb_FindDevice
                0x000000000001bab8       0x30 build/FreeRTOS/production/_ext/1664057780/cryptocb.o

.text%664       0x000000000001bae8       0x30
 .text          0x000000000001bae8       0x30 c:/program files/microchip/xc32/v4.45/bin/bin/../../lib/gcc/pic32c/8.3.1/thumb/v7e-m+fp/hard\libgcc.a(_aeabi_uldivmod.o)
                0x000000000001bae8                __aeabi_uldivmod

.text._sbrk_init%665
                0x000000000001bb18       0x30
 .text._sbrk_init
                0x000000000001bb18       0x30 c:/program files/microchip/xc32/v4.45/bin/bin/../../lib/gcc/pic32c/8.3.1/../../../../pic32c/lib/thumb/v7e-m+fp/hard\libpic32c.a(sbrk.o)

.text.DRV_LAN865X_StackInitialize%666
                0x000000000001bb48       0x2e
 .text.DRV_LAN865X_StackInitialize
                0x000000000001bb48       0x2e build/FreeRTOS/production/_ext/585597058/drv_lan865x_api.o
                0x000000000001bb48                DRV_LAN865X_StackInitialize

.text.TCPIP_TCP_Connect%667
                0x000000000001bb76       0x2e
 .text.TCPIP_TCP_Connect
                0x000000000001bb76       0x2e build/FreeRTOS/production/_ext/540595297/tcp.o
                0x000000000001bb76                TCPIP_TCP_Connect

.text._TxSktGetLockedV4Pkt%668
                0x000000000001bba4       0x2e
 .text._TxSktGetLockedV4Pkt
                0x000000000001bba4       0x2e build/FreeRTOS/production/_ext/540595297/udp.o

.text._UDPFreeTxResources%669
                0x000000000001bbd2       0x2e
 .text._UDPFreeTxResources
                0x000000000001bbd2       0x2e build/FreeRTOS/production/_ext/540595297/udp.o

.text.TCPIP_STACK_DNSServiceCanStart%670
                0x000000000001bc00       0x2e
 .text.TCPIP_STACK_DNSServiceCanStart
                0x000000000001bc00       0x2e build/FreeRTOS/production/_ext/540595297/tcpip_manager.o
                0x000000000001bc00                TCPIP_STACK_DNSServiceCanStart

.text._DNS_CleanCacheEntry%671
                0x000000000001bc2e       0x2e
 .text._DNS_CleanCacheEntry
                0x000000000001bc2e       0x2e build/FreeRTOS/production/_ext/540595297/dns.o

.text._DNSClientCleanup%672
                0x000000000001bc5c       0x2e
 .text._DNSClientCleanup
                0x000000000001bc5c       0x2e build/FreeRTOS/production/_ext/540595297/dns.o

.text.wc_CryptoCb_RegisterDevice%673
                0x000000000001bc8a       0x2e
 .text.wc_CryptoCb_RegisterDevice
                0x000000000001bc8a       0x2e build/FreeRTOS/production/_ext/1664057780/cryptocb.o
                0x000000000001bc8a                wc_CryptoCb_RegisterDevice

.text._OnConfigRead%674
                0x000000000001bcb8       0x2c
 .text._OnConfigRead
                0x000000000001bcb8       0x2c build/FreeRTOS/production/_ext/585597058/drv_lan865x_api.o

.text._TCPIP_PKT_SocketAlloc%675
                0x000000000001bce4       0x2c
 .text._TCPIP_PKT_SocketAlloc
                0x000000000001bce4       0x2c build/FreeRTOS/production/_ext/540595297/tcpip_packet.o
                0x000000000001bce4                _TCPIP_PKT_SocketAlloc

.text.TCPIP_Helper_ProtectedSingleListHeadRemove%676
                0x000000000001bd10       0x2c
 .text.TCPIP_Helper_ProtectedSingleListHeadRemove
                0x000000000001bd10       0x2c build/FreeRTOS/production/_ext/540595297/tcpip_helpers.o
                0x000000000001bd10                TCPIP_Helper_ProtectedSingleListHeadRemove

.text.TCPIP_STACK_IsBcastAddress%677
                0x000000000001bd3c       0x2c
 .text.TCPIP_STACK_IsBcastAddress
                0x000000000001bd3c       0x2c build/FreeRTOS/production/_ext/540595297/tcpip_manager.o
                0x000000000001bd3c                TCPIP_STACK_IsBcastAddress

.text._TCPIPStackModuleRxExtract%678
                0x000000000001bd68       0x2c
 .text._TCPIPStackModuleRxExtract
                0x000000000001bd68       0x2c build/FreeRTOS/production/_ext/540595297/tcpip_manager.o
                0x000000000001bd68                _TCPIPStackModuleRxExtract

.text._ARPRemoveEntry%679
                0x000000000001bd94       0x2c
 .text._ARPRemoveEntry
                0x000000000001bd94       0x2c build/FreeRTOS/production/_ext/540595297/arp.o

.text.TC0_TimerInterruptHandler%680
                0x000000000001bdc0       0x2c
 .text.TC0_TimerInterruptHandler
                0x000000000001bdc0       0x2c build/FreeRTOS/production/_ext/579449528/plib_tc0.o
                0x000000000001bdc0                TC0_TimerInterruptHandler

.rodata.sysConsoleUARTDevDesc%681
                0x000000000001bdec       0x2c
 .rodata.sysConsoleUARTDevDesc
                0x000000000001bdec       0x2c build/FreeRTOS/production/_ext/548640822/sys_console_uart.o
                0x000000000001bdec                sysConsoleUARTDevDesc

.text.SYS_RANDOM_CryptoGet%682
                0x000000000001be18       0x2c
 .text.SYS_RANDOM_CryptoGet
                0x000000000001be18       0x2c build/FreeRTOS/production/_ext/2072568807/sys_random_h2_adapter.o
                0x000000000001be18                SYS_RANDOM_CryptoGet

.text.TCPIP_STACK_Init%683
                0x000000000001be44       0x2c
 .text.TCPIP_STACK_Init
                0x000000000001be44       0x2c build/FreeRTOS/production/_ext/161576091/initialization.o
                0x000000000001be44                TCPIP_STACK_Init

.text.pxPortInitialiseStack%684
                0x000000000001be70       0x2c
 .text.pxPortInitialiseStack
                0x000000000001be70       0x2c build/FreeRTOS/production/_ext/246609638/port.o
                0x000000000001be70                pxPortInitialiseStack

.text.xPortSysTickHandler%685
                0x000000000001be9c       0x2c
 .text.xPortSysTickHandler
                0x000000000001be9c       0x2c build/FreeRTOS/production/_ext/246609638/port.o
                0x000000000001be9c                xPortSysTickHandler

.text.wc_RNG_HealthTest%686
                0x000000000001bec8       0x2c
 .text.wc_RNG_HealthTest
                0x000000000001bec8       0x2c build/FreeRTOS/production/_ext/1664057780/random.o
                0x000000000001bec8                wc_RNG_HealthTest

.text.fma%687   0x000000000001bef4       0x2c
 .text.fma      0x000000000001bef4       0x2c c:/program files/microchip/xc32/v4.45/bin/bin/../../lib/gcc/pic32c/8.3.1/../../../../pic32c/lib/thumb/v7e-m+fp/hard\libm-fast-emfloat.a(fma.o)
                0x000000000001bef4                fma

.text._sbrk%688
                0x000000000001bf20       0x2c
 .text._sbrk    0x000000000001bf20       0x2c c:/program files/microchip/xc32/v4.45/bin/bin/../../lib/gcc/pic32c/8.3.1/../../../../pic32c/lib/thumb/v7e-m+fp/hard\libpic32c.a(sbrk.o)
                0x000000000001bf20                _sbrk

.text._TxDone%689
                0x000000000001bf4c       0x2a
 .text._TxDone  0x000000000001bf4c       0x2a build/FreeRTOS/production/_ext/585597058/drv_lan865x_api.o

.text.DRV_SPI_TransferSetup%690
                0x000000000001bf76       0x2a
 .text.DRV_SPI_TransferSetup
                0x000000000001bf76       0x2a build/FreeRTOS/production/_ext/1348046844/drv_spi.o
                0x000000000001bf76                DRV_SPI_TransferSetup

.text.TCPIP_Helper_ProtectedSingleListTailAdd%691
                0x000000000001bfa0       0x2a
 .text.TCPIP_Helper_ProtectedSingleListTailAdd
                0x000000000001bfa0       0x2a build/FreeRTOS/production/_ext/540595297/tcpip_helpers.o
                0x000000000001bfa0                TCPIP_Helper_ProtectedSingleListTailAdd

.text.TCPIP_Helper_ProtectedSingleListRemoveAll%692
                0x000000000001bfca       0x2a
 .text.TCPIP_Helper_ProtectedSingleListRemoveAll
                0x000000000001bfca       0x2a build/FreeRTOS/production/_ext/540595297/tcpip_helpers.o
                0x000000000001bfca                TCPIP_Helper_ProtectedSingleListRemoveAll

.text.TCPIP_Notification_Add%693
                0x000000000001bff4       0x2a
 .text.TCPIP_Notification_Add
                0x000000000001bff4       0x2a build/FreeRTOS/production/_ext/540595297/tcpip_notify.o
                0x000000000001bff4                TCPIP_Notification_Add

.text.TCPIP_TCP_WasReset%694
                0x000000000001c01e       0x2a
 .text.TCPIP_TCP_WasReset
                0x000000000001c01e       0x2a build/FreeRTOS/production/_ext/540595297/tcp.o
                0x000000000001c01e                TCPIP_TCP_WasReset

.text.TCPIP_DNS_OAHASH_KeyCopy%695
                0x000000000001c048       0x2a
 .text.TCPIP_DNS_OAHASH_KeyCopy
                0x000000000001c048       0x2a build/FreeRTOS/production/_ext/540595297/dns.o

.text.__pop_float%696
                0x000000000001c072       0x2a
 .text.__pop_float
                0x000000000001c072       0x2a c:/program files/microchip/xc32/v4.45/bin/bin/../../lib/gcc/pic32c/8.3.1/../../../../pic32c/lib/thumb/v7e-m+fp/hard\libc-musl.a(__pop_float.o)
                0x000000000001c072                __pop_float_needed
                0x000000000001c072                __pop_float

.text.DRV_LAN865X_ParametersGet%697
                0x000000000001c09c       0x28
 .text.DRV_LAN865X_ParametersGet
                0x000000000001c09c       0x28 build/FreeRTOS/production/_ext/585597058/drv_lan865x_api.o
                0x000000000001c09c                DRV_LAN865X_ParametersGet

.rodata%698     0x000000000001c0c4       0x28
 .rodata        0x000000000001c0c4       0x28 build/FreeRTOS/production/_ext/540595297/tcpip_commands.o

.text._TcpSocketChk%699
                0x000000000001c0ec       0x28
 .text._TcpSocketChk
                0x000000000001c0ec       0x28 build/FreeRTOS/production/_ext/540595297/tcp.o

.text._TcpFlush%700
                0x000000000001c114       0x28
 .text._TcpFlush
                0x000000000001c114       0x28 build/FreeRTOS/production/_ext/540595297/tcp.o

.text._UDPSocketDcpt%701
                0x000000000001c13c       0x28
 .text._UDPSocketDcpt
                0x000000000001c13c       0x28 build/FreeRTOS/production/_ext/540595297/udp.o

.text._UDPUpdatePacketLock%702
                0x000000000001c164       0x28
 .text._UDPUpdatePacketLock
                0x000000000001c164       0x28 build/FreeRTOS/production/_ext/540595297/udp.o

.text.TCPIP_UDP_GetIsReady%703
                0x000000000001c18c       0x28
 .text.TCPIP_UDP_GetIsReady
                0x000000000001c18c       0x28 build/FreeRTOS/production/_ext/540595297/udp.o
                0x000000000001c18c                TCPIP_UDP_GetIsReady

.text._TCPIP_STACK_TickHandler%704
                0x000000000001c1b4       0x28
 .text._TCPIP_STACK_TickHandler
                0x000000000001c1b4       0x28 build/FreeRTOS/production/_ext/540595297/tcpip_manager.o

.text._TCPIPSignalEntrySetNotify%705
                0x000000000001c1dc       0x28
 .text._TCPIPSignalEntrySetNotify
                0x000000000001c1dc       0x28 build/FreeRTOS/production/_ext/540595297/tcpip_manager.o

.text.TCPIP_STACK_NetMACStatisticsGet%706
                0x000000000001c204       0x28
 .text.TCPIP_STACK_NetMACStatisticsGet
                0x000000000001c204       0x28 build/FreeRTOS/production/_ext/540595297/tcpip_manager.o
                0x000000000001c204                TCPIP_STACK_NetMACStatisticsGet

.text.TCPIP_STACK_NetMACRegisterStatisticsGet%707
                0x000000000001c22c       0x28
 .text.TCPIP_STACK_NetMACRegisterStatisticsGet
                0x000000000001c22c       0x28 build/FreeRTOS/production/_ext/540595297/tcpip_manager.o
                0x000000000001c22c                TCPIP_STACK_NetMACRegisterStatisticsGet

.text.TCPIP_STACK_NetIsBcastAddress%708
                0x000000000001c254       0x28
 .text.TCPIP_STACK_NetIsBcastAddress
                0x000000000001c254       0x28 build/FreeRTOS/production/_ext/540595297/tcpip_manager.o
                0x000000000001c254                TCPIP_STACK_NetIsBcastAddress

.text._TCPIPStackSignalHandlerSetParams%709
                0x000000000001c27c       0x28
 .text._TCPIPStackSignalHandlerSetParams
                0x000000000001c27c       0x28 build/FreeRTOS/production/_ext/540595297/tcpip_manager.o
                0x000000000001c27c                _TCPIPStackSignalHandlerSetParams

.rodata.TCPIP_STACK_Initialize.str1.4%710
                0x000000000001c2a4       0x28
 .rodata.TCPIP_STACK_Initialize.str1.4
                0x000000000001c2a4       0x28 build/FreeRTOS/production/_ext/540595297/tcpip_manager.o

.text._ARPRemoveCacheEntries%711
                0x000000000001c2cc       0x28
 .text._ARPRemoveCacheEntries
                0x000000000001c2cc       0x28 build/FreeRTOS/production/_ext/540595297/arp.o

.text.TCPIP_ICMP_Deinitialize%712
                0x000000000001c2f4       0x28
 .text.TCPIP_ICMP_Deinitialize
                0x000000000001c2f4       0x28 build/FreeRTOS/production/_ext/540595297/icmp.o
                0x000000000001c2f4                TCPIP_ICMP_Deinitialize

.rodata.TCPIP_IPV4_Initialize.str1.4%713
                0x000000000001c31c       0x28
 .rodata.TCPIP_IPV4_Initialize.str1.4
                0x000000000001c31c       0x28 build/FreeRTOS/production/_ext/540595297/ipv4.o

.text.DMAC_ChannelSettingsSet%714
                0x000000000001c344       0x28
 .text.DMAC_ChannelSettingsSet
                0x000000000001c344       0x28 build/FreeRTOS/production/_ext/1495216012/plib_dmac.o
                0x000000000001c344                DMAC_ChannelSettingsSet

.text.TC0_Timer16bitCounterGet%715
                0x000000000001c36c       0x28
 .text.TC0_Timer16bitCounterGet
                0x000000000001c36c       0x28 build/FreeRTOS/production/_ext/579449528/plib_tc0.o
                0x000000000001c36c                TC0_Timer16bitCounterGet

.text.SYS_CMD_Initialize%716
                0x000000000001c394       0x28
 .text.SYS_CMD_Initialize
                0x000000000001c394       0x28 build/FreeRTOS/production/_ext/1005353002/sys_command.o
                0x000000000001c394                SYS_CMD_Initialize

.text.Console_UART_Initialize%717
                0x000000000001c3bc       0x28
 .text.Console_UART_Initialize
                0x000000000001c3bc       0x28 build/FreeRTOS/production/_ext/548640822/sys_console_uart.o
                0x000000000001c3bc                Console_UART_Initialize

.text.SYS_TIME_ResourceUnlock%718
                0x000000000001c3e4       0x28
 .text.SYS_TIME_ResourceUnlock
                0x000000000001c3e4       0x28 build/FreeRTOS/production/_ext/832704728/sys_time.o

.text.SYS_TMR_TickCountGet%719
                0x000000000001c40c       0x28
 .text.SYS_TMR_TickCountGet
                0x000000000001c40c       0x28 build/FreeRTOS/production/_ext/2072568807/sys_time_h2_adapter.o
                0x000000000001c40c                SYS_TMR_TickCountGet

.text.SYS_TMR_TickCountGetLong%720
                0x000000000001c434       0x28
 .text.SYS_TMR_TickCountGetLong
                0x000000000001c434       0x28 build/FreeRTOS/production/_ext/2072568807/sys_time_h2_adapter.o
                0x000000000001c434                SYS_TMR_TickCountGetLong

.text.SYS_TMR_TickCounterFrequencyGet%721
                0x000000000001c45c       0x28
 .text.SYS_TMR_TickCounterFrequencyGet
                0x000000000001c45c       0x28 build/FreeRTOS/production/_ext/2072568807/sys_time_h2_adapter.o
                0x000000000001c45c                SYS_TMR_TickCounterFrequencyGet

.rodata.drvSPI0remapDataBits%722
                0x000000000001c484       0x28
 .rodata.drvSPI0remapDataBits
                0x000000000001c484       0x28 build/FreeRTOS/production/_ext/161576091/initialization.o

.rodata.tcpipARPInitData%723
                0x000000000001c4ac       0x28
 .rodata.tcpipARPInitData
                0x000000000001c4ac       0x28 build/FreeRTOS/production/_ext/161576091/initialization.o
                0x000000000001c4ac                tcpipARPInitData

.text.prvPortStartFirstTask%724
                0x000000000001c4d4       0x28
 .text.prvPortStartFirstTask
                0x000000000001c4d4       0x28 build/FreeRTOS/production/_ext/246609638/port.o

.text.vPortSetupTimerInterrupt%725
                0x000000000001c4fc       0x28
 .text.vPortSetupTimerInterrupt
                0x000000000001c4fc       0x28 build/FreeRTOS/production/_ext/246609638/port.o
                0x000000000001c4fc                vPortSetupTimerInterrupt

.text.prvResetNextTaskUnblockTime%726
                0x000000000001c524       0x28
 .text.prvResetNextTaskUnblockTime
                0x000000000001c524       0x28 build/FreeRTOS/production/_ext/404212886/FreeRTOS_tasks.o

.text.strncmp%727
                0x000000000001c54c       0x28
 .text.strncmp  0x000000000001c54c       0x28 c:/program files/microchip/xc32/v4.45/bin/bin/../../lib/gcc/pic32c/8.3.1/../../../../pic32c/lib/thumb/v7e-m+fp/hard\libc-size-musl.a(strncmp.o)
                0x000000000001c54c                strncmp

.text.__uflow%728
                0x000000000001c574       0x28
 .text.__uflow  0x000000000001c574       0x28 c:/program files/microchip/xc32/v4.45/bin/bin/../../lib/gcc/pic32c/8.3.1/../../../../pic32c/lib/thumb/v7e-m+fp/hard\libc-musl.a(__uflow.o)
                0x000000000001c574                __uflow

.text.__string_out%729
                0x000000000001c59c       0x28
 .text.__string_out
                0x000000000001c59c       0x28 c:/program files/microchip/xc32/v4.45/bin/bin/../../lib/gcc/pic32c/8.3.1/../../../../pic32c/lib/thumb/v7e-m+fp/hard\libc-musl.a(__printf_core.o)
                0x000000000001c59c                __out

.text.TCPIP_Helper_SingleListNextRemove%730
                0x000000000001c5c4       0x26
 .text.TCPIP_Helper_SingleListNextRemove
                0x000000000001c5c4       0x26 build/FreeRTOS/production/_ext/540595297/tcpip_helpers.o
                0x000000000001c5c4                TCPIP_Helper_SingleListNextRemove

.text.TCPIP_TCP_IsConnected%731
                0x000000000001c5ea       0x26
 .text.TCPIP_TCP_IsConnected
                0x000000000001c5ea       0x26 build/FreeRTOS/production/_ext/540595297/tcp.o
                0x000000000001c5ea                TCPIP_TCP_IsConnected

.text.TCPIP_TCP_Flush%732
                0x000000000001c610       0x26
 .text.TCPIP_TCP_Flush
                0x000000000001c610       0x26 build/FreeRTOS/production/_ext/540595297/tcp.o
                0x000000000001c610                TCPIP_TCP_Flush

.text.TCPIP_TCP_Discard%733
                0x000000000001c636       0x26
 .text.TCPIP_TCP_Discard
                0x000000000001c636       0x26 build/FreeRTOS/production/_ext/540595297/tcp.o
                0x000000000001c636                TCPIP_TCP_Discard

.text.TCPIP_STACK_DNSServiceSelect%734
                0x000000000001c65c       0x26
 .text.TCPIP_STACK_DNSServiceSelect
                0x000000000001c65c       0x26 build/FreeRTOS/production/_ext/540595297/tcpip_manager.o
                0x000000000001c65c                TCPIP_STACK_DNSServiceSelect

.text.TCPIP_OAHASH_Initialize%735
                0x000000000001c682       0x26
 .text.TCPIP_OAHASH_Initialize
                0x000000000001c682       0x26 build/FreeRTOS/production/_ext/540595297/oahash.o
                0x000000000001c682                TCPIP_OAHASH_Initialize

.text.xQueueCreateCountingSemaphore%736
                0x000000000001c6a8       0x26
 .text.xQueueCreateCountingSemaphore
                0x000000000001c6a8       0x26 build/FreeRTOS/production/_ext/404212886/queue.o
                0x000000000001c6a8                xQueueCreateCountingSemaphore

.rodata._tcpip_heap_object%737
                0x000000000001c6d0       0x24
 .rodata._tcpip_heap_object
                0x000000000001c6d0       0x24 build/FreeRTOS/production/_ext/540595297/tcpip_heap_internal.o

.text.TCPIP_STACK_IPAddToNet%738
                0x000000000001c6f4       0x24
 .text.TCPIP_STACK_IPAddToNet
                0x000000000001c6f4       0x24 build/FreeRTOS/production/_ext/540595297/tcpip_manager.o
                0x000000000001c6f4                TCPIP_STACK_IPAddToNet

.text._ARPAllocateTxPacket%739
                0x000000000001c718       0x24
 .text._ARPAllocateTxPacket
                0x000000000001c718       0x24 build/FreeRTOS/production/_ext/540595297/arp.o

.text.TCPIP_ARP_HandlerDeRegister%740
                0x000000000001c73c       0x24
 .text.TCPIP_ARP_HandlerDeRegister
                0x000000000001c73c       0x24 build/FreeRTOS/production/_ext/540595297/arp.o
                0x000000000001c73c                TCPIP_ARP_HandlerDeRegister

.rodata.builtinCmdTbl%741
                0x000000000001c760       0x24
 .rodata.builtinCmdTbl
                0x000000000001c760       0x24 build/FreeRTOS/production/_ext/1005353002/sys_command.o

.text.SYS_RESET_SoftwareReset%742
                0x000000000001c784       0x24
 .text.SYS_RESET_SoftwareReset
                0x000000000001c784       0x24 build/FreeRTOS/production/_ext/1093154855/sys_reset.o
                0x000000000001c784                SYS_RESET_SoftwareReset

.text.vPortSVCHandler%743
                0x000000000001c7b0       0x24
 .text.vPortSVCHandler
                0x000000000001c7b0       0x24 build/FreeRTOS/production/_ext/246609638/port.o
                0x000000000001c7b0                vPortSVCHandler

.text.uxListRemove%744
                0x000000000001c7d4       0x24
 .text.uxListRemove
                0x000000000001c7d4       0x24 build/FreeRTOS/production/_ext/404212886/list.o
                0x000000000001c7d4                uxListRemove

.text.xQueueCreateMutex%745
                0x000000000001c7f8       0x24
 .text.xQueueCreateMutex
                0x000000000001c7f8       0x24 build/FreeRTOS/production/_ext/404212886/queue.o
                0x000000000001c7f8                xQueueCreateMutex

.text.__aeabi_d2uiz%746
                0x000000000001c81c       0x24
 .text.__aeabi_d2uiz
                0x000000000001c81c       0x24 c:/program files/microchip/xc32/v4.45/bin/bin/../../lib/gcc/pic32c/8.3.1/../../../../pic32c/lib/thumb/v7e-m+fp/hard\libm-fast-emfloat.a(__aeabi_d2uiz.o)
                0x000000000001c81c                __aeabi_d2uiz

.text._OnPlcaStatus%747
                0x000000000001c840       0x22
 .text._OnPlcaStatus
                0x000000000001c840       0x22 build/FreeRTOS/production/_ext/585597058/drv_lan865x_api.o

.text._RxPacketAck%748
                0x000000000001c862       0x22
 .text._RxPacketAck
                0x000000000001c862       0x22 build/FreeRTOS/production/_ext/585597058/drv_lan865x_api.o

.text.TCPIP_Helper_ProtectedSingleListInitialize%749
                0x000000000001c884       0x22
 .text.TCPIP_Helper_ProtectedSingleListInitialize
                0x000000000001c884       0x22 build/FreeRTOS/production/_ext/540595297/tcpip_helpers.o
                0x000000000001c884                TCPIP_Helper_ProtectedSingleListInitialize

.text._UDPFreeRxQueue%750
                0x000000000001c8a6       0x22
 .text._UDPFreeRxQueue
                0x000000000001c8a6       0x22 build/FreeRTOS/production/_ext/540595297/udp.o

.text.TCPIP_UDP_Discard%751
                0x000000000001c8c8       0x22
 .text.TCPIP_UDP_Discard
                0x000000000001c8c8       0x22 build/FreeRTOS/production/_ext/540595297/udp.o
                0x000000000001c8c8                TCPIP_UDP_Discard

.text.TCPIP_STACK_NetAddressMacSet%752
                0x000000000001c8ea       0x22
 .text.TCPIP_STACK_NetAddressMacSet
                0x000000000001c8ea       0x22 build/FreeRTOS/production/_ext/540595297/tcpip_manager.o
                0x000000000001c8ea                TCPIP_STACK_NetAddressMacSet

.text.__aeabi_i2d%753
                0x000000000001c90c       0x22
 .text.__aeabi_i2d
                0x000000000001c90c       0x22 c:/program files/microchip/xc32/v4.45/bin/bin/../../lib/gcc/pic32c/8.3.1/../../../../pic32c/lib/thumb/v7e-m+fp/hard\libm-fast-emfloat.a(__aeabi_i2d.o)
                0x000000000001c90c                __aeabi_i2d

.text.TC6_WriteRegister%754
                0x000000000001c92e       0x20
 .text.TC6_WriteRegister
                0x000000000001c92e       0x20 build/FreeRTOS/production/_ext/1785105562/tc6.o
                0x000000000001c92e                TC6_WriteRegister

.rodata._TCPIP_PKT_PacketAcknowledge.str1.4%755
                0x000000000001c950       0x20
 .rodata._TCPIP_PKT_PacketAcknowledge.str1.4
                0x000000000001c950       0x20 build/FreeRTOS/production/_ext/540595297/tcpip_packet.o

.text.TCPIP_Helper_ProtectedSingleListLock%756
                0x000000000001c970       0x20
 .text.TCPIP_Helper_ProtectedSingleListLock
                0x000000000001c970       0x20 build/FreeRTOS/production/_ext/540595297/tcpip_helpers.o
                0x000000000001c970                TCPIP_Helper_ProtectedSingleListLock

.rodata.TCPIP_Helper_MACAddressToString.str1.4%757
                0x000000000001c990       0x20
 .rodata.TCPIP_Helper_MACAddressToString.str1.4
                0x000000000001c990       0x20 build/FreeRTOS/production/_ext/540595297/tcpip_helpers.o

.rodata.TCPIP_MAC_POWER_TBL%758
                0x000000000001c9b0       0x20
 .rodata.TCPIP_MAC_POWER_TBL
                0x000000000001c9b0       0x20 build/FreeRTOS/production/_ext/540595297/tcpip_helpers.o

.text.TCPIP_Notification_Remove%759
                0x000000000001c9d0       0x20
 .text.TCPIP_Notification_Remove
                0x000000000001c9d0       0x20 build/FreeRTOS/production/_ext/540595297/tcpip_notify.o
                0x000000000001c9d0                TCPIP_Notification_Remove

.text.TCPIP_UDP_DestinationPortSet%760
                0x000000000001c9f0       0x20
 .text.TCPIP_UDP_DestinationPortSet
                0x000000000001c9f0       0x20 build/FreeRTOS/production/_ext/540595297/udp.o
                0x000000000001c9f0                TCPIP_UDP_DestinationPortSet

.text.TCPIP_STACK_NetDefaultSet%761
                0x000000000001ca10       0x20
 .text.TCPIP_STACK_NetDefaultSet
                0x000000000001ca10       0x20 build/FreeRTOS/production/_ext/540595297/tcpip_manager.o
                0x000000000001ca10                TCPIP_STACK_NetDefaultSet

.text.TCPIP_STACK_IndexToNet%762
                0x000000000001ca30       0x20
 .text.TCPIP_STACK_IndexToNet
                0x000000000001ca30       0x20 build/FreeRTOS/production/_ext/540595297/tcpip_manager.o
                0x000000000001ca30                TCPIP_STACK_IndexToNet

.text._TCPIPStackHandleToNetLinked%763
                0x000000000001ca50       0x20
 .text._TCPIPStackHandleToNetLinked
                0x000000000001ca50       0x20 build/FreeRTOS/production/_ext/540595297/tcpip_manager.o
                0x000000000001ca50                _TCPIPStackHandleToNetLinked

.rodata.TCPIP_FRAME_PROCESS_TBL%764
                0x000000000001ca70       0x20
 .rodata.TCPIP_FRAME_PROCESS_TBL
                0x000000000001ca70       0x20 build/FreeRTOS/production/_ext/540595297/tcpip_manager.o

.text._SwapARPPacket%765
                0x000000000001ca90       0x20
 .text._SwapARPPacket
                0x000000000001ca90       0x20 build/FreeRTOS/production/_ext/540595297/arp.o

.text._ARPTxAckFnc%766
                0x000000000001cab0       0x20
 .text._ARPTxAckFnc
                0x000000000001cab0       0x20 build/FreeRTOS/production/_ext/540595297/arp.o

.text.TCPIP_DNS_OAHASH_KeyHash%767
                0x000000000001cad0       0x20
 .text.TCPIP_DNS_OAHASH_KeyHash
                0x000000000001cad0       0x20 build/FreeRTOS/production/_ext/540595297/dns.o

.text.lkeyRightProcess%768
                0x000000000001caf0       0x20
 .text.lkeyRightProcess
                0x000000000001caf0       0x20 build/FreeRTOS/production/_ext/1005353002/sys_command.o

.text.GetCommandCharacter%769
                0x000000000001cb10       0x20
 .text.GetCommandCharacter
                0x000000000001cb10       0x20 build/FreeRTOS/production/_ext/1005353002/sys_command.o

.text.SYS_INT_SourceRestore%770
                0x000000000001cb30       0x20
 .text.SYS_INT_SourceRestore
                0x000000000001cb30       0x20 build/FreeRTOS/production/_ext/1690414130/sys_int.o
                0x000000000001cb30                SYS_INT_SourceRestore

.text.prvTaskExitError%771
                0x000000000001cb50       0x20
 .text.prvTaskExitError
                0x000000000001cb50       0x20 build/FreeRTOS/production/_ext/246609638/port.o

.text.vPortEnterCritical%772
                0x000000000001cb70       0x20
 .text.vPortEnterCritical
                0x000000000001cb70       0x20 build/FreeRTOS/production/_ext/246609638/port.o
                0x000000000001cb70                vPortEnterCritical

.rodata.reseedSeedA_data%773
                0x000000000001cb90       0x20
 .rodata.reseedSeedA_data
                0x000000000001cb90       0x20 build/FreeRTOS/production/_ext/1664057780/random.o
                0x000000000001cb90                reseedSeedA_data

.text._get_heap_left_space%774
                0x000000000001cbb0       0x20
 .text._get_heap_left_space
                0x000000000001cbb0       0x20 c:/program files/microchip/xc32/v4.45/bin/bin/../../lib/gcc/pic32c/8.3.1/../../../../pic32c/lib/thumb/v7e-m+fp/hard\libpic32c.a(sbrk.o)
                0x000000000001cbb0                _get_heap_left_space

.text.TCPIP_PKT_PayloadLen%775
                0x000000000001cbd0       0x1e
 .text.TCPIP_PKT_PayloadLen
                0x000000000001cbd0       0x1e build/FreeRTOS/production/_ext/540595297/tcpip_packet.o
                0x000000000001cbd0                TCPIP_PKT_PayloadLen

.text._TCPIsGetReady%776
                0x000000000001cbee       0x1e
 .text._TCPIsGetReady
                0x000000000001cbee       0x1e build/FreeRTOS/production/_ext/540595297/tcp.o

.text.TCPIP_STACK_NetAddressBcast%777
                0x000000000001cc0c       0x1e
 .text.TCPIP_STACK_NetAddressBcast
                0x000000000001cc0c       0x1e build/FreeRTOS/production/_ext/540595297/tcpip_manager.o
                0x000000000001cc0c                TCPIP_STACK_NetAddressBcast

.text.TCPIP_STACK_NetAddress%778
                0x000000000001cc2a       0x1e
 .text.TCPIP_STACK_NetAddress
                0x000000000001cc2a       0x1e build/FreeRTOS/production/_ext/540595297/tcpip_manager.o
                0x000000000001cc2a                TCPIP_STACK_NetAddress

.text.TCPIP_STACK_NetworkIsLinked%779
                0x000000000001cc48       0x1e
 .text.TCPIP_STACK_NetworkIsLinked
                0x000000000001cc48       0x1e build/FreeRTOS/production/_ext/540595297/tcpip_manager.o
                0x000000000001cc48                TCPIP_STACK_NetworkIsLinked

.text.OSAL_SEM_Pend%780
                0x000000000001cc66       0x1e
 .text.OSAL_SEM_Pend
                0x000000000001cc66       0x1e build/FreeRTOS/production/_ext/891571577/osal_freertos.o
                0x000000000001cc66                OSAL_SEM_Pend

.text.OSAL_MUTEX_Lock%781
                0x000000000001cc84       0x1e
 .text.OSAL_MUTEX_Lock
                0x000000000001cc84       0x1e build/FreeRTOS/production/_ext/891571577/osal_freertos.o
                0x000000000001cc84                OSAL_MUTEX_Lock

.text.lkeyUpProcess%782
                0x000000000001cca2       0x1e
 .text.lkeyUpProcess
                0x000000000001cca2       0x1e build/FreeRTOS/production/_ext/1005353002/sys_command.o

.text.__dinit_copy%783
                0x000000000001ccc0       0x1e
 .text.__dinit_copy
                0x000000000001ccc0       0x1e c:/program files/microchip/xc32/v4.45/bin/bin/../../lib/gcc/pic32c/8.3.1/../../../../pic32c/lib/thumb/v7e-m+fp/hard\libpic32c.a(pic32_data_init_copy.o)
                0x000000000001ccc0                __dinit_copy_needed
                0x000000000001ccc0                __dinit_copy

.text.TC6_EnableData%784
                0x000000000001ccde       0x1c
 .text.TC6_EnableData
                0x000000000001ccde       0x1c build/FreeRTOS/production/_ext/1785105562/tc6.o
                0x000000000001ccde                TC6_EnableData

.text.TC6_ReadRegister%785
                0x000000000001ccfa       0x1c
 .text.TC6_ReadRegister
                0x000000000001ccfa       0x1c build/FreeRTOS/production/_ext/1785105562/tc6.o
                0x000000000001ccfa                TC6_ReadRegister

.rodata._OnInitialRegisterCB.str1.4%786
                0x000000000001cd18       0x1c
 .rodata._OnInitialRegisterCB.str1.4
                0x000000000001cd18       0x1c build/FreeRTOS/production/_ext/585597058/drv_lan865x_api.o

.rodata.DRV_SPI_WriteReadTransferAdd.str1.4%787
                0x000000000001cd34       0x1c
 .rodata.DRV_SPI_WriteReadTransferAdd.str1.4
                0x000000000001cd34       0x1c build/FreeRTOS/production/_ext/1348046844/drv_spi.o

.text.TCPIP_Helper_SingleListHeadRemove%788
                0x000000000001cd50       0x1c
 .text.TCPIP_Helper_SingleListHeadRemove
                0x000000000001cd50       0x1c build/FreeRTOS/production/_ext/540595297/tcpip_helpers.o
                0x000000000001cd50                TCPIP_Helper_SingleListHeadRemove

.text.TCPIP_Helper_ProtectedSingleListUnlock%789
                0x000000000001cd6c       0x1c
 .text.TCPIP_Helper_ProtectedSingleListUnlock
                0x000000000001cd6c       0x1c build/FreeRTOS/production/_ext/540595297/tcpip_helpers.o
                0x000000000001cd6c                TCPIP_Helper_ProtectedSingleListUnlock

.text._TCPIP_HEAP_Calloc%790
                0x000000000001cd88       0x1c
 .text._TCPIP_HEAP_Calloc
                0x000000000001cd88       0x1c build/FreeRTOS/production/_ext/540595297/tcpip_heap_internal.o

.rodata.TCPIP_IPERF_Initialize.str1.4%791
                0x000000000001cda4       0x1c
 .rodata.TCPIP_IPERF_Initialize.str1.4
                0x000000000001cda4       0x1c build/FreeRTOS/production/_ext/540595297/iperf.o

.text._UDPTxPktValid%792
                0x000000000001cdc0       0x1c
 .text._UDPTxPktValid
                0x000000000001cdc0       0x1c build/FreeRTOS/production/_ext/540595297/udp.o

.text._TCPIPSignalEntryNotify%793
                0x000000000001cddc       0x1c
 .text._TCPIPSignalEntryNotify
                0x000000000001cddc       0x1c build/FreeRTOS/production/_ext/540595297/tcpip_manager.o

.text.TCPIP_STACK_Status%794
                0x000000000001cdf8       0x1c
 .text.TCPIP_STACK_Status
                0x000000000001cdf8       0x1c build/FreeRTOS/production/_ext/540595297/tcpip_manager.o
                0x000000000001cdf8                TCPIP_STACK_Status

.text.TCPIP_STACK_NetAddressGatewaySet%795
                0x000000000001ce14       0x1c
 .text.TCPIP_STACK_NetAddressGatewaySet
                0x000000000001ce14       0x1c build/FreeRTOS/production/_ext/540595297/tcpip_manager.o
                0x000000000001ce14                TCPIP_STACK_NetAddressGatewaySet

.text.TCPIP_STACK_NetAddressDnsPrimarySet%796
                0x000000000001ce30       0x1c
 .text.TCPIP_STACK_NetAddressDnsPrimarySet
                0x000000000001ce30       0x1c build/FreeRTOS/production/_ext/540595297/tcpip_manager.o
                0x000000000001ce30                TCPIP_STACK_NetAddressDnsPrimarySet

.text.TCPIP_STACK_NetAddressDnsSecondSet%797
                0x000000000001ce4c       0x1c
 .text.TCPIP_STACK_NetAddressDnsSecondSet
                0x000000000001ce4c       0x1c build/FreeRTOS/production/_ext/540595297/tcpip_manager.o
                0x000000000001ce4c                TCPIP_STACK_NetAddressDnsSecondSet

.text.TCPIP_STACK_NetIsUp%798
                0x000000000001ce68       0x1c
 .text.TCPIP_STACK_NetIsUp
                0x000000000001ce68       0x1c build/FreeRTOS/production/_ext/540595297/tcpip_manager.o
                0x000000000001ce68                TCPIP_STACK_NetIsUp

.text.TCPIP_STACK_NetMask%799
                0x000000000001ce84       0x1c
 .text.TCPIP_STACK_NetMask
                0x000000000001ce84       0x1c build/FreeRTOS/production/_ext/540595297/tcpip_manager.o
                0x000000000001ce84                TCPIP_STACK_NetMask

.text.TCPIP_STACK_NetIsLinked%800
                0x000000000001cea0       0x1c
 .text.TCPIP_STACK_NetIsLinked
                0x000000000001cea0       0x1c build/FreeRTOS/production/_ext/540595297/tcpip_manager.o
                0x000000000001cea0                TCPIP_STACK_NetIsLinked

.text.TCPIP_STACK_Deinitialize%801
                0x000000000001cebc       0x1c
 .text.TCPIP_STACK_Deinitialize
                0x000000000001cebc       0x1c build/FreeRTOS/production/_ext/540595297/tcpip_manager.o
                0x000000000001cebc                TCPIP_STACK_Deinitialize

.rodata.str1.4%802
                0x000000000001ced8       0x1c
 .rodata.str1.4
                0x000000000001ced8       0x1c build/FreeRTOS/production/_ext/540595297/tcpip_manager.o

.text.TCPIP_IPV4_MaxDatagramDataSizeGet%803
                0x000000000001cef4       0x1c
 .text.TCPIP_IPV4_MaxDatagramDataSizeGet
                0x000000000001cef4       0x1c build/FreeRTOS/production/_ext/540595297/ipv4.o
                0x000000000001cef4                TCPIP_IPV4_MaxDatagramDataSizeGet

.text.lkeyLeftProcess%804
                0x000000000001cf10       0x1c
 .text.lkeyLeftProcess
                0x000000000001cf10       0x1c build/FreeRTOS/production/_ext/1005353002/sys_command.o

.text.SendCommandMessage%805
                0x000000000001cf2c       0x1c
 .text.SendCommandMessage
                0x000000000001cf2c       0x1c build/FreeRTOS/production/_ext/1005353002/sys_command.o

.rodata.CommandReset.str1.4%806
                0x000000000001cf48       0x1c
 .rodata.CommandReset.str1.4
                0x000000000001cf48       0x1c build/FreeRTOS/production/_ext/1005353002/sys_command.o

.text.SYS_DEBUG_Initialize%807
                0x000000000001cf64       0x1c
 .text.SYS_DEBUG_Initialize
                0x000000000001cf64       0x1c build/FreeRTOS/production/_ext/147610190/sys_debug.o
                0x000000000001cf64                SYS_DEBUG_Initialize

.text.SYS_DMA_AddressingModeSetup%808
                0x000000000001cf80       0x1c
 .text.SYS_DMA_AddressingModeSetup
                0x000000000001cf80       0x1c build/FreeRTOS/production/_ext/50312702/sys_dma.o
                0x000000000001cf80                SYS_DMA_AddressingModeSetup

.text.SYS_TIME_MSToCount%809
                0x000000000001cf9c       0x1c
 .text.SYS_TIME_MSToCount
                0x000000000001cf9c       0x1c build/FreeRTOS/production/_ext/832704728/sys_time.o
                0x000000000001cf9c                SYS_TIME_MSToCount

.text.SYS_TMR_CallbackPeriodic%810
                0x000000000001cfb8       0x1c
 .text.SYS_TMR_CallbackPeriodic
                0x000000000001cfb8       0x1c build/FreeRTOS/production/_ext/2072568807/sys_time_h2_adapter.o
                0x000000000001cfb8                SYS_TMR_CallbackPeriodic

.rodata.drvLan865xInitData%811
                0x000000000001cfd4       0x1c
 .rodata.drvLan865xInitData
                0x000000000001cfd4       0x1c build/FreeRTOS/production/_ext/161576091/initialization.o
                0x000000000001cfd4                drvLan865xInitData

.rodata.sysTimePlibAPI%812
                0x000000000001cff0       0x1c
 .rodata.sysTimePlibAPI
                0x000000000001cff0       0x1c build/FreeRTOS/production/_ext/161576091/initialization.o

.text.vTaskPlaceOnEventList%813
                0x000000000001d00c       0x1c
 .text.vTaskPlaceOnEventList
                0x000000000001d00c       0x1c build/FreeRTOS/production/_ext/404212886/FreeRTOS_tasks.o
                0x000000000001d00c                vTaskPlaceOnEventList

.text.pvTaskIncrementMutexHeldCount%814
                0x000000000001d028       0x1c
 .text.pvTaskIncrementMutexHeldCount
                0x000000000001d028       0x1c build/FreeRTOS/production/_ext/404212886/FreeRTOS_tasks.o
                0x000000000001d028                pvTaskIncrementMutexHeldCount

.text.memcmp%815
                0x000000000001d044       0x1c
 .text.memcmp   0x000000000001d044       0x1c c:/program files/microchip/xc32/v4.45/bin/bin/../../lib/gcc/pic32c/8.3.1/../../../../pic32c/lib/thumb/v7e-m+fp/hard\libc-size-musl.a(memcmp.o)
                0x000000000001d044                memcmp

.text.memcpy%816
                0x000000000001d060       0x1c
 .text.memcpy   0x000000000001d060       0x1c c:/program files/microchip/xc32/v4.45/bin/bin/../../lib/gcc/pic32c/8.3.1/../../../../pic32c/lib/thumb/v7e-m+fp/hard\libc-size-musl.a(memcpy.o)
                0x000000000001d060                memcpy

.text.__memrchr%817
                0x000000000001d07c       0x1c
 .text.__memrchr
                0x000000000001d07c       0x1c c:/program files/microchip/xc32/v4.45/bin/bin/../../lib/gcc/pic32c/8.3.1/../../../../pic32c/lib/thumb/v7e-m+fp/hard\libc-size-musl.a(memrchr.o)
                0x000000000001d07c                __memrchr
                0x000000000001d07c                memrchr

.text.__aeabi_ui2d%818
                0x000000000001d098       0x1c
 .text.__aeabi_ui2d
                0x000000000001d098       0x1c c:/program files/microchip/xc32/v4.45/bin/bin/../../lib/gcc/pic32c/8.3.1/../../../../pic32c/lib/thumb/v7e-m+fp/hard\libm-fast-emfloat.a(__aeabi_ui2d.o)
                0x000000000001d098                __aeabi_ui2d

.text.isxdigit%819
                0x000000000001d0b4       0x1c
 .text.isxdigit
                0x000000000001d0b4       0x1c c:/program files/microchip/xc32/v4.45/bin/bin/../../lib/gcc/pic32c/8.3.1/../../../../pic32c/lib/thumb/v7e-m+fp/hard\libc-musl.a(isxdigit.o)
                0x000000000001d0b4                isxdigit

.text.vfprintf%820
                0x000000000001d0d0       0x1c
 .text.vfprintf
                0x000000000001d0d0       0x1c c:/program files/microchip/xc32/v4.45/bin/bin/../../lib/gcc/pic32c/8.3.1/../../../../pic32c/lib/thumb/v7e-m+fp/hard\libc-musl.a(vfprintf.o)
                0x000000000001d0d0                vfprintf

.text.TCPIP_Helper_SingleListTailAdd%821
                0x000000000001d0ec       0x1a
 .text.TCPIP_Helper_SingleListTailAdd
                0x000000000001d0ec       0x1a build/FreeRTOS/production/_ext/540595297/tcpip_helpers.o
                0x000000000001d0ec                TCPIP_Helper_SingleListTailAdd

.text.TCPIP_Helper_SingleListAppend%822
                0x000000000001d106       0x1a
 .text.TCPIP_Helper_SingleListAppend
                0x000000000001d106       0x1a build/FreeRTOS/production/_ext/540595297/tcpip_helpers.o
                0x000000000001d106                TCPIP_Helper_SingleListAppend

.text.TCPIP_Notification_RemoveAll%823
                0x000000000001d120       0x1a
 .text.TCPIP_Notification_RemoveAll
                0x000000000001d120       0x1a build/FreeRTOS/production/_ext/540595297/tcpip_notify.o
                0x000000000001d120                TCPIP_Notification_RemoveAll

.text.TCPIP_TCP_ClientOpen%824
                0x000000000001d13a       0x1a
 .text.TCPIP_TCP_ClientOpen
                0x000000000001d13a       0x1a build/FreeRTOS/production/_ext/540595297/tcp.o
                0x000000000001d13a                TCPIP_TCP_ClientOpen

.text.TCPIP_TCP_PutIsReady%825
                0x000000000001d154       0x1a
 .text.TCPIP_TCP_PutIsReady
                0x000000000001d154       0x1a build/FreeRTOS/production/_ext/540595297/tcp.o
                0x000000000001d154                TCPIP_TCP_PutIsReady

.text.TCPIP_UDP_TxPointerGet%826
                0x000000000001d16e       0x1a
 .text.TCPIP_UDP_TxPointerGet
                0x000000000001d16e       0x1a build/FreeRTOS/production/_ext/540595297/udp.o
                0x000000000001d16e                TCPIP_UDP_TxPointerGet

.text.TCPIP_STACK_NetMACTypeGet%827
                0x000000000001d188       0x1a
 .text.TCPIP_STACK_NetMACTypeGet
                0x000000000001d188       0x1a build/FreeRTOS/production/_ext/540595297/tcpip_manager.o
                0x000000000001d188                TCPIP_STACK_NetMACTypeGet

.text.TCPIP_STACK_NetIsReady%828
                0x000000000001d1a2       0x1a
 .text.TCPIP_STACK_NetIsReady
                0x000000000001d1a2       0x1a build/FreeRTOS/production/_ext/540595297/tcpip_manager.o
                0x000000000001d1a2                TCPIP_STACK_NetIsReady

.text.TCPIP_DNS_IsResolved%829
                0x000000000001d1bc       0x1a
 .text.TCPIP_DNS_IsResolved
                0x000000000001d1bc       0x1a build/FreeRTOS/production/_ext/540595297/dns.o
                0x000000000001d1bc                TCPIP_DNS_IsResolved

.text.OSAL_MUTEX_Delete%830
                0x000000000001d1d6       0x1a
 .text.OSAL_MUTEX_Delete
                0x000000000001d1d6       0x1a build/FreeRTOS/production/_ext/891571577/osal_freertos.o
                0x000000000001d1d6                OSAL_MUTEX_Delete

.text.wc_InitRng%831
                0x000000000001d1f0       0x1a
 .text.wc_InitRng
                0x000000000001d1f0       0x1a build/FreeRTOS/production/_ext/1664057780/random.o
                0x000000000001d1f0                wc_InitRng

.text.snprintf%832
                0x000000000001d20a       0x1a
 .text.snprintf
                0x000000000001d20a       0x1a c:/program files/microchip/xc32/v4.45/bin/bin/../../lib/gcc/pic32c/8.3.1/../../../../pic32c/lib/thumb/v7e-m+fp/hard\libc-musl.a(snprintf.o)
                0x000000000001d20a                snprintf

.text.sprintf%833
                0x000000000001d224       0x1a
 .text.sprintf  0x000000000001d224       0x1a c:/program files/microchip/xc32/v4.45/bin/bin/../../lib/gcc/pic32c/8.3.1/../../../../pic32c/lib/thumb/v7e-m+fp/hard\libc-musl.a(sprintf.o)
                0x000000000001d224                sprintf

.text.CRYPT_MD5_DataAdd%834
                0x000000000001d23e       0x18
 .text.CRYPT_MD5_DataAdd
                0x000000000001d23e       0x18 build/FreeRTOS/production/_ext/1609394304/crypto.o
                0x000000000001d23e                CRYPT_MD5_DataAdd

.text.CRYPT_MD5_Finalize%835
                0x000000000001d256       0x18
 .text.CRYPT_MD5_Finalize
                0x000000000001d256       0x18 build/FreeRTOS/production/_ext/1609394304/crypto.o
                0x000000000001d256                CRYPT_MD5_Finalize

.text.CRYPT_RNG_BlockGenerate%836
                0x000000000001d26e       0x18
 .text.CRYPT_RNG_BlockGenerate
                0x000000000001d26e       0x18 build/FreeRTOS/production/_ext/1609394304/crypto.o
                0x000000000001d26e                CRYPT_RNG_BlockGenerate

.text._OnRegisterDoneCB%837
                0x000000000001d288       0x18
 .text._OnRegisterDoneCB
                0x000000000001d288       0x18 build/FreeRTOS/production/_ext/585597058/drv_lan865x_api.o

.rodata._OnRegisterDoneCB.str1.4%838
                0x000000000001d2a0       0x18
 .rodata._OnRegisterDoneCB.str1.4
                0x000000000001d2a0       0x18 build/FreeRTOS/production/_ext/585597058/drv_lan865x_api.o

.text.TCPIP_STACK_NetAddressGateway%839
                0x000000000001d2b8       0x18
 .text.TCPIP_STACK_NetAddressGateway
                0x000000000001d2b8       0x18 build/FreeRTOS/production/_ext/540595297/tcpip_manager.o
                0x000000000001d2b8                TCPIP_STACK_NetAddressGateway

.text.TCPIP_STACK_NetAddressDnsPrimary%840
                0x000000000001d2d0       0x18
 .text.TCPIP_STACK_NetAddressDnsPrimary
                0x000000000001d2d0       0x18 build/FreeRTOS/production/_ext/540595297/tcpip_manager.o
                0x000000000001d2d0                TCPIP_STACK_NetAddressDnsPrimary

.text.TCPIP_STACK_NetAddressDnsSecond%841
                0x000000000001d2e8       0x18
 .text.TCPIP_STACK_NetAddressDnsSecond
                0x000000000001d2e8       0x18 build/FreeRTOS/production/_ext/540595297/tcpip_manager.o
                0x000000000001d2e8                TCPIP_STACK_NetAddressDnsSecond

.text.TCPIP_STACK_NetAddressGet%842
                0x000000000001d300       0x18
 .text.TCPIP_STACK_NetAddressGet
                0x000000000001d300       0x18 build/FreeRTOS/production/_ext/540595297/tcpip_manager.o
                0x000000000001d300                TCPIP_STACK_NetAddressGet

.text.TCPIP_STACK_NetMaskGet%843
                0x000000000001d318       0x18
 .text.TCPIP_STACK_NetMaskGet
                0x000000000001d318       0x18 build/FreeRTOS/production/_ext/540595297/tcpip_manager.o
                0x000000000001d318                TCPIP_STACK_NetMaskGet

.text.TCPIP_ARP_HashKeyHash%844
                0x000000000001d330       0x18
 .text.TCPIP_ARP_HashKeyHash
                0x000000000001d330       0x18 build/FreeRTOS/production/_ext/540595297/arp.o
                0x000000000001d330                TCPIP_ARP_HashKeyHash

.text.TCPIP_ICMP_Cleanup%845
                0x000000000001d348       0x18
 .text.TCPIP_ICMP_Cleanup
                0x000000000001d348       0x18 build/FreeRTOS/production/_ext/540595297/icmp.o

.text.TCPIP_OAHASH_EntryRemove%846
                0x000000000001d360       0x18
 .text.TCPIP_OAHASH_EntryRemove
                0x000000000001d360       0x18 build/FreeRTOS/production/_ext/540595297/oahash.o
                0x000000000001d360                TCPIP_OAHASH_EntryRemove

.text.OSAL_CRIT_Enter%847
                0x000000000001d378       0x18
 .text.OSAL_CRIT_Enter
                0x000000000001d378       0x18 build/FreeRTOS/production/_ext/891571577/osal_freertos.o
                0x000000000001d378                OSAL_CRIT_Enter

.text.OSAL_SEM_Post%848
                0x000000000001d390       0x18
 .text.OSAL_SEM_Post
                0x000000000001d390       0x18 build/FreeRTOS/production/_ext/891571577/osal_freertos.o
                0x000000000001d390                OSAL_SEM_Post

.text.OSAL_MUTEX_Create%849
                0x000000000001d3a8       0x18
 .text.OSAL_MUTEX_Create
                0x000000000001d3a8       0x18 build/FreeRTOS/production/_ext/891571577/osal_freertos.o
                0x000000000001d3a8                OSAL_MUTEX_Create

.text.OSAL_MUTEX_Unlock%850
                0x000000000001d3c0       0x18
 .text.OSAL_MUTEX_Unlock
                0x000000000001d3c0       0x18 build/FreeRTOS/production/_ext/891571577/osal_freertos.o
                0x000000000001d3c0                OSAL_MUTEX_Unlock

.text.SERCOM1_USART_WritePendingBytesGet%851
                0x000000000001d3d8       0x18
 .text.SERCOM1_USART_WritePendingBytesGet
                0x000000000001d3d8       0x18 build/FreeRTOS/production/_ext/2092608928/plib_sercom1_usart.o

.text.SERCOM1_USART_ReadCountGet%852
                0x000000000001d3f0       0x18
 .text.SERCOM1_USART_ReadCountGet
                0x000000000001d3f0       0x18 build/FreeRTOS/production/_ext/2092608928/plib_sercom1_usart.o
                0x000000000001d3f0                SERCOM1_USART_ReadCountGet

.text.TC0_TimerStart%853
                0x000000000001d408       0x18
 .text.TC0_TimerStart
                0x000000000001d408       0x18 build/FreeRTOS/production/_ext/579449528/plib_tc0.o
                0x000000000001d408                TC0_TimerStart

.text.TC0_TimerStop%854
                0x000000000001d420       0x18
 .text.TC0_TimerStop
                0x000000000001d420       0x18 build/FreeRTOS/production/_ext/579449528/plib_tc0.o
                0x000000000001d420                TC0_TimerStop

.text.lkeyDownProcess%855
                0x000000000001d438       0x18
 .text.lkeyDownProcess
                0x000000000001d438       0x18 build/FreeRTOS/production/_ext/1005353002/sys_command.o

.text.CommandReset%856
                0x000000000001d450       0x18
 .text.CommandReset
                0x000000000001d450       0x18 build/FreeRTOS/production/_ext/1005353002/sys_command.o

.text.SYS_DMA_DataWidthSetup%857
                0x000000000001d468       0x18
 .text.SYS_DMA_DataWidthSetup
                0x000000000001d468       0x18 build/FreeRTOS/production/_ext/50312702/sys_dma.o
                0x000000000001d468                SYS_DMA_DataWidthSetup

.text.SYS_TIME_GetElapsedCount%858
                0x000000000001d480       0x18
 .text.SYS_TIME_GetElapsedCount
                0x000000000001d480       0x18 build/FreeRTOS/production/_ext/832704728/sys_time.o

.rodata.drvSPI0InterruptSources%859
                0x000000000001d498       0x18
 .rodata.drvSPI0InterruptSources
                0x000000000001d498       0x18 build/FreeRTOS/production/_ext/161576091/initialization.o

.rodata.sysConsole0UARTPlibAPI%860
                0x000000000001d4b0       0x18
 .rodata.sysConsole0UARTPlibAPI
                0x000000000001d4b0       0x18 build/FreeRTOS/production/_ext/161576091/initialization.o

.rodata.tcpipDNSClientInitData%861
                0x000000000001d4c8       0x18
 .rodata.tcpipDNSClientInitData
                0x000000000001d4c8       0x18 build/FreeRTOS/production/_ext/161576091/initialization.o
                0x000000000001d4c8                tcpipDNSClientInitData

.text.vTaskInternalSetTimeOutState%862
                0x000000000001d4e0       0x18
 .text.vTaskInternalSetTimeOutState
                0x000000000001d4e0       0x18 build/FreeRTOS/production/_ext/404212886/FreeRTOS_tasks.o
                0x000000000001d4e0                vTaskInternalSetTimeOutState

.text.strlen%863
                0x000000000001d4f8       0x18
 .text.strlen   0x000000000001d4f8       0x18 c:/program files/microchip/xc32/v4.45/bin/bin/../../lib/gcc/pic32c/8.3.1/../../../../pic32c/lib/thumb/v7e-m+fp/hard\libc-size-musl.a(strlen.o)
                0x000000000001d4f8                strlen

.text.strrchr%864
                0x000000000001d510       0x18
 .text.strrchr  0x000000000001d510       0x18 c:/program files/microchip/xc32/v4.45/bin/bin/../../lib/gcc/pic32c/8.3.1/../../../../pic32c/lib/thumb/v7e-m+fp/hard\libc-size-musl.a(strrchr.o)
                0x000000000001d510                strrchr

.text.__init_search_fl%865
                0x000000000001d528       0x18
 .text.__init_search_fl
                0x000000000001d528       0x18 c:/program files/microchip/xc32/v4.45/bin/bin/../../lib/gcc/pic32c/8.3.1/../../../../pic32c/lib/thumb/v7e-m+fp/hard\liblmalloc-musl.a(lite_free.o)
                0x000000000001d528                __init_search_fl

.text.rand%866  0x000000000001d540       0x18
 .text.rand     0x000000000001d540       0x18 c:/program files/microchip/xc32/v4.45/bin/bin/../../lib/gcc/pic32c/8.3.1/../../../../pic32c/lib/thumb/v7e-m+fp/hard\libc-musl.a(rand.o)
                0x000000000001d540                rand

.text.__shlim%867
                0x000000000001d558       0x18
 .text.__shlim  0x000000000001d558       0x18 c:/program files/microchip/xc32/v4.45/bin/bin/../../lib/gcc/pic32c/8.3.1/../../../../pic32c/lib/thumb/v7e-m+fp/hard\libc-musl.a(shgetc.o)
                0x000000000001d558                __shlim

.text._TCPIP_HEAP_LastError%868
                0x000000000001d570       0x16
 .text._TCPIP_HEAP_LastError
                0x000000000001d570       0x16 build/FreeRTOS/production/_ext/540595297/tcpip_heap_internal.o

.text._IperfUDPRxSignalHandler%869
                0x000000000001d586       0x16
 .text._IperfUDPRxSignalHandler
                0x000000000001d586       0x16 build/FreeRTOS/production/_ext/540595297/iperf.o

.text._IperfTCPRxSignalHandler%870
                0x000000000001d59c       0x16
 .text._IperfTCPRxSignalHandler
                0x000000000001d59c       0x16 build/FreeRTOS/production/_ext/540595297/iperf.o

.text.TCPIP_TCP_WasDisconnected%871
                0x000000000001d5b2       0x16
 .text.TCPIP_TCP_WasDisconnected
                0x000000000001d5b2       0x16 build/FreeRTOS/production/_ext/540595297/tcp.o
                0x000000000001d5b2                TCPIP_TCP_WasDisconnected

.text.TCPIP_STACK_AddressServiceCanStart%872
                0x000000000001d5c8       0x16
 .text.TCPIP_STACK_AddressServiceCanStart
                0x000000000001d5c8       0x16 build/FreeRTOS/production/_ext/540595297/tcpip_manager.o
                0x000000000001d5c8                TCPIP_STACK_AddressServiceCanStart

.text._DNSSocketRxSignalHandler%873
                0x000000000001d5de       0x16
 .text._DNSSocketRxSignalHandler
                0x000000000001d5de       0x16 build/FreeRTOS/production/_ext/540595297/dns.o

.text.OSAL_CRIT_Leave%874
                0x000000000001d5f4       0x16
 .text.OSAL_CRIT_Leave
                0x000000000001d5f4       0x16 build/FreeRTOS/production/_ext/891571577/osal_freertos.o
                0x000000000001d5f4                OSAL_CRIT_Leave

.text.vListInitialise%875
                0x000000000001d60a       0x16
 .text.vListInitialise
                0x000000000001d60a       0x16 build/FreeRTOS/production/_ext/404212886/list.o
                0x000000000001d60a                vListInitialise

.text.prvIsQueueEmpty%876
                0x000000000001d620       0x16
 .text.prvIsQueueEmpty
                0x000000000001d620       0x16 build/FreeRTOS/production/_ext/404212886/queue.o

.text.wc_InitMd5%877
                0x000000000001d636       0x16
 .text.wc_InitMd5
                0x000000000001d636       0x16 build/FreeRTOS/production/_ext/1664057780/md5.o
                0x000000000001d636                wc_InitMd5

.text.strcmp%878
                0x000000000001d64c       0x16
 .text.strcmp   0x000000000001d64c       0x16 c:/program files/microchip/xc32/v4.45/bin/bin/../../lib/gcc/pic32c/8.3.1/../../../../pic32c/lib/thumb/v7e-m+fp/hard\libc-size-musl.a(strcmp.o)
                0x000000000001d64c                strcmp

.text.__expand_heap%879
                0x000000000001d662       0x16
 .text.__expand_heap
                0x000000000001d662       0x16 c:/program files/microchip/xc32/v4.45/bin/bin/../../lib/gcc/pic32c/8.3.1/../../../../pic32c/lib/thumb/v7e-m+fp/hard\libc-musl.a(expand_heap.o)
                0x000000000001d662                __expand_heap

.rodata%880     0x000000000001d678       0x16
 .rodata        0x000000000001d678       0x16 c:/program files/microchip/xc32/v4.45/bin/bin/../../lib/gcc/pic32c/8.3.1/../../../../pic32c/lib/thumb/v7e-m+fp/hard\libc-musl.a(__printf_core.o)

.text._OnInitialRegisterCB%881
                0x000000000001d690       0x14
 .text._OnInitialRegisterCB
                0x000000000001d690       0x14 build/FreeRTOS/production/_ext/585597058/drv_lan865x_api.o

.rodata.PrintRateLimited.str1.4%882
                0x000000000001d6a4       0x14
 .rodata.PrintRateLimited.str1.4
                0x000000000001d6a4       0x14 build/FreeRTOS/production/_ext/585597058/drv_lan865x_api.o

.rodata.str1.4%883
                0x000000000001d6b8       0x14
 .rodata.str1.4
                0x000000000001d6b8       0x14 build/FreeRTOS/production/_ext/540595297/tcpip_helpers.o

.text.TCPIP_STACK_NetUpMACAddressGet%884
                0x000000000001d6cc       0x14
 .text.TCPIP_STACK_NetUpMACAddressGet
                0x000000000001d6cc       0x14 build/FreeRTOS/production/_ext/540595297/tcpip_manager.o
                0x000000000001d6cc                TCPIP_STACK_NetUpMACAddressGet

.text.TCPIP_STACK_HeapHandleGet%885
                0x000000000001d6e0       0x14
 .text.TCPIP_STACK_HeapHandleGet
                0x000000000001d6e0       0x14 build/FreeRTOS/production/_ext/540595297/tcpip_manager.o
                0x000000000001d6e0                TCPIP_STACK_HeapHandleGet

.rodata.TCPIP_STACK_IF_ALIAS_NAME_TBL%886
                0x000000000001d6f4       0x14
 .rodata.TCPIP_STACK_IF_ALIAS_NAME_TBL
                0x000000000001d6f4       0x14 build/FreeRTOS/production/_ext/540595297/tcpip_manager.o

.rodata.__func__.14400%887
                0x000000000001d708       0x14
 .rodata.__func__.14400
                0x000000000001d708       0x14 build/FreeRTOS/production/_ext/540595297/tcpip_manager.o

.text.TCPIP_HEAP_Create%888
                0x000000000001d71c       0x14
 .text.TCPIP_HEAP_Create
                0x000000000001d71c       0x14 build/FreeRTOS/production/_ext/540595297/tcpip_heap_alloc.o
                0x000000000001d71c                TCPIP_HEAP_Create

.text.SERCOM0_SPI_IsTransmitterBusy%889
                0x000000000001d730       0x14
 .text.SERCOM0_SPI_IsTransmitterBusy
                0x000000000001d730       0x14 build/FreeRTOS/production/_ext/1428073114/plib_sercom0_spi_master.o
                0x000000000001d730                SERCOM0_SPI_IsTransmitterBusy

.text.SERCOM1_USART_ReadFreeBufferCountGet%890
                0x000000000001d744       0x14
 .text.SERCOM1_USART_ReadFreeBufferCountGet
                0x000000000001d744       0x14 build/FreeRTOS/production/_ext/2092608928/plib_sercom1_usart.o
                0x000000000001d744                SERCOM1_USART_ReadFreeBufferCountGet

.text.SERCOM1_USART_WriteFreeBufferCountGet%891
                0x000000000001d758       0x14
 .text.SERCOM1_USART_WriteFreeBufferCountGet
                0x000000000001d758       0x14 build/FreeRTOS/production/_ext/2092608928/plib_sercom1_usart.o
                0x000000000001d758                SERCOM1_USART_WriteFreeBufferCountGet

.text.TC0_Timer16bitPeriodSet%892
                0x000000000001d76c       0x14
 .text.TC0_Timer16bitPeriodSet
                0x000000000001d76c       0x14 build/FreeRTOS/production/_ext/579449528/plib_tc0.o
                0x000000000001d76c                TC0_Timer16bitPeriodSet

.text.TC0_Timer16bitCompareSet%893
                0x000000000001d780       0x14
 .text.TC0_Timer16bitCompareSet
                0x000000000001d780       0x14 build/FreeRTOS/production/_ext/579449528/plib_tc0.o
                0x000000000001d780                TC0_Timer16bitCompareSet

.rodata.sysConsoleApi%894
                0x000000000001d794       0x14
 .rodata.sysConsoleApi
                0x000000000001d794       0x14 build/FreeRTOS/production/_ext/1005353002/sys_command.o

.text.Console_UART_ResourceLock%895
                0x000000000001d7a8       0x14
 .text.Console_UART_ResourceLock
                0x000000000001d7a8       0x14 build/FreeRTOS/production/_ext/548640822/sys_console_uart.o

.text.vPortEnableVFP%896
                0x000000000001d7bc       0x14
 .text.vPortEnableVFP
                0x000000000001d7bc       0x14 build/FreeRTOS/production/_ext/246609638/port.o

.text.vPortExitCritical%897
                0x000000000001d7d0       0x14
 .text.vPortExitCritical
                0x000000000001d7d0       0x14 build/FreeRTOS/production/_ext/246609638/port.o
                0x000000000001d7d0                vPortExitCritical

.text.CRYPT_WCCB_Initialize%898
                0x000000000001d7e4       0x14
 .text.CRYPT_WCCB_Initialize
                0x000000000001d7e4       0x14 build/FreeRTOS/production/_ext/172253694/crypt_wolfcryptcb.o
                0x000000000001d7e4                CRYPT_WCCB_Initialize

.rodata%899     0x000000000001d7f8       0x14
 .rodata        0x000000000001d7f8       0x14 c:/program files/microchip/xc32/v4.45/bin/bin/../../lib/gcc/pic32c/8.3.1/../../../../pic32c/lib/thumb/v7e-m+fp/hard\libpic32c.a(data_init.o)

.text.memset%900
                0x000000000001d80c       0x14
 .text.memset   0x000000000001d80c       0x14 c:/program files/microchip/xc32/v4.45/bin/bin/../../lib/gcc/pic32c/8.3.1/../../../../pic32c/lib/thumb/v7e-m+fp/hard\libc-size-musl.a(memset.o)
                0x000000000001d80c                memset

.text.strchr%901
                0x000000000001d820       0x14
 .text.strchr   0x000000000001d820       0x14 c:/program files/microchip/xc32/v4.45/bin/bin/../../lib/gcc/pic32c/8.3.1/../../../../pic32c/lib/thumb/v7e-m+fp/hard\libc-size-musl.a(strchr.o)
                0x000000000001d820                strchr

.text.stpcpy%902
                0x000000000001d834       0x14
 .text.stpcpy   0x000000000001d834       0x14 c:/program files/microchip/xc32/v4.45/bin/bin/../../lib/gcc/pic32c/8.3.1/../../../../pic32c/lib/thumb/v7e-m+fp/hard\libc-size-musl.a(stpcpy.o)
                0x000000000001d834                __stpcpy
                0x000000000001d834                stpcpy

.text.strtol%903
                0x000000000001d848       0x14
 .text.strtol   0x000000000001d848       0x14 c:/program files/microchip/xc32/v4.45/bin/bin/../../lib/gcc/pic32c/8.3.1/../../../../pic32c/lib/thumb/v7e-m+fp/hard\libc-musl.a(strtol.o)
                0x000000000001d848                strtol
                0x000000000001d848                __strtol_internal

.text.CRYPT_MD5_Initialize%904
                0x000000000001d85c       0x12
 .text.CRYPT_MD5_Initialize
                0x000000000001d85c       0x12 build/FreeRTOS/production/_ext/1609394304/crypto.o
                0x000000000001d85c                CRYPT_MD5_Initialize

.text.TC6_CB_OnNeedService%905
                0x000000000001d86e       0x12
 .text.TC6_CB_OnNeedService
                0x000000000001d86e       0x12 build/FreeRTOS/production/_ext/585597058/drv_lan865x_api.o
                0x000000000001d86e                TC6_CB_OnNeedService

.text.lDRV_SPI_RemoveTransferObjFromList%906
                0x000000000001d880       0x12
 .text.lDRV_SPI_RemoveTransferObjFromList
                0x000000000001d880       0x12 build/FreeRTOS/production/_ext/1348046844/drv_spi.o

.text._TCPIP_HEAP_FreeSize%907
                0x000000000001d892       0x12
 .text._TCPIP_HEAP_FreeSize
                0x000000000001d892       0x12 build/FreeRTOS/production/_ext/540595297/tcpip_heap_internal.o

.text.TCPIP_TCP_GetIsReady%908
                0x000000000001d8a4       0x12
 .text.TCPIP_TCP_GetIsReady
                0x000000000001d8a4       0x12 build/FreeRTOS/production/_ext/540595297/tcp.o
                0x000000000001d8a4                TCPIP_TCP_GetIsReady

.text.TCPIP_OAHASH_EntryGet%909
                0x000000000001d8b6       0x12
 .text.TCPIP_OAHASH_EntryGet
                0x000000000001d8b6       0x12 build/FreeRTOS/production/_ext/540595297/oahash.o
                0x000000000001d8b6                TCPIP_OAHASH_EntryGet

.text.OSAL_SEM_Delete%910
                0x000000000001d8c8       0x12
 .text.OSAL_SEM_Delete
                0x000000000001d8c8       0x12 build/FreeRTOS/production/_ext/891571577/osal_freertos.o
                0x000000000001d8c8                OSAL_SEM_Delete

.text.NVIC_INT_Disable%911
                0x000000000001d8da       0x12
 .text.NVIC_INT_Disable
                0x000000000001d8da       0x12 build/FreeRTOS/production/_ext/1494909205/plib_nvic.o
                0x000000000001d8da                NVIC_INT_Disable

.text.NVIC_INT_Restore%912
                0x000000000001d8ec       0x12
 .text.NVIC_INT_Restore
                0x000000000001d8ec       0x12 build/FreeRTOS/production/_ext/1494909205/plib_nvic.o
                0x000000000001d8ec                NVIC_INT_Restore

.text.vApplicationStackOverflowHook%913
                0x000000000001d8fe       0x12
 .text.vApplicationStackOverflowHook
                0x000000000001d8fe       0x12 build/FreeRTOS/production/_ext/161576091/freertos_hooks.o
                0x000000000001d8fe                vApplicationStackOverflowHook

.text.vApplicationMallocFailedHook%914
                0x000000000001d910       0x12
 .text.vApplicationMallocFailedHook
                0x000000000001d910       0x12 build/FreeRTOS/production/_ext/161576091/freertos_hooks.o
                0x000000000001d910                vApplicationMallocFailedHook

.text.__dinit_clear%915
                0x000000000001d922       0x12
 .text.__dinit_clear
                0x000000000001d922       0x12 c:/program files/microchip/xc32/v4.45/bin/bin/../../lib/gcc/pic32c/8.3.1/../../../../pic32c/lib/thumb/v7e-m+fp/hard\libpic32c.a(pic32_data_init_clear.o)
                0x000000000001d922                __dinit_clear
                0x000000000001d922                __dinit_clear_needed

.text.CRYPT_RNG_Initialize%916
                0x000000000001d934       0x10
 .text.CRYPT_RNG_Initialize
                0x000000000001d934       0x10 build/FreeRTOS/production/_ext/1609394304/crypto.o
                0x000000000001d934                CRYPT_RNG_Initialize

.text._Dereference%917
                0x000000000001d944       0x10
 .text._Dereference
                0x000000000001d944       0x10 build/FreeRTOS/production/_ext/585597058/drv_lan865x_api.o

.rodata.heapTypeStr.13867%918
                0x000000000001d954       0x10
 .rodata.heapTypeStr.13867
                0x000000000001d954       0x10 build/FreeRTOS/production/_ext/540595297/tcpip_commands.o

.text.TCPIP_Notification_Deinitialize%919
                0x000000000001d964       0x10
 .text.TCPIP_Notification_Deinitialize
                0x000000000001d964       0x10 build/FreeRTOS/production/_ext/540595297/tcpip_notify.o
                0x000000000001d964                TCPIP_Notification_Deinitialize

.text.TCPIP_TCP_SocketNetGet%920
                0x000000000001d974       0x10
 .text.TCPIP_TCP_SocketNetGet
                0x000000000001d974       0x10 build/FreeRTOS/production/_ext/540595297/tcp.o
                0x000000000001d974                TCPIP_TCP_SocketNetGet

.text.TCPIP_UDP_SocketNetGet%921
                0x000000000001d984       0x10
 .text.TCPIP_UDP_SocketNetGet
                0x000000000001d984       0x10 build/FreeRTOS/production/_ext/540595297/udp.o
                0x000000000001d984                TCPIP_UDP_SocketNetGet

.text.TCPIP_DNS_GetIPv4Addresses%922
                0x000000000001d994       0x10
 .text.TCPIP_DNS_GetIPv4Addresses
                0x000000000001d994       0x10 build/FreeRTOS/production/_ext/540595297/dns.o
                0x000000000001d994                TCPIP_DNS_GetIPv4Addresses

.text.TCPIP_DNS_GetIPv6Addresses%923
                0x000000000001d9a4       0x10
 .text.TCPIP_DNS_GetIPv6Addresses
                0x000000000001d9a4       0x10 build/FreeRTOS/production/_ext/540595297/dns.o
                0x000000000001d9a4                TCPIP_DNS_GetIPv6Addresses

.text.DMAC_ChannelCallbackRegister%924
                0x000000000001d9b4       0x10
 .text.DMAC_ChannelCallbackRegister
                0x000000000001d9b4       0x10 build/FreeRTOS/production/_ext/1495216012/plib_dmac.o
                0x000000000001d9b4                DMAC_ChannelCallbackRegister

.text.NVMCTRL_Initialize%925
                0x000000000001d9c4       0x10
 .text.NVMCTRL_Initialize
                0x000000000001d9c4       0x10 build/FreeRTOS/production/_ext/320424729/plib_nvmctrl.o
                0x000000000001d9c4                NVMCTRL_Initialize

.text.IsCommandReady%926
                0x000000000001d9d4       0x10
 .text.IsCommandReady
                0x000000000001d9d4       0x10 build/FreeRTOS/production/_ext/1005353002/sys_command.o

.text.Console_UART_Status%927
                0x000000000001d9e4       0x10
 .text.Console_UART_Status
                0x000000000001d9e4       0x10 build/FreeRTOS/production/_ext/548640822/sys_console_uart.o
                0x000000000001d9e4                Console_UART_Status

.text.sy_time_h2_adapter_callback%928
                0x000000000001d9f4       0x10
 .text.sy_time_h2_adapter_callback
                0x000000000001d9f4       0x10 build/FreeRTOS/production/_ext/2072568807/sys_time_h2_adapter.o
                0x000000000001d9f4                sy_time_h2_adapter_callback

.text._TCPIP_STACK_Task%929
                0x000000000001da04       0x10
 .text._TCPIP_STACK_Task
                0x000000000001da04       0x10 build/FreeRTOS/production/_ext/161576091/tasks.o
                0x000000000001da04                _TCPIP_STACK_Task

.text.lSYS_CMD_Tasks%930
                0x000000000001da14       0x10
 .text.lSYS_CMD_Tasks
                0x000000000001da14       0x10 build/FreeRTOS/production/_ext/161576091/tasks.o
                0x000000000001da14                lSYS_CMD_Tasks

.text.lAPP_Tasks%931
                0x000000000001da24       0x10
 .text.lAPP_Tasks
                0x000000000001da24       0x10 build/FreeRTOS/production/_ext/161576091/tasks.o

.rodata.drvSPI0PlibAPI%932
                0x000000000001da34       0x10
 .rodata.drvSPI0PlibAPI
                0x000000000001da34       0x10 build/FreeRTOS/production/_ext/161576091/initialization.o

.rodata.tcpipIPv4InitData%933
                0x000000000001da44       0x10
 .rodata.tcpipIPv4InitData
                0x000000000001da44       0x10 build/FreeRTOS/production/_ext/161576091/initialization.o
                0x000000000001da44                tcpipIPv4InitData

.text.vTaskSuspendAll%934
                0x000000000001da54       0x10
 .text.vTaskSuspendAll
                0x000000000001da54       0x10 build/FreeRTOS/production/_ext/404212886/FreeRTOS_tasks.o
                0x000000000001da54                vTaskSuspendAll

.rodata.str1.1%935
                0x000000000001da64       0x10
 .rodata.str1.1
                0x000000000001da64       0x10 c:/program files/microchip/xc32/v4.45/bin/bin/../../lib/gcc/pic32c/8.3.1/../../../../pic32c/lib/thumb/v7e-m+fp/hard\libc-musl.a(__fmt_a.o)

.rodata.str1.1%936
                0x000000000001da74       0x10
 .rodata.str1.1
                0x000000000001da74       0x10 c:/program files/microchip/xc32/v4.45/bin/bin/../../lib/gcc/pic32c/8.3.1/../../../../pic32c/lib/thumb/v7e-m+fp/hard\libc-musl.a(__fmt_fp.o)

.text.TC6_GetInstance%937
                0x000000000001da84        0xe
 .text.TC6_GetInstance
                0x000000000001da84        0xe build/FreeRTOS/production/_ext/1785105562/tc6.o
                0x000000000001da84                TC6_GetInstance

.text.btohexa_low%938
                0x000000000001da92        0xe
 .text.btohexa_low
                0x000000000001da92        0xe build/FreeRTOS/production/_ext/540595297/helpers.o
                0x000000000001da92                btohexa_low

.text.TCPIP_Helper_ChecksumFold%939
                0x000000000001daa0        0xe
 .text.TCPIP_Helper_ChecksumFold
                0x000000000001daa0        0xe build/FreeRTOS/production/_ext/540595297/tcpip_helpers.o
                0x000000000001daa0                TCPIP_Helper_ChecksumFold

.text.TCPIP_STACK_NetIndexGet%940
                0x000000000001daae        0xe
 .text.TCPIP_STACK_NetIndexGet
                0x000000000001daae        0xe build/FreeRTOS/production/_ext/540595297/tcpip_manager.o
                0x000000000001daae                TCPIP_STACK_NetIndexGet

.text.TCPIP_STACK_NetIxGet%941
                0x000000000001dabc        0xe
 .text.TCPIP_STACK_NetIxGet
                0x000000000001dabc        0xe build/FreeRTOS/production/_ext/540595297/tcpip_manager.o
                0x000000000001dabc                TCPIP_STACK_NetIxGet

.text._TCPIPStackSignalHandlerDeregister%942
                0x000000000001daca        0xe
 .text._TCPIPStackSignalHandlerDeregister
                0x000000000001daca        0xe build/FreeRTOS/production/_ext/540595297/tcpip_manager.o
                0x000000000001daca                _TCPIPStackSignalHandlerDeregister

.text.main%943  0x000000000001dad8        0xe
 .text.main     0x000000000001dad8        0xe build/FreeRTOS/production/_ext/1360937237/main.o
                0x000000000001dad8                main

.text.tolower%944
                0x000000000001dae6        0xe
 .text.tolower  0x000000000001dae6        0xe c:/program files/microchip/xc32/v4.45/bin/bin/../../lib/gcc/pic32c/8.3.1/../../../../pic32c/lib/thumb/v7e-m+fp/hard\libc-musl.a(tolower.o)
                0x000000000001dae6                tolower

.text.toupper%945
                0x000000000001daf4        0xe
 .text.toupper  0x000000000001daf4        0xe c:/program files/microchip/xc32/v4.45/bin/bin/../../lib/gcc/pic32c/8.3.1/../../../../pic32c/lib/thumb/v7e-m+fp/hard\libc-musl.a(toupper.o)
                0x000000000001daf4                toupper

.text.btohexa_high%946
                0x0000000000018694        0xc
 .text.btohexa_high
                0x0000000000018694        0xc build/FreeRTOS/production/_ext/540595297/helpers.o
                0x0000000000018694                btohexa_high

.text.TCPIP_PKT_Deinitialize%947
                0x000000000001db04        0xc
 .text.TCPIP_PKT_Deinitialize
                0x000000000001db04        0xc build/FreeRTOS/production/_ext/540595297/tcpip_packet.o
                0x000000000001db04                TCPIP_PKT_Deinitialize

.rodata.TCPIP_Helper_IPAddressToString.str1.4%948
                0x000000000001db10        0xc
 .rodata.TCPIP_Helper_IPAddressToString.str1.4
                0x000000000001db10        0xc build/FreeRTOS/production/_ext/540595297/tcpip_helpers.o

.text._TCPIP_HEAP_Size%949
                0x000000000001db1c        0xc
 .text._TCPIP_HEAP_Size
                0x000000000001db1c        0xc build/FreeRTOS/production/_ext/540595297/tcpip_heap_internal.o

.text._TCPIP_HEAP_HighWatermark%950
                0x000000000001db28        0xc
 .text._TCPIP_HEAP_HighWatermark
                0x000000000001db28        0xc build/FreeRTOS/production/_ext/540595297/tcpip_heap_internal.o

.text.TCPIP_STACK_NetDefaultGet%951
                0x000000000001db34        0xc
 .text.TCPIP_STACK_NetDefaultGet
                0x000000000001db34        0xc build/FreeRTOS/production/_ext/540595297/tcpip_manager.o
                0x000000000001db34                TCPIP_STACK_NetDefaultGet

.text.TCPIP_STACK_NumberOfNetworksGet%952
                0x000000000001db40        0xc
 .text.TCPIP_STACK_NumberOfNetworksGet
                0x000000000001db40        0xc build/FreeRTOS/production/_ext/540595297/tcpip_manager.o
                0x000000000001db40                TCPIP_STACK_NumberOfNetworksGet

.text.TCPIP_ARP_HashKeyCompare%953
                0x000000000001db4c        0xc
 .text.TCPIP_ARP_HashKeyCompare
                0x000000000001db4c        0xc build/FreeRTOS/production/_ext/540595297/arp.o
                0x000000000001db4c                TCPIP_ARP_HashKeyCompare

.text.TCPIP_IPV4_PacketTransmit%954
                0x000000000001db58        0xc
 .text.TCPIP_IPV4_PacketTransmit
                0x000000000001db58        0xc build/FreeRTOS/production/_ext/540595297/ipv4.o
                0x000000000001db58                TCPIP_IPV4_PacketTransmit

.text.TCPIP_DNS_OAHASH_KeyCompare%955
                0x000000000001db64        0xc
 .text.TCPIP_DNS_OAHASH_KeyCompare
                0x000000000001db64        0xc build/FreeRTOS/production/_ext/540595297/dns.o

.text.TCPIP_DNS_Enable%956
                0x000000000001db70        0xc
 .text.TCPIP_DNS_Enable
                0x000000000001db70        0xc build/FreeRTOS/production/_ext/540595297/dns.o
                0x000000000001db70                TCPIP_DNS_Enable

.text.DMAC_ChannelSettingsGet%957
                0x000000000001db7c        0xc
 .text.DMAC_ChannelSettingsGet
                0x000000000001db7c        0xc build/FreeRTOS/production/_ext/1495216012/plib_dmac.o
                0x000000000001db7c                DMAC_ChannelSettingsGet

.text.PORT_GroupWrite%958
                0x000000000001db88        0xc
 .text.PORT_GroupWrite
                0x000000000001db88        0xc build/FreeRTOS/production/_ext/1494856054/plib_port.o
                0x000000000001db88                PORT_GroupWrite

.text.SERCOM0_SPI_CallbackRegister%959
                0x000000000001db94        0xc
 .text.SERCOM0_SPI_CallbackRegister
                0x000000000001db94        0xc build/FreeRTOS/production/_ext/1428073114/plib_sercom0_spi_master.o
                0x000000000001db94                SERCOM0_SPI_CallbackRegister

.text.TC0_TimerCallbackRegister%960
                0x000000000001dba0        0xc
 .text.TC0_TimerCallbackRegister
                0x000000000001dba0        0xc build/FreeRTOS/production/_ext/579449528/plib_tc0.o
                0x000000000001dba0                TC0_TimerCallbackRegister

.rodata.DisplayNodeMsg.str1.4%961
                0x000000000001dbac        0xc
 .rodata.DisplayNodeMsg.str1.4
                0x000000000001dbac        0xc build/FreeRTOS/production/_ext/1005353002/sys_command.o

.text.SYS_DEBUG_ConsoleInstanceGet%962
                0x000000000001dbb8        0xc
 .text.SYS_DEBUG_ConsoleInstanceGet
                0x000000000001dbb8        0xc build/FreeRTOS/production/_ext/147610190/sys_debug.o
                0x000000000001dbb8                SYS_DEBUG_ConsoleInstanceGet

.text.SYS_DEBUG_ErrorLevelGet%963
                0x000000000001dbc4        0xc
 .text.SYS_DEBUG_ErrorLevelGet
                0x000000000001dbc4        0xc build/FreeRTOS/production/_ext/147610190/sys_debug.o
                0x000000000001dbc4                SYS_DEBUG_ErrorLevelGet

.text.SYS_TIME_FrequencyGet%964
                0x000000000001dbd0        0xc
 .text.SYS_TIME_FrequencyGet
                0x000000000001dbd0        0xc build/FreeRTOS/production/_ext/832704728/sys_time.o
                0x000000000001dbd0                SYS_TIME_FrequencyGet

.rodata.sysConsole0Init%965
                0x000000000001dbdc        0xc
 .rodata.sysConsole0Init
                0x000000000001dbdc        0xc build/FreeRTOS/production/_ext/161576091/initialization.o

.text.vTaskMissedYield%966
                0x000000000001dbe8        0xc
 .text.vTaskMissedYield
                0x000000000001dbe8        0xc build/FreeRTOS/production/_ext/404212886/FreeRTOS_tasks.o
                0x000000000001dbe8                vTaskMissedYield

.text.APP_Initialize%967
                0x000000000001dbf4        0xc
 .text.APP_Initialize
                0x000000000001dbf4        0xc build/FreeRTOS/production/_ext/1360937237/app.o
                0x000000000001dbf4                APP_Initialize

.text.strcpy%968
                0x000000000001dc00        0xc
 .text.strcpy   0x000000000001dc00        0xc c:/program files/microchip/xc32/v4.45/bin/bin/../../lib/gcc/pic32c/8.3.1/../../../../pic32c/lib/thumb/v7e-m+fp/hard\libc-size-musl.a(strcpy.o)
                0x000000000001dc00                strcpy

.text.strncpy%969
                0x000000000001dc0c        0xc
 .text.strncpy  0x000000000001dc0c        0xc c:/program files/microchip/xc32/v4.45/bin/bin/../../lib/gcc/pic32c/8.3.1/../../../../pic32c/lib/thumb/v7e-m+fp/hard\libc-size-musl.a(strncpy.o)
                0x000000000001dc0c                strncpy

.text.srand%970
                0x000000000001dc18        0xc
 .text.srand    0x000000000001dc18        0xc c:/program files/microchip/xc32/v4.45/bin/bin/../../lib/gcc/pic32c/8.3.1/../../../../pic32c/lib/thumb/v7e-m+fp/hard\libc-musl.a(rand.o)
                0x000000000001dc18                srand

.text.vsprintf%971
                0x000000000001dc24        0xc
 .text.vsprintf
                0x000000000001dc24        0xc c:/program files/microchip/xc32/v4.45/bin/bin/../../lib/gcc/pic32c/8.3.1/../../../../pic32c/lib/thumb/v7e-m+fp/hard\libc-musl.a(vsprintf.o)
                0x000000000001dc24                vsprintf

.text.TC6_UnlockExtendedStatus%972
                0x000000000001dc30        0xa
 .text.TC6_UnlockExtendedStatus
                0x000000000001dc30        0xa build/FreeRTOS/production/_ext/1785105562/tc6.o
                0x000000000001dc30                TC6_UnlockExtendedStatus

.text.DRV_LAN865X_EventMaskSet%973
                0x000000000001dc3a        0xa
 .text.DRV_LAN865X_EventMaskSet
                0x000000000001dc3a        0xa build/FreeRTOS/production/_ext/585597058/drv_lan865x_api.o
                0x000000000001dc3a                DRV_LAN865X_EventMaskSet

.text.TCPIP_Helper_SingleListInitialize%974
                0x000000000001dc44        0xa
 .text.TCPIP_Helper_SingleListInitialize
                0x000000000001dc44        0xa build/FreeRTOS/production/_ext/540595297/tcpip_helpers.o
                0x000000000001dc44                TCPIP_Helper_SingleListInitialize

.text.TCPIP_UDP_ServerOpen%975
                0x000000000001dc4e        0xa
 .text.TCPIP_UDP_ServerOpen
                0x000000000001dc4e        0xa build/FreeRTOS/production/_ext/540595297/udp.o
                0x000000000001dc4e                TCPIP_UDP_ServerOpen

.text.TCPIP_UDP_ClientOpen%976
                0x000000000001dc58        0xa
 .text.TCPIP_UDP_ClientOpen
                0x000000000001dc58        0xa build/FreeRTOS/production/_ext/540595297/udp.o
                0x000000000001dc58                TCPIP_UDP_ClientOpen

.text.TCPIP_STACK_NetNameGet%977
                0x000000000001dc62        0xa
 .text.TCPIP_STACK_NetNameGet
                0x000000000001dc62        0xa build/FreeRTOS/production/_ext/540595297/tcpip_manager.o
                0x000000000001dc62                TCPIP_STACK_NetNameGet

.text._TCPIPStackAddressServiceIsRunning%978
                0x000000000001dc6c        0xa
 .text._TCPIPStackAddressServiceIsRunning
                0x000000000001dc6c        0xa build/FreeRTOS/production/_ext/540595297/tcpip_manager.o
                0x000000000001dc6c                _TCPIPStackAddressServiceIsRunning

.text.TCPIP_DNS_Resolve%979
                0x000000000001dc76        0xa
 .text.TCPIP_DNS_Resolve
                0x000000000001dc76        0xa build/FreeRTOS/production/_ext/540595297/dns.o
                0x000000000001dc76                TCPIP_DNS_Resolve

.text.TCPIP_DNS_IsNameResolved%980
                0x000000000001dc80        0xa
 .text.TCPIP_DNS_IsNameResolved
                0x000000000001dc80        0xa build/FreeRTOS/production/_ext/540595297/dns.o
                0x000000000001dc80                TCPIP_DNS_IsNameResolved

.text.DMAC_0_InterruptHandler%981
                0x000000000001dc8a        0xa
 .text.DMAC_0_InterruptHandler
                0x000000000001dc8a        0xa build/FreeRTOS/production/_ext/1495216012/plib_dmac.o
                0x000000000001dc8a                DMAC_0_InterruptHandler

.text.DMAC_1_InterruptHandler%982
                0x000000000001dc94        0xa
 .text.DMAC_1_InterruptHandler
                0x000000000001dc94        0xa build/FreeRTOS/production/_ext/1495216012/plib_dmac.o
                0x000000000001dc94                DMAC_1_InterruptHandler

.text.DRV_LAN865X_EventPendingGet%983
                0x000000000001c7a8        0x8
 .text.DRV_LAN865X_EventPendingGet
                0x000000000001c7a8        0x8 build/FreeRTOS/production/_ext/585597058/drv_lan865x_api.o
                0x000000000001c7a8                DRV_LAN865X_EventPendingGet

.text.DRV_LAN865X_Deinitialize%984
                0x000000000001dc9e        0x8
 .text.DRV_LAN865X_Deinitialize
                0x000000000001dc9e        0x8 build/FreeRTOS/production/_ext/585597058/drv_lan865x_api.o
                0x000000000001dc9e                DRV_LAN865X_Deinitialize

.rodata.str1.4%985
                0x000000000001dca8        0x8
 .rodata.str1.4
                0x000000000001dca8        0x8 build/FreeRTOS/production/_ext/585597058/drv_lan865x_api.o

.text.TCPIP_Notification_Initialize%986
                0x000000000001dcb0        0x8
 .text.TCPIP_Notification_Initialize
                0x000000000001dcb0        0x8 build/FreeRTOS/production/_ext/540595297/tcpip_notify.o
                0x000000000001dcb0                TCPIP_Notification_Initialize

.text.TCPIP_UDP_TxPutIsReady%987
                0x000000000001dcb8        0x8
 .text.TCPIP_UDP_TxPutIsReady
                0x000000000001dcb8        0x8 build/FreeRTOS/production/_ext/540595297/udp.o
                0x000000000001dcb8                TCPIP_UDP_TxPutIsReady

.text.TCPIP_STACK_NetAddressMac%988
                0x000000000001dcc0        0x8
 .text.TCPIP_STACK_NetAddressMac
                0x000000000001dcc0        0x8 build/FreeRTOS/production/_ext/540595297/tcpip_manager.o
                0x000000000001dcc0                TCPIP_STACK_NetAddressMac

.text.TCPIP_STACK_NetGetType%989
                0x000000000001dcc8        0x8
 .text.TCPIP_STACK_NetGetType
                0x000000000001dcc8        0x8 build/FreeRTOS/production/_ext/540595297/tcpip_manager.o
                0x000000000001dcc8                TCPIP_STACK_NetGetType

.text.TCPIP_HEAP_Delete%990
                0x000000000001dcd0        0x8
 .text.TCPIP_HEAP_Delete
                0x000000000001dcd0        0x8 build/FreeRTOS/production/_ext/540595297/tcpip_heap_alloc.o
                0x000000000001dcd0                TCPIP_HEAP_Delete

.text.TCPIP_HEAP_MallocOutline%991
                0x000000000001dcd8        0x8
 .text.TCPIP_HEAP_MallocOutline
                0x000000000001dcd8        0x8 build/FreeRTOS/production/_ext/540595297/tcpip_heap_alloc.o
                0x000000000001dcd8                TCPIP_HEAP_MallocOutline

.text.TCPIP_HEAP_CallocOutline%992
                0x000000000001dce0        0x8
 .text.TCPIP_HEAP_CallocOutline
                0x000000000001dce0        0x8 build/FreeRTOS/production/_ext/540595297/tcpip_heap_alloc.o
                0x000000000001dce0                TCPIP_HEAP_CallocOutline

.text.TCPIP_HEAP_FreeOutline%993
                0x000000000001dce8        0x8
 .text.TCPIP_HEAP_FreeOutline
                0x000000000001dce8        0x8 build/FreeRTOS/production/_ext/540595297/tcpip_heap_alloc.o
                0x000000000001dce8                TCPIP_HEAP_FreeOutline

.text._ICMPTxPktAcknowledge%994
                0x000000000001dcf0        0x8
 .text._ICMPTxPktAcknowledge
                0x000000000001dcf0        0x8 build/FreeRTOS/production/_ext/540595297/icmp.o

.text.OSAL_Malloc%995
                0x000000000001dcf8        0x8
 .text.OSAL_Malloc
                0x000000000001dcf8        0x8 build/FreeRTOS/production/_ext/891571577/osal_freertos.o
                0x000000000001dcf8                OSAL_Malloc

.text.SERCOM1_USART_WriteCountGet%996
                0x000000000001dd00        0x8
 .text.SERCOM1_USART_WriteCountGet
                0x000000000001dd00        0x8 build/FreeRTOS/production/_ext/2092608928/plib_sercom1_usart.o
                0x000000000001dd00                SERCOM1_USART_WriteCountGet

.text.TC0_TimerFrequencyGet%997
                0x000000000001dd08        0x8
 .text.TC0_TimerFrequencyGet
                0x000000000001dd08        0x8 build/FreeRTOS/production/_ext/579449528/plib_tc0.o
                0x000000000001dd08                TC0_TimerFrequencyGet

.rodata.lkeyEndProcess.str1.4%998
                0x000000000001dd10        0x8
 .rodata.lkeyEndProcess.str1.4
                0x000000000001dd10        0x8 build/FreeRTOS/production/_ext/1005353002/sys_command.o

.rodata.lkeyHomeProcess.str1.4%999
                0x000000000001dd18        0x8
 .rodata.lkeyHomeProcess.str1.4
                0x000000000001dd18        0x8 build/FreeRTOS/production/_ext/1005353002/sys_command.o

.text.SYS_INT_Disable%1000
                0x000000000001dd20        0x8
 .text.SYS_INT_Disable
                0x000000000001dd20        0x8 build/FreeRTOS/production/_ext/1690414130/sys_int.o
                0x000000000001dd20                SYS_INT_Disable

.text.SYS_INT_Restore%1001
                0x000000000001dd28        0x8
 .text.SYS_INT_Restore
                0x000000000001dd28        0x8 build/FreeRTOS/production/_ext/1690414130/sys_int.o
                0x000000000001dd28                SYS_INT_Restore

.text.SYS_TIME_CounterGet%1002
                0x000000000001dd30        0x8
 .text.SYS_TIME_CounterGet
                0x000000000001dd30        0x8 build/FreeRTOS/production/_ext/832704728/sys_time.o
                0x000000000001dd30                SYS_TIME_CounterGet

.rodata.drvSPI0remapClockPhase%1003
                0x000000000001dd38        0x8
 .rodata.drvSPI0remapClockPhase
                0x000000000001dd38        0x8 build/FreeRTOS/production/_ext/161576091/initialization.o

.rodata.drvSPI0remapClockPolarity%1004
                0x000000000001dd40        0x8
 .rodata.drvSPI0remapClockPolarity
                0x000000000001dd40        0x8 build/FreeRTOS/production/_ext/161576091/initialization.o

.rodata.sysTimeInitData%1005
                0x000000000001dd48        0x8
 .rodata.sysTimeInitData
                0x000000000001dd48        0x8 build/FreeRTOS/production/_ext/161576091/initialization.o

.rodata.tcpipTCPInitData%1006
                0x000000000001dd50        0x8
 .rodata.tcpipTCPInitData
                0x000000000001dd50        0x8 build/FreeRTOS/production/_ext/161576091/initialization.o
                0x000000000001dd50                tcpipTCPInitData

.rodata.tcpipUDPInitData%1007
                0x000000000001dd58        0x8
 .rodata.tcpipUDPInitData
                0x000000000001dd58        0x8 build/FreeRTOS/production/_ext/161576091/initialization.o
                0x000000000001dd58                tcpipUDPInitData

.rodata.vTaskStartScheduler.str1.4%1008
                0x000000000001dd60        0x8
 .rodata.vTaskStartScheduler.str1.4
                0x000000000001dd60        0x8 build/FreeRTOS/production/_ext/404212886/FreeRTOS_tasks.o

.text.vQueueDelete%1009
                0x000000000001dd68        0x8
 .text.vQueueDelete
                0x000000000001dd68        0x8 build/FreeRTOS/production/_ext/404212886/queue.o
                0x000000000001dd68                vQueueDelete

.text.__aeabi_dsub%1010
                0x000000000001dd70        0x8
 .text.__aeabi_dsub
                0x000000000001dd70        0x8 c:/program files/microchip/xc32/v4.45/bin/bin/../../lib/gcc/pic32c/8.3.1/../../../../pic32c/lib/thumb/v7e-m+fp/hard\libm-fast-emfloat.a(__aeabi_dsub.o)
                0x000000000001dd70                __aeabi_dsub

.rodata.str1.1%1011
                0x000000000001dd78        0x8
 .rodata.str1.1
                0x000000000001dd78        0x8 c:/program files/microchip/xc32/v4.45/bin/bin/../../lib/gcc/pic32c/8.3.1/../../../../pic32c/lib/thumb/v7e-m+fp/hard\libc-musl.a(__printf_core.o)

.rodata.str1.1%1012
                0x000000000001dd80        0x7
 .rodata.str1.1
                0x000000000001dd80        0x7 c:/program files/microchip/xc32/v4.45/bin/bin/../../lib/gcc/pic32c/8.3.1/../../../../pic32c/lib/thumb/v7e-m+fp/hard\libc-musl.a(__fmt_s.o)

.text.DRV_LAN865X_Status%1013
                0x000000000001dd88        0x6
 .text.DRV_LAN865X_Status
                0x000000000001dd88        0x6 build/FreeRTOS/production/_ext/585597058/drv_lan865x_api.o
                0x000000000001dd88                DRV_LAN865X_Status

.text.DRV_LAN865X_RxFilterHashTableEntrySet%1014
                0x000000000001dd8e        0x6
 .text.DRV_LAN865X_RxFilterHashTableEntrySet
                0x000000000001dd8e        0x6 build/FreeRTOS/production/_ext/585597058/drv_lan865x_api.o
                0x000000000001dd8e                DRV_LAN865X_RxFilterHashTableEntrySet

.text.DRV_LAN865X_Process%1015
                0x000000000001dd94        0x6
 .text.DRV_LAN865X_Process
                0x000000000001dd94        0x6 build/FreeRTOS/production/_ext/585597058/drv_lan865x_api.o
                0x000000000001dd94                DRV_LAN865X_Process

.text.TCPIP_PKT_GapDcptOffset%1016
                0x000000000001dd9a        0x6
 .text.TCPIP_PKT_GapDcptOffset
                0x000000000001dd9a        0x6 build/FreeRTOS/production/_ext/540595297/tcpip_packet.o
                0x000000000001dd9a                TCPIP_PKT_GapDcptOffset

.text.TCPIP_STACK_NetBIOSName%1017
                0x000000000001dda0        0x6
 .text.TCPIP_STACK_NetBIOSName
                0x000000000001dda0        0x6 build/FreeRTOS/production/_ext/540595297/tcpip_manager.o
                0x000000000001dda0                TCPIP_STACK_NetBIOSName

.text.TCPIP_ARP_HashKeyCopy%1018
                0x000000000001dda6        0x6
 .text.TCPIP_ARP_HashKeyCopy
                0x000000000001dda6        0x6 build/FreeRTOS/production/_ext/540595297/arp.o
                0x000000000001dda6                TCPIP_ARP_HashKeyCopy

.text.vListInitialiseItem%1019
                0x000000000001ddac        0x6
 .text.vListInitialiseItem
                0x000000000001ddac        0x6 build/FreeRTOS/production/_ext/404212886/list.o
                0x000000000001ddac                vListInitialiseItem

.text.CRYPT_WCCB_Callback%1020
                0x000000000001ddb2        0x6
 .text.CRYPT_WCCB_Callback
                0x000000000001ddb2        0x6 build/FreeRTOS/production/_ext/172253694/crypt_wolfcryptcb.o
                0x000000000001ddb2                CRYPT_WCCB_Callback

.text.wc_CryptoCb_DefaultDevID%1021
                0x000000000001ddb8        0x6
 .text.wc_CryptoCb_DefaultDevID
                0x000000000001ddb8        0x6 build/FreeRTOS/production/_ext/1664057780/cryptocb.o
                0x000000000001ddb8                wc_CryptoCb_DefaultDevID

.text.DRV_LAN865X_LinkCheck%1022
                0x0000000000013404        0x4
 .text.DRV_LAN865X_LinkCheck
                0x0000000000013404        0x4 build/FreeRTOS/production/_ext/585597058/drv_lan865x_api.o
                0x0000000000013404                DRV_LAN865X_LinkCheck

.text.DRV_LAN865X_PowerMode%1023
                0x000000000001ddbe        0x4
 .text.DRV_LAN865X_PowerMode
                0x000000000001ddbe        0x4 build/FreeRTOS/production/_ext/585597058/drv_lan865x_api.o
                0x000000000001ddbe                DRV_LAN865X_PowerMode

.text.TCPIP_PKT_GapDcptSize%1024
                0x000000000001ddc2        0x4
 .text.TCPIP_PKT_GapDcptSize
                0x000000000001ddc2        0x4 build/FreeRTOS/production/_ext/540595297/tcpip_packet.o
                0x000000000001ddc2                TCPIP_PKT_GapDcptSize

.text.TCPIP_IPV4_IsFragmentationEnabled%1025
                0x000000000001ddc6        0x4
 .text.TCPIP_IPV4_IsFragmentationEnabled
                0x000000000001ddc6        0x4 build/FreeRTOS/production/_ext/540595297/ipv4.o
                0x000000000001ddc6                TCPIP_IPV4_IsFragmentationEnabled

.text.PORT_GroupRead%1026
                0x000000000001ddca        0x4
 .text.PORT_GroupRead
                0x000000000001ddca        0x4 build/FreeRTOS/production/_ext/1494856054/plib_port.o
                0x000000000001ddca                PORT_GroupRead

.text.PORT_GroupSet%1027
                0x000000000001ddce        0x4
 .text.PORT_GroupSet
                0x000000000001ddce        0x4 build/FreeRTOS/production/_ext/1494856054/plib_port.o
                0x000000000001ddce                PORT_GroupSet

.text.PORT_GroupClear%1028
                0x000000000001ddd2        0x4
 .text.PORT_GroupClear
                0x000000000001ddd2        0x4 build/FreeRTOS/production/_ext/1494856054/plib_port.o
                0x000000000001ddd2                PORT_GroupClear

.rodata.StringToArgs.str1.4%1029
                0x000000000001ddd8        0x4
 .rodata.StringToArgs.str1.4
                0x000000000001ddd8        0x4 build/FreeRTOS/production/_ext/1005353002/sys_command.o

.text.Console_UART_Flush%1030
                0x000000000001dddc        0x4
 .text.Console_UART_Flush
                0x000000000001dddc        0x4 build/FreeRTOS/production/_ext/548640822/sys_console_uart.o
                0x000000000001dddc                Console_UART_Flush

.rodata.debugInit%1031
                0x000000000001dde0        0x4
 .rodata.debugInit
                0x000000000001dde0        0x4 build/FreeRTOS/production/_ext/161576091/initialization.o

.rodata.sysConsole0UARTInitData%1032
                0x000000000001dde4        0x4
 .rodata.sysConsole0UARTInitData
                0x000000000001dde4        0x4 build/FreeRTOS/production/_ext/161576091/initialization.o

.text.__dummy_decompress%1033
                0x000000000001dde8        0x4
 .text.__dummy_decompress
                0x000000000001dde8        0x4 c:/program files/microchip/xc32/v4.45/bin/bin/../../lib/gcc/pic32c/8.3.1/../../../../pic32c/lib/thumb/v7e-m+fp/hard\libpic32c.a(data_init.o)
                0x000000000001dde8                __dinit_decompress
                0x000000000001dde8                __dinit_copy_val_data
                0x000000000001dde8                __dinit_copy_emb

.text%1034      0x000000000001ddec        0x4
 .text          0x000000000001ddec        0x4 c:/program files/microchip/xc32/v4.45/bin/bin/../../lib/gcc/pic32c/8.3.1/thumb/v7e-m+fp/hard\libgcc.a(_dvmd_tls.o)
                0x000000000001ddec                __aeabi_idiv0
                0x000000000001ddec                __aeabi_ldiv0

.text.DRV_LAN865X_Reinitialize%1035
                0x000000000000c082        0x2
 .text.DRV_LAN865X_Reinitialize
                0x000000000000c082        0x2 build/FreeRTOS/production/_ext/585597058/drv_lan865x_api.o
                0x000000000000c082                DRV_LAN865X_Reinitialize

.text._OnSoftResetCB%1036
                0x0000000000010c0a        0x2
 .text._OnSoftResetCB
                0x0000000000010c0a        0x2 build/FreeRTOS/production/_ext/585597058/drv_lan865x_api.o

.text._TCPIP_HEAP_BufferMapNonCached%1037
                0x00000000000120ce        0x2
 .text._TCPIP_HEAP_BufferMapNonCached
                0x00000000000120ce        0x2 build/FreeRTOS/production/_ext/540595297/tcpip_heap_alloc.o
                0x00000000000120ce                _TCPIP_HEAP_BufferMapNonCached

.text.EVSYS_Initialize%1038
                0x0000000000012596        0x2
 .text.EVSYS_Initialize
                0x0000000000012596        0x2 build/FreeRTOS/production/_ext/894153619/plib_evsys.o
                0x0000000000012596                EVSYS_Initialize

.text.Console_UART_Tasks%1039
                0x000000000001324e        0x2
 .text.Console_UART_Tasks
                0x000000000001324e        0x2 build/FreeRTOS/production/_ext/548640822/sys_console_uart.o
                0x000000000001324e                Console_UART_Tasks

.text.Dummy_App_Func%1040
                0x00000000000139b6        0x2
 .text.Dummy_App_Func
                0x00000000000139b6        0x2 build/FreeRTOS/production/_ext/161576091/startup_xc32.o
                0x00000000000139b6                _on_reset
                0x00000000000139b6                _on_bootstrap
                0x00000000000139b6                __xc32_on_reset
                0x00000000000139b6                Dummy_App_Func
                0x00000000000139b6                __xc32_on_bootstrap

.text.Dummy_Handler%1041
                0x0000000000015716        0x2
 .text.Dummy_Handler
                0x0000000000015716        0x2 build/FreeRTOS/production/_ext/161576091/interrupts.o
                0x0000000000015716                EIC_EXTINT_9_Handler
                0x0000000000015716                TCC0_MC5_Handler
                0x0000000000015716                USB_SOF_HSOF_Handler
                0x0000000000015716                TCC4_OTHER_Handler
                0x0000000000015716                TCC2_MC2_Handler
                0x0000000000015716                EVSYS_0_Handler
                0x0000000000015716                TRNG_Handler
                0x0000000000015716                TC2_Handler
                0x0000000000015716                USB_TRCPT0_Handler
                0x0000000000015716                DAC_OTHER_Handler
                0x0000000000015716                AC_Handler
                0x0000000000015716                DAC_EMPTY_0_Handler
                0x0000000000015716                DMAC_OTHER_Handler
                0x0000000000015716                EIC_EXTINT_5_Handler
                0x0000000000015716                SERCOM3_1_Handler
                0x0000000000015716                SERCOM4_OTHER_Handler
                0x0000000000015716                SERCOM3_2_Handler
                0x0000000000015716                EIC_EXTINT_6_Handler
                0x0000000000015716                TC7_Handler
                0x0000000000015716                TCC4_MC0_Handler
                0x0000000000015716                EVSYS_3_Handler
                0x0000000000015716                QSPI_Handler
                0x0000000000015716                TCC2_MC0_Handler
                0x0000000000015716                PDEC_OTHER_Handler
                0x0000000000015716                TCC3_MC0_Handler
                0x0000000000015716                PDEC_MC1_Handler
                0x0000000000015716                TCC2_MC1_Handler
                0x0000000000015716                OSCCTRL_XOSC1_Handler
                0x0000000000015716                PDEC_MC0_Handler
                0x0000000000015716                EIC_EXTINT_4_Handler
                0x0000000000015716                EIC_EXTINT_7_Handler
                0x0000000000015716                EVSYS_OTHER_Handler
                0x0000000000015716                RTC_Handler
                0x0000000000015716                SERCOM4_0_Handler
                0x0000000000015716                TCC1_MC0_Handler
                0x0000000000015716                TCC2_OTHER_Handler
                0x0000000000015716                EIC_EXTINT_11_Handler
                0x0000000000015716                SUPC_BODDET_Handler
                0x0000000000015716                EIC_EXTINT_14_Handler
                0x0000000000015716                OSC32KCTRL_Handler
                0x0000000000015716                SERCOM6_2_Handler
                0x0000000000015716                EVSYS_1_Handler
                0x0000000000015716                TC6_Handler
                0x0000000000015716                TCC4_MC1_Handler
                0x0000000000015716                SUPC_OTHER_Handler
                0x0000000000015716                WDT_Handler
                0x0000000000015716                CAN0_Handler
                0x0000000000015716                EIC_EXTINT_15_Handler
                0x0000000000015716                SERCOM6_0_Handler
                0x0000000000015716                EIC_EXTINT_1_Handler
                0x0000000000015716                TCC3_MC1_Handler
                0x0000000000015716                SERCOM5_0_Handler
                0x0000000000015716                TC4_Handler
                0x0000000000015716                TC1_Handler
                0x0000000000015716                TCC1_MC1_Handler
                0x0000000000015716                EIC_EXTINT_0_Handler
                0x0000000000015716                TCC1_OTHER_Handler
                0x0000000000015716                PAC_Handler
                0x0000000000015716                SERCOM4_1_Handler
                0x0000000000015716                TC3_Handler
                0x0000000000015716                Dummy_Handler
                0x0000000000015716                DAC_RESRDY_0_Handler
                0x0000000000015716                SERCOM5_1_Handler
                0x0000000000015716                DMAC_2_Handler
                0x0000000000015716                TCC0_MC4_Handler
                0x0000000000015716                USB_TRCPT1_Handler
                0x0000000000015716                TCC0_MC3_Handler
                0x0000000000015716                EIC_EXTINT_12_Handler
                0x0000000000015716                OSCCTRL_DPLL0_Handler
                0x0000000000015716                SERCOM6_OTHER_Handler
                0x0000000000015716                SERCOM7_1_Handler
                0x0000000000015716                SERCOM5_OTHER_Handler
                0x0000000000015716                PM_Handler
                0x0000000000015716                OSCCTRL_DFLL_Handler
                0x0000000000015716                SERCOM7_0_Handler
                0x0000000000015716                DAC_RESRDY_1_Handler
                0x0000000000015716                USB_OTHER_Handler
                0x0000000000015716                GMAC_Handler
                0x0000000000015716                SDHC1_Handler
                0x0000000000015716                SERCOM7_2_Handler
                0x0000000000015716                CAN1_Handler
                0x0000000000015716                TCC0_OTHER_Handler
                0x0000000000015716                EIC_EXTINT_10_Handler
                0x0000000000015716                TCC1_MC3_Handler
                0x0000000000015716                OSCCTRL_XOSC0_Handler
                0x0000000000015716                SERCOM6_1_Handler
                0x0000000000015716                TCC0_MC0_Handler
                0x0000000000015716                EIC_EXTINT_2_Handler
                0x0000000000015716                SDHC0_Handler
                0x0000000000015716                I2S_Handler
                0x0000000000015716                PCC_Handler
                0x0000000000015716                TCC3_OTHER_Handler
                0x0000000000015716                EIC_EXTINT_13_Handler
                0x0000000000015716                PUKCC_Handler
                0x0000000000015716                SERCOM2_1_Handler
                0x0000000000015716                SERCOM3_0_Handler
                0x0000000000015716                SERCOM4_2_Handler
                0x0000000000015716                TCC1_MC2_Handler
                0x0000000000015716                ADC1_RESRDY_Handler
                0x0000000000015716                NVMCTRL_1_Handler
                0x0000000000015716                SERCOM5_2_Handler
                0x0000000000015716                SERCOM2_2_Handler
                0x0000000000015716                DAC_EMPTY_1_Handler
                0x0000000000015716                ADC1_OTHER_Handler
                0x0000000000015716                OSCCTRL_DPLL1_Handler
                0x0000000000015716                EIC_EXTINT_3_Handler
                0x0000000000015716                SERCOM3_OTHER_Handler
                0x0000000000015716                EIC_EXTINT_8_Handler
                0x0000000000015716                NVMCTRL_0_Handler
                0x0000000000015716                ADC0_RESRDY_Handler
                0x0000000000015716                ADC0_OTHER_Handler
                0x0000000000015716                MCLK_Handler
                0x0000000000015716                SERCOM7_OTHER_Handler
                0x0000000000015716                EVSYS_2_Handler
                0x0000000000015716                SERCOM2_OTHER_Handler
                0x0000000000015716                FREQM_Handler
                0x0000000000015716                TCC0_MC1_Handler
                0x0000000000015716                DMAC_3_Handler
                0x0000000000015716                RAMECC_Handler
                0x0000000000015716                TC5_Handler
                0x0000000000015716                SERCOM2_0_Handler
                0x0000000000015716                AES_Handler
                0x0000000000015716                ICM_Handler
                0x0000000000015716                TCC0_MC2_Handler

.text.NonMaskableInt_Handler%1042
                0x0000000000017302        0x2
 .text.NonMaskableInt_Handler
                0x0000000000017302        0x2 build/FreeRTOS/production/_ext/161576091/exceptions.o
                0x0000000000017302                NonMaskableInt_Handler

.text.HardFault_Handler%1043
                0x00000000000175e6        0x2
 .text.HardFault_Handler
                0x00000000000175e6        0x2 build/FreeRTOS/production/_ext/161576091/exceptions.o
                0x00000000000175e6                HardFault_Handler

.text.DebugMonitor_Handler%1044
                0x000000000001783a        0x2
 .text.DebugMonitor_Handler
                0x000000000001783a        0x2 build/FreeRTOS/production/_ext/161576091/exceptions.o
                0x000000000001783a                DebugMonitor_Handler

.text.MemoryManagement_Handler%1045
                0x000000000001815e        0x2
 .text.MemoryManagement_Handler
                0x000000000001815e        0x2 build/FreeRTOS/production/_ext/161576091/exceptions.o
                0x000000000001815e                MemoryManagement_Handler

.text.BusFault_Handler%1046
                0x000000000001849e        0x2
 .text.BusFault_Handler
                0x000000000001849e        0x2 build/FreeRTOS/production/_ext/161576091/exceptions.o
                0x000000000001849e                BusFault_Handler

.text.UsageFault_Handler%1047
                0x0000000000018e0e        0x2
 .text.UsageFault_Handler
                0x0000000000018e0e        0x2 build/FreeRTOS/production/_ext/161576091/exceptions.o
                0x0000000000018e0e                UsageFault_Handler

.text.vPortFree%1048
                0x00000000000191d6        0x2
 .text.vPortFree
                0x00000000000191d6        0x2 build/FreeRTOS/production/_ext/1665200909/heap_1.o
                0x00000000000191d6                vPortFree

.text.wc_Sha256Free%1049
                0x0000000000019e2e        0x2
 .text.wc_Sha256Free
                0x0000000000019e2e        0x2 build/FreeRTOS/production/_ext/1664057780/sha256.o
                0x0000000000019e2e                wc_Sha256Free

.text.__dummy%1050
                0x000000000001a32e        0x2
 .text.__dummy  0x000000000001a32e        0x2 c:/program files/microchip/xc32/v4.45/bin/bin/../../lib/gcc/pic32c/8.3.1/../../../../pic32c/lib/thumb/v7e-m+fp/hard\libc-musl.a(__libc_start_main.o)
                0x000000000001a32e                __init_stdio
                0x000000000001a32e                __init_host
